ARM GAS  /tmp/cctXrisL.s 			page 1


   1              		.syntax unified
   2              		.cpu cortex-m4
   3              		.fpu softvfp
   4              		.eabi_attribute 20, 1
   5              		.eabi_attribute 21, 1
   6              		.eabi_attribute 23, 3
   7              		.eabi_attribute 24, 1
   8              		.eabi_attribute 25, 1
   9              		.eabi_attribute 26, 1
  10              		.eabi_attribute 30, 2
  11              		.eabi_attribute 34, 1
  12              		.eabi_attribute 18, 4
  13              		.thumb
  14              		.file	"hal_lld.c"
  15              		.text
  16              	.Ltext0:
  17              		.cfi_sections	.debug_frame
  18              		.section	.text.hal_lld_init,"ax",%progbits
  19              		.align	2
  20              		.p2align 4,,15
  21              		.global	hal_lld_init
  22              		.thumb
  23              		.thumb_func
  24              		.type	hal_lld_init, %function
  25              	hal_lld_init:
  26              	.LFB119:
  27              		.file 1 "../../os/hal/platforms/STM32F30x/hal_lld.c"
  28              		.loc 1 100 0
  29              		.cfi_startproc
  30              		@ args = 0, pretend = 0, frame = 0
  31              		@ frame_needed = 0, uses_anonymous_args = 0
  32              		.loc 1 103 0
  33 0000 254B     		ldr	r3, .L9
  34              		.loc 1 108 0
  35 0002 2649     		ldr	r1, .L9+4
  36              		.loc 1 103 0
  37 0004 9A6A     		ldr	r2, [r3, #40]
  38 0006 4FF0FF30 		mov	r0, #-1
  39 000a 0022     		movs	r2, #0
  40              		.loc 1 100 0
  41 000c F0B5     		push	{r4, r5, r6, r7, lr}
  42              		.cfi_def_cfa_offset 20
  43              		.cfi_offset 4, -20
  44              		.cfi_offset 5, -16
  45              		.cfi_offset 6, -12
  46              		.cfi_offset 7, -8
  47              		.cfi_offset 14, -4
  48              		.loc 1 103 0
  49 000e 9862     		str	r0, [r3, #40]
  50 0010 9A62     		str	r2, [r3, #40]
  51              		.loc 1 104 0
  52 0012 1F69     		ldr	r7, [r3, #16]
  53              		.loc 1 115 0
  54 0014 224E     		ldr	r6, .L9+8
  55              		.loc 1 104 0
  56 0016 1861     		str	r0, [r3, #16]
  57              		.loc 1 108 0
ARM GAS  /tmp/cctXrisL.s 			page 2


  58 0018 DFF894E0 		ldr	lr, .L9+24
  59              		.loc 1 104 0
  60 001c 1A61     		str	r2, [r3, #16]
  61              		.loc 1 110 0
  62 001e 0727     		movs	r7, #7
  63              		.loc 1 105 0
  64 0020 D3F80CC0 		ldr	ip, [r3, #12]
  65 0024 D860     		str	r0, [r3, #12]
  66 0026 DA60     		str	r2, [r3, #12]
  67              		.loc 1 108 0
  68 0028 C1F804E0 		str	lr, [r1, #4]
  69              		.loc 1 109 0
  70 002c 8A60     		str	r2, [r1, #8]
  71              		.loc 1 110 0
  72 002e 0F60     		str	r7, [r1]
  73              		.loc 1 115 0
  74 0030 F168     		ldr	r1, [r6, #12]
  75              		.loc 1 116 0
  76 0032 1C4D     		ldr	r5, .L9+12
  77              	.LBB4:
  78              	.LBB5:
  79              		.loc 1 52 0
  80 0034 1C4C     		ldr	r4, .L9+16
  81              	.LBE5:
  82              	.LBE4:
  83              		.loc 1 115 0
  84 0036 41F08071 		orr	r1, r1, #16777216
  85 003a F160     		str	r1, [r6, #12]
  86              		.loc 1 116 0
  87 003c 2968     		ldr	r1, [r5]
  88 003e 41F00101 		orr	r1, r1, #1
  89 0042 2960     		str	r1, [r5]
  90              		.loc 1 119 0
  91 0044 D969     		ldr	r1, [r3, #28]
  92 0046 41F08051 		orr	r1, r1, #268435456
  93 004a D961     		str	r1, [r3, #28]
  94              	.LBB7:
  95              	.LBB6:
  96              		.loc 1 52 0
  97 004c 2168     		ldr	r1, [r4]
  98 004e 41F48071 		orr	r1, r1, #256
  99 0052 2160     		str	r1, [r4]
 100              		.loc 1 55 0
 101 0054 196A     		ldr	r1, [r3, #32]
 102 0056 01F44071 		and	r1, r1, #768
 103 005a B1F5007F 		cmp	r1, #512
 104 005e 03D0     		beq	.L2
 105              		.loc 1 57 0
 106 0060 4FF48031 		mov	r1, #65536
 107 0064 1962     		str	r1, [r3, #32]
 108              		.loc 1 58 0
 109 0066 1A62     		str	r2, [r3, #32]
 110              	.L2:
 111              		.loc 1 77 0
 112 0068 0B4B     		ldr	r3, .L9
 113 006a 1A6A     		ldr	r2, [r3, #32]
 114 006c 1204     		lsls	r2, r2, #16
ARM GAS  /tmp/cctXrisL.s 			page 3


 115 006e 07D4     		bmi	.L3
 116              		.loc 1 79 0
 117 0070 1A6A     		ldr	r2, [r3, #32]
 118 0072 42F40072 		orr	r2, r2, #512
 119 0076 1A62     		str	r2, [r3, #32]
 120              		.loc 1 82 0
 121 0078 1A6A     		ldr	r2, [r3, #32]
 122 007a 42F40042 		orr	r2, r2, #32768
 123 007e 1A62     		str	r2, [r3, #32]
 124              	.L3:
 125              	.LBE6:
 126              	.LBE7:
 127              		.loc 1 135 0
 128 0080 0549     		ldr	r1, .L9
 129              		.loc 1 138 0
 130 0082 0A4A     		ldr	r2, .L9+20
 131              		.loc 1 135 0
 132 0084 8B69     		ldr	r3, [r1, #24]
 133 0086 43F00103 		orr	r3, r3, #1
 134 008a 8B61     		str	r3, [r1, #24]
 135              		.loc 1 138 0
 136 008c 1368     		ldr	r3, [r2]
 137 008e 43F02003 		orr	r3, r3, #32
 138 0092 1360     		str	r3, [r2]
 139 0094 F0BD     		pop	{r4, r5, r6, r7, pc}
 140              	.L10:
 141 0096 00BF     		.align	2
 142              	.L9:
 143 0098 00100240 		.word	1073876992
 144 009c 10E000E0 		.word	-536813552
 145 00a0 F0ED00E0 		.word	-536810000
 146 00a4 001000E0 		.word	-536866816
 147 00a8 00700040 		.word	1073770496
 148 00ac 00000140 		.word	1073807360
 149 00b0 3F190100 		.word	71999
 150              		.cfi_endproc
 151              	.LFE119:
 152              		.size	hal_lld_init, .-hal_lld_init
 153 00b4 AFF30080 		.section	.text.stm32_clock_init,"ax",%progbits
 153      AFF30080 
 153      AFF30080 
 154              		.align	2
 155              		.p2align 4,,15
 156              		.global	stm32_clock_init
 157              		.thumb
 158              		.thumb_func
 159              		.type	stm32_clock_init, %function
 160              	stm32_clock_init:
 161              	.LFB120:
 162              		.loc 1 148 0
 163              		.cfi_startproc
 164              		@ args = 0, pretend = 0, frame = 0
 165              		@ frame_needed = 0, uses_anonymous_args = 0
 166              		@ link register save eliminated.
 167              		.loc 1 153 0
 168 0000 224A     		ldr	r2, .L28
 169 0002 1368     		ldr	r3, [r2]
ARM GAS  /tmp/cctXrisL.s 			page 4


 170 0004 43F00103 		orr	r3, r3, #1
 171 0008 1360     		str	r3, [r2]
 172              	.L12:
 173              		.loc 1 154 0 discriminator 1
 174 000a 1368     		ldr	r3, [r2]
 175 000c 1F49     		ldr	r1, .L28
 176 000e 9807     		lsls	r0, r3, #30
 177 0010 FBD5     		bpl	.L12
 178              		.loc 1 156 0
 179 0012 0B68     		ldr	r3, [r1]
 180              		.loc 1 157 0
 181 0014 0022     		movs	r2, #0
 182              		.loc 1 156 0
 183 0016 03F0F903 		and	r3, r3, #249
 184 001a 0B60     		str	r3, [r1]
 185              		.loc 1 158 0
 186 001c 0846     		mov	r0, r1
 187              		.loc 1 157 0
 188 001e 4A60     		str	r2, [r1, #4]
 189              	.L13:
 190              		.loc 1 158 0 discriminator 1
 191 0020 4268     		ldr	r2, [r0, #4]
 192 0022 1A4B     		ldr	r3, .L28
 193 0024 12F00C0F 		tst	r2, #12
 194 0028 FAD1     		bne	.L13
 195              		.loc 1 165 0
 196 002a 1A68     		ldr	r2, [r3]
 197 002c 42F4A022 		orr	r2, r2, #327680
 198 0030 1A60     		str	r2, [r3]
 199              		.loc 1 170 0
 200 0032 1A46     		mov	r2, r3
 201              	.L14:
 202              		.loc 1 170 0 is_stmt 0 discriminator 1
 203 0034 1168     		ldr	r1, [r2]
 204 0036 154B     		ldr	r3, .L28
 205 0038 8903     		lsls	r1, r1, #14
 206 003a FBD5     		bpl	.L14
 207              		.loc 1 176 0 is_stmt 1
 208 003c 5A6A     		ldr	r2, [r3, #36]
 209 003e 42F00102 		orr	r2, r2, #1
 210 0042 5A62     		str	r2, [r3, #36]
 211              		.loc 1 177 0
 212 0044 1A46     		mov	r2, r3
 213              	.L15:
 214              		.loc 1 177 0 is_stmt 0 discriminator 1
 215 0046 516A     		ldr	r1, [r2, #36]
 216 0048 104B     		ldr	r3, .L28
 217 004a 8807     		lsls	r0, r1, #30
 218 004c FBD5     		bpl	.L15
 219              		.loc 1 182 0 is_stmt 1
 220 004e 104A     		ldr	r2, .L28+4
 221 0050 5A60     		str	r2, [r3, #4]
 222              		.loc 1 185 0
 223 0052 4FF40451 		mov	r1, #8448
 224              		.loc 1 186 0
 225 0056 3022     		movs	r2, #48
 226              		.loc 1 185 0
ARM GAS  /tmp/cctXrisL.s 			page 5


 227 0058 D962     		str	r1, [r3, #44]
 228              		.loc 1 186 0
 229 005a 1A63     		str	r2, [r3, #48]
 230              		.loc 1 192 0
 231 005c 1A68     		ldr	r2, [r3]
 232 005e 42F08072 		orr	r2, r2, #16777216
 233 0062 1A60     		str	r2, [r3]
 234              	.L16:
 235              		.loc 1 193 0 discriminator 1
 236 0064 1968     		ldr	r1, [r3]
 237 0066 094A     		ldr	r2, .L28
 238 0068 8901     		lsls	r1, r1, #6
 239 006a FBD5     		bpl	.L16
 240              		.loc 1 198 0
 241 006c 094B     		ldr	r3, .L28+8
 242 006e 1221     		movs	r1, #18
 243 0070 1960     		str	r1, [r3]
 244              		.loc 1 203 0
 245 0072 5368     		ldr	r3, [r2, #4]
 246 0074 43F00203 		orr	r3, r3, #2
 247 0078 5360     		str	r3, [r2, #4]
 248              	.L17:
 249              		.loc 1 204 0 discriminator 1
 250 007a 5368     		ldr	r3, [r2, #4]
 251 007c 0349     		ldr	r1, .L28
 252 007e 03F00C03 		and	r3, r3, #12
 253 0082 082B     		cmp	r3, #8
 254 0084 F9D1     		bne	.L17
 255              		.loc 1 210 0
 256 0086 0B6B     		ldr	r3, [r1, #48]
 257 0088 0B63     		str	r3, [r1, #48]
 258 008a 7047     		bx	lr
 259              	.L29:
 260              		.align	2
 261              	.L28:
 262 008c 00100240 		.word	1073876992
 263 0090 00241D00 		.word	1909760
 264 0094 00200240 		.word	1073881088
 265              		.cfi_endproc
 266              	.LFE120:
 267              		.size	stm32_clock_init, .-stm32_clock_init
 268 0098 AFF30080 		.text
 268      AFF30080 
 269              	.Letext0:
 270              		.file 2 "/usr/arm-none-eabi/include/machine/_default_types.h"
 271              		.file 3 "/usr/arm-none-eabi/include/stdint.h"
 272              		.file 4 "../../os/ports/common/ARMCMx/nvic.h"
 273              		.file 5 "../../os/ports/common/ARMCMx/CMSIS/include/core_cm4.h"
 274              		.file 6 "../../os/hal/platforms/STM32F30x/stm32f30x.h"