ARM GAS  /tmp/ccvWM4dU.s 			page 1


   1              		.syntax unified
   2              		.cpu cortex-m4
   3              		.fpu softvfp
   4              		.eabi_attribute 20, 1
   5              		.eabi_attribute 21, 1
   6              		.eabi_attribute 23, 3
   7              		.eabi_attribute 24, 1
   8              		.eabi_attribute 25, 1
   9              		.eabi_attribute 26, 1
  10              		.eabi_attribute 30, 2
  11              		.eabi_attribute 34, 1
  12              		.eabi_attribute 18, 4
  13              		.thumb
  14              		.file	"pal_lld.c"
  15              		.text
  16              	.Ltext0:
  17              		.cfi_sections	.debug_frame
  18              		.section	.text._pal_lld_init,"ax",%progbits
  19              		.align	2
  20              		.p2align 4,,15
  21              		.global	_pal_lld_init
  22              		.thumb
  23              		.thumb_func
  24              		.type	_pal_lld_init, %function
  25              	_pal_lld_init:
  26              	.LFB119:
  27              		.file 1 "../../os/hal/platforms/STM32/GPIOv2/pal_lld.c"
  28              		.loc 1 119 0
  29              		.cfi_startproc
  30              		@ args = 0, pretend = 0, frame = 0
  31              		@ frame_needed = 0, uses_anonymous_args = 0
  32              		@ link register save eliminated.
  33              	.LVL0:
  34 0000 F0B4     		push	{r4, r5, r6, r7}
  35              		.cfi_def_cfa_offset 16
  36              		.cfi_offset 4, -16
  37              		.cfi_offset 5, -12
  38              		.cfi_offset 6, -8
  39              		.cfi_offset 7, -4
  40              		.loc 1 130 0
  41 0002 364F     		ldr	r7, .L3
  42              	.LBB14:
  43              	.LBB15:
  44              		.loc 1 94 0
  45 0004 364D     		ldr	r5, .L3+4
  46              	.LBE15:
  47              	.LBE14:
  48              		.loc 1 130 0
  49 0006 7E69     		ldr	r6, [r7, #20]
  50              	.LBB17:
  51              	.LBB18:
  52              		.loc 1 94 0
  53 0008 364C     		ldr	r4, .L3+8
  54              	.LBE18:
  55              	.LBE17:
  56              	.LBB20:
  57              	.LBB21:
ARM GAS  /tmp/ccvWM4dU.s 			page 2


  58 000a 3749     		ldr	r1, .L3+12
  59              	.LBE21:
  60              	.LBE20:
  61              	.LBB23:
  62              	.LBB24:
  63 000c 374A     		ldr	r2, .L3+16
  64              	.LBE24:
  65              	.LBE23:
  66              	.LBB26:
  67              	.LBB27:
  68 000e 384B     		ldr	r3, .L3+20
  69              	.LBE27:
  70              	.LBE26:
  71              		.loc 1 130 0
  72 0010 46F4FC06 		orr	r6, r6, #8257536
  73 0014 7E61     		str	r6, [r7, #20]
  74              	.LVL1:
  75              	.LBB29:
  76              	.LBB30:
  77              		.loc 1 94 0
  78 0016 4FF09046 		mov	r6, #1207959552
  79 001a 4768     		ldr	r7, [r0, #4]
  80 001c 7760     		str	r7, [r6, #4]
  81              		.loc 1 95 0
  82 001e 8768     		ldr	r7, [r0, #8]
  83 0020 B760     		str	r7, [r6, #8]
  84              		.loc 1 96 0
  85 0022 C768     		ldr	r7, [r0, #12]
  86 0024 F760     		str	r7, [r6, #12]
  87              		.loc 1 97 0
  88 0026 0769     		ldr	r7, [r0, #16]
  89 0028 7761     		str	r7, [r6, #20]
  90              		.loc 1 98 0
  91 002a 4769     		ldr	r7, [r0, #20]
  92 002c 3762     		str	r7, [r6, #32]
  93              		.loc 1 99 0
  94 002e 8769     		ldr	r7, [r0, #24]
  95 0030 7762     		str	r7, [r6, #36]
  96              		.loc 1 100 0
  97 0032 0768     		ldr	r7, [r0]
  98 0034 3760     		str	r7, [r6]
  99              	.LVL2:
 100              	.LBE30:
 101              	.LBE29:
 102              	.LBB31:
 103              	.LBB16:
 104              		.loc 1 94 0
 105 0036 066A     		ldr	r6, [r0, #32]
 106 0038 6E60     		str	r6, [r5, #4]
 107              		.loc 1 95 0
 108 003a 466A     		ldr	r6, [r0, #36]
 109 003c AE60     		str	r6, [r5, #8]
 110              		.loc 1 96 0
 111 003e 866A     		ldr	r6, [r0, #40]
 112 0040 EE60     		str	r6, [r5, #12]
 113              		.loc 1 97 0
 114 0042 C66A     		ldr	r6, [r0, #44]
ARM GAS  /tmp/ccvWM4dU.s 			page 3


 115 0044 6E61     		str	r6, [r5, #20]
 116              		.loc 1 98 0
 117 0046 066B     		ldr	r6, [r0, #48]
 118 0048 2E62     		str	r6, [r5, #32]
 119              		.loc 1 99 0
 120 004a 466B     		ldr	r6, [r0, #52]
 121 004c 6E62     		str	r6, [r5, #36]
 122              		.loc 1 100 0
 123 004e C669     		ldr	r6, [r0, #28]
 124 0050 2E60     		str	r6, [r5]
 125              	.LVL3:
 126              	.LBE16:
 127              	.LBE31:
 128              	.LBB32:
 129              	.LBB19:
 130              		.loc 1 94 0
 131 0052 C56B     		ldr	r5, [r0, #60]
 132 0054 6560     		str	r5, [r4, #4]
 133              		.loc 1 95 0
 134 0056 056C     		ldr	r5, [r0, #64]
 135 0058 A560     		str	r5, [r4, #8]
 136              		.loc 1 96 0
 137 005a 456C     		ldr	r5, [r0, #68]
 138 005c E560     		str	r5, [r4, #12]
 139              		.loc 1 97 0
 140 005e 856C     		ldr	r5, [r0, #72]
 141 0060 6561     		str	r5, [r4, #20]
 142              		.loc 1 98 0
 143 0062 C56C     		ldr	r5, [r0, #76]
 144 0064 2562     		str	r5, [r4, #32]
 145              		.loc 1 99 0
 146 0066 056D     		ldr	r5, [r0, #80]
 147 0068 6562     		str	r5, [r4, #36]
 148              		.loc 1 100 0
 149 006a 856B     		ldr	r5, [r0, #56]
 150 006c 2560     		str	r5, [r4]
 151              	.LVL4:
 152              	.LBE19:
 153              	.LBE32:
 154              	.LBB33:
 155              	.LBB22:
 156              		.loc 1 94 0
 157 006e 846D     		ldr	r4, [r0, #88]
 158 0070 4C60     		str	r4, [r1, #4]
 159              		.loc 1 95 0
 160 0072 C46D     		ldr	r4, [r0, #92]
 161 0074 8C60     		str	r4, [r1, #8]
 162              		.loc 1 96 0
 163 0076 046E     		ldr	r4, [r0, #96]
 164 0078 CC60     		str	r4, [r1, #12]
 165              		.loc 1 97 0
 166 007a 446E     		ldr	r4, [r0, #100]
 167 007c 4C61     		str	r4, [r1, #20]
 168              		.loc 1 98 0
 169 007e 846E     		ldr	r4, [r0, #104]
 170 0080 0C62     		str	r4, [r1, #32]
 171              		.loc 1 99 0
ARM GAS  /tmp/ccvWM4dU.s 			page 4


 172 0082 C46E     		ldr	r4, [r0, #108]
 173 0084 4C62     		str	r4, [r1, #36]
 174              		.loc 1 100 0
 175 0086 446D     		ldr	r4, [r0, #84]
 176 0088 0C60     		str	r4, [r1]
 177              	.LVL5:
 178              	.LBE22:
 179              	.LBE33:
 180              	.LBB34:
 181              	.LBB25:
 182              		.loc 1 94 0
 183 008a 416F     		ldr	r1, [r0, #116]
 184 008c 5160     		str	r1, [r2, #4]
 185              		.loc 1 95 0
 186 008e 816F     		ldr	r1, [r0, #120]
 187 0090 9160     		str	r1, [r2, #8]
 188              		.loc 1 96 0
 189 0092 C16F     		ldr	r1, [r0, #124]
 190 0094 D160     		str	r1, [r2, #12]
 191              		.loc 1 97 0
 192 0096 D0F88010 		ldr	r1, [r0, #128]
 193 009a 5161     		str	r1, [r2, #20]
 194              		.loc 1 98 0
 195 009c D0F88410 		ldr	r1, [r0, #132]
 196 00a0 1162     		str	r1, [r2, #32]
 197              		.loc 1 99 0
 198 00a2 D0F88810 		ldr	r1, [r0, #136]
 199 00a6 5162     		str	r1, [r2, #36]
 200              		.loc 1 100 0
 201 00a8 016F     		ldr	r1, [r0, #112]
 202 00aa 1160     		str	r1, [r2]
 203              	.LVL6:
 204              	.LBE25:
 205              	.LBE34:
 206              	.LBB35:
 207              	.LBB28:
 208              		.loc 1 94 0
 209 00ac D0F89020 		ldr	r2, [r0, #144]
 210 00b0 5A60     		str	r2, [r3, #4]
 211              		.loc 1 95 0
 212 00b2 D0F89420 		ldr	r2, [r0, #148]
 213 00b6 9A60     		str	r2, [r3, #8]
 214              		.loc 1 96 0
 215 00b8 D0F89820 		ldr	r2, [r0, #152]
 216 00bc DA60     		str	r2, [r3, #12]
 217              		.loc 1 97 0
 218 00be D0F89C20 		ldr	r2, [r0, #156]
 219 00c2 5A61     		str	r2, [r3, #20]
 220              		.loc 1 98 0
 221 00c4 D0F8A020 		ldr	r2, [r0, #160]
 222 00c8 1A62     		str	r2, [r3, #32]
 223              		.loc 1 99 0
 224 00ca D0F8A420 		ldr	r2, [r0, #164]
 225 00ce 5A62     		str	r2, [r3, #36]
 226              		.loc 1 100 0
 227 00d0 D0F88C20 		ldr	r2, [r0, #140]
 228 00d4 1A60     		str	r2, [r3]
ARM GAS  /tmp/ccvWM4dU.s 			page 5


 229              	.LBE28:
 230              	.LBE35:
 231              		.loc 1 166 0
 232 00d6 F0BC     		pop	{r4, r5, r6, r7}
 233              		.cfi_restore 7
 234              		.cfi_restore 6
 235              		.cfi_restore 5
 236              		.cfi_restore 4
 237              		.cfi_def_cfa_offset 0
 238 00d8 7047     		bx	lr
 239              	.L4:
 240 00da 00BF     		.align	2
 241              	.L3:
 242 00dc 00100240 		.word	1073876992
 243 00e0 00040048 		.word	1207960576
 244 00e4 00080048 		.word	1207961600
 245 00e8 000C0048 		.word	1207962624
 246 00ec 00100048 		.word	1207963648
 247 00f0 00140048 		.word	1207964672
 248              		.cfi_endproc
 249              	.LFE119:
 250              		.size	_pal_lld_init, .-_pal_lld_init
 251 00f4 AFF30080 		.section	.text._pal_lld_setgroupmode,"ax",%progbits
 251      AFF30080 
 251      AFF30080 
 252              		.align	2
 253              		.p2align 4,,15
 254              		.global	_pal_lld_setgroupmode
 255              		.thumb
 256              		.thumb_func
 257              		.type	_pal_lld_setgroupmode, %function
 258              	_pal_lld_setgroupmode:
 259              	.LFB120:
 260              		.loc 1 184 0
 261              		.cfi_startproc
 262              		@ args = 0, pretend = 0, frame = 0
 263              		@ frame_needed = 0, uses_anonymous_args = 0
 264              	.LVL7:
 265 0000 2DE9F04F 		push	{r4, r5, r6, r7, r8, r9, r10, fp, lr}
 266              		.cfi_def_cfa_offset 36
 267              		.cfi_offset 4, -36
 268              		.cfi_offset 5, -32
 269              		.cfi_offset 6, -28
 270              		.cfi_offset 7, -24
 271              		.cfi_offset 8, -20
 272              		.cfi_offset 9, -16
 273              		.cfi_offset 10, -12
 274              		.cfi_offset 11, -8
 275              		.cfi_offset 14, -4
 276              	.LBB36:
 277              		.loc 1 197 0
 278 0004 4FF00F0C 		mov	ip, #15
 279              	.LBE36:
 280              		.loc 1 186 0
 281 0008 02F0030E 		and	lr, r2, #3
 282              	.LVL8:
 283              		.loc 1 187 0
ARM GAS  /tmp/ccvWM4dU.s 			page 6


 284 000c C2F38007 		ubfx	r7, r2, #2, #1
 285              	.LVL9:
 286              		.loc 1 188 0
 287 0010 C2F3C106 		ubfx	r6, r2, #3, #2
 288              	.LVL10:
 289              		.loc 1 189 0
 290 0014 C2F34115 		ubfx	r5, r2, #5, #2
 291              	.LVL11:
 292              		.loc 1 191 0
 293 0018 0024     		movs	r4, #0
 294              		.loc 1 190 0
 295 001a C2F3C312 		ubfx	r2, r2, #7, #4
 296              	.LVL12:
 297              	.LBB37:
 298              		.loc 1 202 0
 299 001e 4FF00109 		mov	r9, #1
 300              		.loc 1 204 0
 301 0022 4FF00308 		mov	r8, #3
 302 0026 2BE0     		b	.L10
 303              	.LVL13:
 304              	.L16:
 305              		.loc 1 199 0
 306 0028 D0F820B0 		ldr	fp, [r0, #32]
 307 002c 2BEA0303 		bic	r3, fp, r3
 308              	.LVL14:
 309 0030 43EA0A03 		orr	r3, r3, r10
 310 0034 0362     		str	r3, [r0, #32]
 311              	.L8:
 312              	.LVL15:
 313              		.loc 1 203 0
 314 0036 4368     		ldr	r3, [r0, #4]
 315              		.loc 1 202 0
 316 0038 09FA04FA 		lsl	r10, r9, r4
 317              	.LVL16:
 318              		.loc 1 203 0
 319 003c 23EA0A03 		bic	r3, r3, r10
 320 0040 3B43     		orrs	r3, r3, r7
 321 0042 4360     		str	r3, [r0, #4]
 322              	.LVL17:
 323 0044 4FEA440A 		lsl	r10, r4, #1
 324              		.loc 1 205 0
 325 0048 8368     		ldr	r3, [r0, #8]
 326              		.loc 1 204 0
 327 004a 08FA0AFA 		lsl	r10, r8, r10
 328              		.loc 1 205 0
 329 004e 6FEA0A0A 		mvn	r10, r10
 330 0052 0AEA0303 		and	r3, r10, r3
 331 0056 3343     		orrs	r3, r3, r6
 332 0058 8360     		str	r3, [r0, #8]
 333              		.loc 1 206 0
 334 005a C368     		ldr	r3, [r0, #12]
 335 005c 0AEA0303 		and	r3, r10, r3
 336 0060 2B43     		orrs	r3, r3, r5
 337 0062 C360     		str	r3, [r0, #12]
 338              		.loc 1 207 0
 339 0064 0368     		ldr	r3, [r0]
 340 0066 0AEA0303 		and	r3, r10, r3
ARM GAS  /tmp/ccvWM4dU.s 			page 7


 341 006a 43EA0E03 		orr	r3, r3, lr
 342 006e 0360     		str	r3, [r0]
 343              	.LVL18:
 344              	.L6:
 345              	.LBE37:
 346              		.loc 1 210 0
 347 0070 4908     		lsrs	r1, r1, #1
 348              	.LVL19:
 349 0072 19D0     		beq	.L5
 350              		.loc 1 212 0
 351 0074 7F00     		lsls	r7, r7, #1
 352              	.LVL20:
 353              		.loc 1 213 0
 354 0076 B600     		lsls	r6, r6, #2
 355              	.LVL21:
 356              		.loc 1 214 0
 357 0078 AD00     		lsls	r5, r5, #2
 358              	.LVL22:
 359              		.loc 1 215 0
 360 007a 4FEA8E0E 		lsl	lr, lr, #2
 361              	.LVL23:
 362              		.loc 1 216 0
 363 007e 0134     		adds	r4, r4, #1
 364              	.LVL24:
 365              	.L10:
 366              	.LBB38:
 367              		.loc 1 196 0
 368 0080 04F00703 		and	r3, r4, #7
 369 0084 9B00     		lsls	r3, r3, #2
 370              	.LBE38:
 371              		.loc 1 193 0
 372 0086 11F0010F 		tst	r1, #1
 373              	.LBB39:
 374              		.loc 1 196 0
 375 008a 02FA03FA 		lsl	r10, r2, r3
 376              	.LVL25:
 377              		.loc 1 197 0
 378 008e 0CFA03F3 		lsl	r3, ip, r3
 379              	.LVL26:
 380              	.LBE39:
 381              		.loc 1 193 0
 382 0092 EDD0     		beq	.L6
 383              	.LBB40:
 384              		.loc 1 198 0
 385 0094 072C     		cmp	r4, #7
 386 0096 C7D9     		bls	.L16
 387              		.loc 1 201 0
 388 0098 D0F824B0 		ldr	fp, [r0, #36]
 389 009c 2BEA0303 		bic	r3, fp, r3
 390              	.LVL27:
 391 00a0 43EA0A03 		orr	r3, r3, r10
 392 00a4 4362     		str	r3, [r0, #36]
 393 00a6 C6E7     		b	.L8
 394              	.LVL28:
 395              	.L5:
 396 00a8 BDE8F08F 		pop	{r4, r5, r6, r7, r8, r9, r10, fp, pc}
 397              	.LBE40:
ARM GAS  /tmp/ccvWM4dU.s 			page 8


 398              		.cfi_endproc
 399              	.LFE120:
 400              		.size	_pal_lld_setgroupmode, .-_pal_lld_setgroupmode
 401 00ac AFF30080 		.text
 402              	.Letext0:
 403              		.file 2 "/usr/arm-none-eabi/include/machine/_default_types.h"
 404              		.file 3 "/usr/arm-none-eabi/include/stdint.h"
 405              		.file 4 "../../os/hal/platforms/STM32F30x/stm32f30x.h"
 406              		.file 5 "../../os/hal/platforms/STM32/GPIOv2/pal_lld.h"
 407              		.file 6 "../../os/ports/common/ARMCMx/CMSIS/include/core_cm4.h"
 408              		.section	.debug_info,"",%progbits
 409              	.Ldebug_info0:
 410 0000 58050000 		.4byte	0x558
 411 0004 0400     		.2byte	0x4
 412 0006 00000000 		.4byte	.Ldebug_abbrev0
 413 000a 04       		.byte	0x4
 414 000b 01       		.uleb128 0x1
 415 000c 7B010000 		.4byte	.LASF65
 416 0010 01       		.byte	0x1
 417 0011 85030000 		.4byte	.LASF66
 418 0015 E5020000 		.4byte	.LASF67
 419 0019 A8000000 		.4byte	.Ldebug_ranges0+0xa8
 420 001d 00000000 		.4byte	0
 421 0021 00000000 		.4byte	.Ldebug_line0
 422 0025 02       		.uleb128 0x2
 423 0026 04       		.byte	0x4
 424 0027 05       		.byte	0x5
 425 0028 696E7400 		.ascii	"int\000"
 426 002c 03       		.uleb128 0x3
 427 002d 04       		.byte	0x4
 428 002e 07       		.byte	0x7
 429 002f 6E030000 		.4byte	.LASF0
 430 0033 03       		.uleb128 0x3
 431 0034 01       		.byte	0x1
 432 0035 06       		.byte	0x6
 433 0036 4F010000 		.4byte	.LASF1
 434 003a 03       		.uleb128 0x3
 435 003b 01       		.byte	0x1
 436 003c 08       		.byte	0x8
 437 003d 39010000 		.4byte	.LASF2
 438 0041 03       		.uleb128 0x3
 439 0042 02       		.byte	0x2
 440 0043 05       		.byte	0x5
 441 0044 5B000000 		.4byte	.LASF3
 442 0048 04       		.uleb128 0x4
 443 0049 8D000000 		.4byte	.LASF5
 444 004d 02       		.byte	0x2
 445 004e 2B       		.byte	0x2b
 446 004f 53000000 		.4byte	0x53
 447 0053 03       		.uleb128 0x3
 448 0054 02       		.byte	0x2
 449 0055 07       		.byte	0x7
 450 0056 72020000 		.4byte	.LASF4
 451 005a 04       		.uleb128 0x4
 452 005b 9B020000 		.4byte	.LASF6
 453 005f 02       		.byte	0x2
 454 0060 3F       		.byte	0x3f
ARM GAS  /tmp/ccvWM4dU.s 			page 9


 455 0061 65000000 		.4byte	0x65
 456 0065 03       		.uleb128 0x3
 457 0066 04       		.byte	0x4
 458 0067 05       		.byte	0x5
 459 0068 F6000000 		.4byte	.LASF7
 460 006c 04       		.uleb128 0x4
 461 006d 82000000 		.4byte	.LASF8
 462 0071 02       		.byte	0x2
 463 0072 41       		.byte	0x41
 464 0073 77000000 		.4byte	0x77
 465 0077 03       		.uleb128 0x3
 466 0078 04       		.byte	0x4
 467 0079 07       		.byte	0x7
 468 007a D3020000 		.4byte	.LASF9
 469 007e 03       		.uleb128 0x3
 470 007f 08       		.byte	0x8
 471 0080 05       		.byte	0x5
 472 0081 DA000000 		.4byte	.LASF10
 473 0085 03       		.uleb128 0x3
 474 0086 08       		.byte	0x8
 475 0087 07       		.byte	0x7
 476 0088 5B010000 		.4byte	.LASF11
 477 008c 04       		.uleb128 0x4
 478 008d 8A020000 		.4byte	.LASF12
 479 0091 03       		.byte	0x3
 480 0092 21       		.byte	0x21
 481 0093 48000000 		.4byte	0x48
 482 0097 04       		.uleb128 0x4
 483 0098 93020000 		.4byte	.LASF13
 484 009c 03       		.byte	0x3
 485 009d 2C       		.byte	0x2c
 486 009e 5A000000 		.4byte	0x5a
 487 00a2 04       		.uleb128 0x4
 488 00a3 72010000 		.4byte	.LASF14
 489 00a7 03       		.byte	0x3
 490 00a8 2D       		.byte	0x2d
 491 00a9 6C000000 		.4byte	0x6c
 492 00ad 03       		.uleb128 0x3
 493 00ae 01       		.byte	0x1
 494 00af 02       		.byte	0x2
 495 00b0 AF020000 		.4byte	.LASF15
 496 00b4 05       		.uleb128 0x5
 497 00b5 A2000000 		.4byte	0xa2
 498 00b9 03       		.uleb128 0x3
 499 00ba 04       		.byte	0x4
 500 00bb 07       		.byte	0x7
 501 00bc 6E000000 		.4byte	.LASF16
 502 00c0 03       		.uleb128 0x3
 503 00c1 01       		.byte	0x1
 504 00c2 08       		.byte	0x8
 505 00c3 85020000 		.4byte	.LASF17
 506 00c7 05       		.uleb128 0x5
 507 00c8 97000000 		.4byte	0x97
 508 00cc 06       		.uleb128 0x6
 509 00cd 34       		.byte	0x34
 510 00ce 04       		.byte	0x4
 511 00cf 8502     		.2byte	0x285
ARM GAS  /tmp/ccvWM4dU.s 			page 10


 512 00d1 7E010000 		.4byte	0x17e
 513 00d5 07       		.uleb128 0x7
 514 00d6 435200   		.ascii	"CR\000"
 515 00d9 04       		.byte	0x4
 516 00da 8702     		.2byte	0x287
 517 00dc B4000000 		.4byte	0xb4
 518 00e0 00       		.byte	0
 519 00e1 08       		.uleb128 0x8
 520 00e2 7B030000 		.4byte	.LASF18
 521 00e6 04       		.byte	0x4
 522 00e7 8802     		.2byte	0x288
 523 00e9 B4000000 		.4byte	0xb4
 524 00ed 04       		.byte	0x4
 525 00ee 07       		.uleb128 0x7
 526 00ef 43495200 		.ascii	"CIR\000"
 527 00f3 04       		.byte	0x4
 528 00f4 8902     		.2byte	0x289
 529 00f6 B4000000 		.4byte	0xb4
 530 00fa 08       		.byte	0x8
 531 00fb 08       		.uleb128 0x8
 532 00fc 1F010000 		.4byte	.LASF19
 533 0100 04       		.byte	0x4
 534 0101 8A02     		.2byte	0x28a
 535 0103 B4000000 		.4byte	0xb4
 536 0107 0C       		.byte	0xc
 537 0108 08       		.uleb128 0x8
 538 0109 2A000000 		.4byte	.LASF20
 539 010d 04       		.byte	0x4
 540 010e 8B02     		.2byte	0x28b
 541 0110 B4000000 		.4byte	0xb4
 542 0114 10       		.byte	0x10
 543 0115 08       		.uleb128 0x8
 544 0116 12010000 		.4byte	.LASF21
 545 011a 04       		.byte	0x4
 546 011b 8C02     		.2byte	0x28c
 547 011d B4000000 		.4byte	0xb4
 548 0121 14       		.byte	0x14
 549 0122 08       		.uleb128 0x8
 550 0123 47010000 		.4byte	.LASF22
 551 0127 04       		.byte	0x4
 552 0128 8D02     		.2byte	0x28d
 553 012a B4000000 		.4byte	0xb4
 554 012e 18       		.byte	0x18
 555 012f 08       		.uleb128 0x8
 556 0130 AF000000 		.4byte	.LASF23
 557 0134 04       		.byte	0x4
 558 0135 8E02     		.2byte	0x28e
 559 0137 B4000000 		.4byte	0xb4
 560 013b 1C       		.byte	0x1c
 561 013c 08       		.uleb128 0x8
 562 013d 77000000 		.4byte	.LASF24
 563 0141 04       		.byte	0x4
 564 0142 8F02     		.2byte	0x28f
 565 0144 B4000000 		.4byte	0xb4
 566 0148 20       		.byte	0x20
 567 0149 07       		.uleb128 0x7
 568 014a 43535200 		.ascii	"CSR\000"
ARM GAS  /tmp/ccvWM4dU.s 			page 11


 569 014e 04       		.byte	0x4
 570 014f 9002     		.2byte	0x290
 571 0151 B4000000 		.4byte	0xb4
 572 0155 24       		.byte	0x24
 573 0156 08       		.uleb128 0x8
 574 0157 D2000000 		.4byte	.LASF25
 575 015b 04       		.byte	0x4
 576 015c 9102     		.2byte	0x291
 577 015e B4000000 		.4byte	0xb4
 578 0162 28       		.byte	0x28
 579 0163 08       		.uleb128 0x8
 580 0164 5C020000 		.4byte	.LASF26
 581 0168 04       		.byte	0x4
 582 0169 9202     		.2byte	0x292
 583 016b B4000000 		.4byte	0xb4
 584 016f 2C       		.byte	0x2c
 585 0170 08       		.uleb128 0x8
 586 0171 62020000 		.4byte	.LASF27
 587 0175 04       		.byte	0x4
 588 0176 9302     		.2byte	0x293
 589 0178 B4000000 		.4byte	0xb4
 590 017c 30       		.byte	0x30
 591 017d 00       		.byte	0
 592 017e 09       		.uleb128 0x9
 593 017f 06010000 		.4byte	.LASF28
 594 0183 04       		.byte	0x4
 595 0184 9402     		.2byte	0x294
 596 0186 CC000000 		.4byte	0xcc
 597 018a 0A       		.uleb128 0xa
 598 018b 04       		.byte	0x4
 599 018c 05       		.byte	0x5
 600 018d 96       		.byte	0x96
 601 018e AB010000 		.4byte	0x1ab
 602 0192 0B       		.uleb128 0xb
 603 0193 73657400 		.ascii	"set\000"
 604 0197 05       		.byte	0x5
 605 0198 97       		.byte	0x97
 606 0199 8C000000 		.4byte	0x8c
 607 019d 00       		.byte	0
 608 019e 0C       		.uleb128 0xc
 609 019f 28010000 		.4byte	.LASF29
 610 01a3 05       		.byte	0x5
 611 01a4 98       		.byte	0x98
 612 01a5 8C000000 		.4byte	0x8c
 613 01a9 02       		.byte	0x2
 614 01aa 00       		.byte	0
 615 01ab 0D       		.uleb128 0xd
 616 01ac 04       		.byte	0x4
 617 01ad 05       		.byte	0x5
 618 01ae 94       		.byte	0x94
 619 01af C6010000 		.4byte	0x1c6
 620 01b3 0E       		.uleb128 0xe
 621 01b4 5700     		.ascii	"W\000"
 622 01b6 05       		.byte	0x5
 623 01b7 95       		.byte	0x95
 624 01b8 A2000000 		.4byte	0xa2
 625 01bc 0E       		.uleb128 0xe
ARM GAS  /tmp/ccvWM4dU.s 			page 12


 626 01bd 4800     		.ascii	"H\000"
 627 01bf 05       		.byte	0x5
 628 01c0 99       		.byte	0x99
 629 01c1 8A010000 		.4byte	0x18a
 630 01c5 00       		.byte	0
 631 01c6 0A       		.uleb128 0xa
 632 01c7 28       		.byte	0x28
 633 01c8 05       		.byte	0x5
 634 01c9 8C       		.byte	0x8c
 635 01ca 47020000 		.4byte	0x247
 636 01ce 0C       		.uleb128 0xc
 637 01cf 19010000 		.4byte	.LASF30
 638 01d3 05       		.byte	0x5
 639 01d4 8E       		.byte	0x8e
 640 01d5 B4000000 		.4byte	0xb4
 641 01d9 00       		.byte	0
 642 01da 0C       		.uleb128 0xc
 643 01db C4000000 		.4byte	.LASF31
 644 01df 05       		.byte	0x5
 645 01e0 8F       		.byte	0x8f
 646 01e1 B4000000 		.4byte	0xb4
 647 01e5 04       		.byte	0x4
 648 01e6 0C       		.uleb128 0xc
 649 01e7 CB020000 		.4byte	.LASF32
 650 01eb 05       		.byte	0x5
 651 01ec 90       		.byte	0x90
 652 01ed B4000000 		.4byte	0xb4
 653 01f1 08       		.byte	0x8
 654 01f2 0C       		.uleb128 0xc
 655 01f3 E8000000 		.4byte	.LASF33
 656 01f7 05       		.byte	0x5
 657 01f8 91       		.byte	0x91
 658 01f9 B4000000 		.4byte	0xb4
 659 01fd 0C       		.byte	0xc
 660 01fe 0B       		.uleb128 0xb
 661 01ff 49445200 		.ascii	"IDR\000"
 662 0203 05       		.byte	0x5
 663 0204 92       		.byte	0x92
 664 0205 B4000000 		.4byte	0xb4
 665 0209 10       		.byte	0x10
 666 020a 0B       		.uleb128 0xb
 667 020b 4F445200 		.ascii	"ODR\000"
 668 020f 05       		.byte	0x5
 669 0210 93       		.byte	0x93
 670 0211 B4000000 		.4byte	0xb4
 671 0215 14       		.byte	0x14
 672 0216 0C       		.uleb128 0xc
 673 0217 B3030000 		.4byte	.LASF34
 674 021b 05       		.byte	0x5
 675 021c 9A       		.byte	0x9a
 676 021d 47020000 		.4byte	0x247
 677 0221 18       		.byte	0x18
 678 0222 0C       		.uleb128 0xc
 679 0223 80030000 		.4byte	.LASF35
 680 0227 05       		.byte	0x5
 681 0228 9B       		.byte	0x9b
 682 0229 B4000000 		.4byte	0xb4
ARM GAS  /tmp/ccvWM4dU.s 			page 13


 683 022d 1C       		.byte	0x1c
 684 022e 0C       		.uleb128 0xc
 685 022f 6D020000 		.4byte	.LASF36
 686 0233 05       		.byte	0x5
 687 0234 9C       		.byte	0x9c
 688 0235 B4000000 		.4byte	0xb4
 689 0239 20       		.byte	0x20
 690 023a 0C       		.uleb128 0xc
 691 023b 68020000 		.4byte	.LASF37
 692 023f 05       		.byte	0x5
 693 0240 9D       		.byte	0x9d
 694 0241 B4000000 		.4byte	0xb4
 695 0245 24       		.byte	0x24
 696 0246 00       		.byte	0
 697 0247 05       		.uleb128 0x5
 698 0248 AB010000 		.4byte	0x1ab
 699 024c 04       		.uleb128 0x4
 700 024d 00000000 		.4byte	.LASF38
 701 0251 05       		.byte	0x5
 702 0252 9E       		.byte	0x9e
 703 0253 C6010000 		.4byte	0x1c6
 704 0257 0A       		.uleb128 0xa
 705 0258 1C       		.byte	0x1c
 706 0259 05       		.byte	0x5
 707 025a A3       		.byte	0xa3
 708 025b B4020000 		.4byte	0x2b4
 709 025f 0C       		.uleb128 0xc
 710 0260 52030000 		.4byte	.LASF39
 711 0264 05       		.byte	0x5
 712 0265 A5       		.byte	0xa5
 713 0266 A2000000 		.4byte	0xa2
 714 026a 00       		.byte	0
 715 026b 0C       		.uleb128 0xc
 716 026c 55020000 		.4byte	.LASF40
 717 0270 05       		.byte	0x5
 718 0271 A7       		.byte	0xa7
 719 0272 A2000000 		.4byte	0xa2
 720 0276 04       		.byte	0x4
 721 0277 0C       		.uleb128 0xc
 722 0278 EE000000 		.4byte	.LASF41
 723 027c 05       		.byte	0x5
 724 027d A9       		.byte	0xa9
 725 027e A2000000 		.4byte	0xa2
 726 0282 08       		.byte	0x8
 727 0283 0C       		.uleb128 0xc
 728 0284 42030000 		.4byte	.LASF42
 729 0288 05       		.byte	0x5
 730 0289 AB       		.byte	0xab
 731 028a A2000000 		.4byte	0xa2
 732 028e 0C       		.byte	0xc
 733 028f 0B       		.uleb128 0xb
 734 0290 6F647200 		.ascii	"odr\000"
 735 0294 05       		.byte	0x5
 736 0295 AD       		.byte	0xad
 737 0296 A2000000 		.4byte	0xa2
 738 029a 10       		.byte	0x10
 739 029b 0C       		.uleb128 0xc
ARM GAS  /tmp/ccvWM4dU.s 			page 14


 740 029c 4D030000 		.4byte	.LASF43
 741 02a0 05       		.byte	0x5
 742 02a1 AF       		.byte	0xaf
 743 02a2 A2000000 		.4byte	0xa2
 744 02a6 14       		.byte	0x14
 745 02a7 0C       		.uleb128 0xc
 746 02a8 48030000 		.4byte	.LASF44
 747 02ac 05       		.byte	0x5
 748 02ad B1       		.byte	0xb1
 749 02ae A2000000 		.4byte	0xa2
 750 02b2 18       		.byte	0x18
 751 02b3 00       		.byte	0
 752 02b4 04       		.uleb128 0x4
 753 02b5 41000000 		.4byte	.LASF45
 754 02b9 05       		.byte	0x5
 755 02ba B2       		.byte	0xb2
 756 02bb 57020000 		.4byte	0x257
 757 02bf 0A       		.uleb128 0xa
 758 02c0 A8       		.byte	0xa8
 759 02c1 05       		.byte	0x5
 760 02c2 BB       		.byte	0xbb
 761 02c3 10030000 		.4byte	0x310
 762 02c7 0C       		.uleb128 0xc
 763 02c8 CB000000 		.4byte	.LASF46
 764 02cc 05       		.byte	0x5
 765 02cd BE       		.byte	0xbe
 766 02ce B4020000 		.4byte	0x2b4
 767 02d2 00       		.byte	0
 768 02d3 0C       		.uleb128 0xc
 769 02d4 98000000 		.4byte	.LASF47
 770 02d8 05       		.byte	0x5
 771 02d9 C2       		.byte	0xc2
 772 02da B4020000 		.4byte	0x2b4
 773 02de 1C       		.byte	0x1c
 774 02df 0C       		.uleb128 0xc
 775 02e0 0D000000 		.4byte	.LASF48
 776 02e4 05       		.byte	0x5
 777 02e5 C6       		.byte	0xc6
 778 02e6 B4020000 		.4byte	0x2b4
 779 02ea 38       		.byte	0x38
 780 02eb 0C       		.uleb128 0xc
 781 02ec FF000000 		.4byte	.LASF49
 782 02f0 05       		.byte	0x5
 783 02f1 CA       		.byte	0xca
 784 02f2 B4020000 		.4byte	0x2b4
 785 02f6 54       		.byte	0x54
 786 02f7 0C       		.uleb128 0xc
 787 02f8 BF020000 		.4byte	.LASF50
 788 02fc 05       		.byte	0x5
 789 02fd CE       		.byte	0xce
 790 02fe B4020000 		.4byte	0x2b4
 791 0302 70       		.byte	0x70
 792 0303 0C       		.uleb128 0xc
 793 0304 54000000 		.4byte	.LASF51
 794 0308 05       		.byte	0x5
 795 0309 D2       		.byte	0xd2
 796 030a B4020000 		.4byte	0x2b4
ARM GAS  /tmp/ccvWM4dU.s 			page 15


 797 030e 8C       		.byte	0x8c
 798 030f 00       		.byte	0
 799 0310 04       		.uleb128 0x4
 800 0311 A5020000 		.4byte	.LASF52
 801 0315 05       		.byte	0x5
 802 0316 E0       		.byte	0xe0
 803 0317 BF020000 		.4byte	0x2bf
 804 031b 04       		.uleb128 0x4
 805 031c B7000000 		.4byte	.LASF53
 806 0320 05       		.byte	0x5
 807 0321 F0       		.byte	0xf0
 808 0322 A2000000 		.4byte	0xa2
 809 0326 04       		.uleb128 0x4
 810 0327 A6000000 		.4byte	.LASF54
 811 032b 05       		.byte	0x5
 812 032c F5       		.byte	0xf5
 813 032d A2000000 		.4byte	0xa2
 814 0331 04       		.uleb128 0x4
 815 0332 2E010000 		.4byte	.LASF55
 816 0336 05       		.byte	0x5
 817 0337 FD       		.byte	0xfd
 818 0338 3C030000 		.4byte	0x33c
 819 033c 0F       		.uleb128 0xf
 820 033d 04       		.byte	0x4
 821 033e 4C020000 		.4byte	0x24c
 822 0342 10       		.uleb128 0x10
 823 0343 65000000 		.4byte	.LASF68
 824 0347 01       		.byte	0x1
 825 0348 5C       		.byte	0x5c
 826 0349 01       		.byte	0x1
 827 034a 65030000 		.4byte	0x365
 828 034e 11       		.uleb128 0x11
 829 034f 7C000000 		.4byte	.LASF56
 830 0353 01       		.byte	0x1
 831 0354 5C       		.byte	0x5c
 832 0355 3C030000 		.4byte	0x33c
 833 0359 11       		.uleb128 0x11
 834 035a 9F000000 		.4byte	.LASF57
 835 035e 01       		.byte	0x1
 836 035f 5C       		.byte	0x5c
 837 0360 65030000 		.4byte	0x365
 838 0364 00       		.byte	0
 839 0365 0F       		.uleb128 0xf
 840 0366 04       		.byte	0x4
 841 0367 6B030000 		.4byte	0x36b
 842 036b 12       		.uleb128 0x12
 843 036c B4020000 		.4byte	0x2b4
 844 0370 13       		.uleb128 0x13
 845 0371 33000000 		.4byte	.LASF58
 846 0375 01       		.byte	0x1
 847 0376 77       		.byte	0x77
 848 0377 00000000 		.4byte	.LFB119
 849 037b F4000000 		.4byte	.LFE119-.LFB119
 850 037f 01       		.uleb128 0x1
 851 0380 9C       		.byte	0x9c
 852 0381 74040000 		.4byte	0x474
 853 0385 14       		.uleb128 0x14
ARM GAS  /tmp/ccvWM4dU.s 			page 16


 854 0386 9F000000 		.4byte	.LASF57
 855 038a 01       		.byte	0x1
 856 038b 77       		.byte	0x77
 857 038c 74040000 		.4byte	0x474
 858 0390 01       		.uleb128 0x1
 859 0391 50       		.byte	0x50
 860 0392 15       		.uleb128 0x15
 861 0393 42030000 		.4byte	0x342
 862 0397 04000000 		.4byte	.LBB14
 863 039b 00000000 		.4byte	.Ldebug_ranges0+0
 864 039f 01       		.byte	0x1
 865 03a0 8F       		.byte	0x8f
 866 03a1 B8030000 		.4byte	0x3b8
 867 03a5 16       		.uleb128 0x16
 868 03a6 59030000 		.4byte	0x359
 869 03aa 03       		.uleb128 0x3
 870 03ab 70       		.byte	0x70
 871 03ac 1C       		.sleb128 28
 872 03ad 9F       		.byte	0x9f
 873 03ae 17       		.uleb128 0x17
 874 03af 4E030000 		.4byte	0x34e
 875 03b3 00040048 		.4byte	0x48000400
 876 03b7 00       		.byte	0
 877 03b8 15       		.uleb128 0x15
 878 03b9 42030000 		.4byte	0x342
 879 03bd 08000000 		.4byte	.LBB17
 880 03c1 18000000 		.4byte	.Ldebug_ranges0+0x18
 881 03c5 01       		.byte	0x1
 882 03c6 92       		.byte	0x92
 883 03c7 DE030000 		.4byte	0x3de
 884 03cb 16       		.uleb128 0x16
 885 03cc 59030000 		.4byte	0x359
 886 03d0 03       		.uleb128 0x3
 887 03d1 70       		.byte	0x70
 888 03d2 38       		.sleb128 56
 889 03d3 9F       		.byte	0x9f
 890 03d4 17       		.uleb128 0x17
 891 03d5 4E030000 		.4byte	0x34e
 892 03d9 00080048 		.4byte	0x48000800
 893 03dd 00       		.byte	0
 894 03de 15       		.uleb128 0x15
 895 03df 42030000 		.4byte	0x342
 896 03e3 0A000000 		.4byte	.LBB20
 897 03e7 30000000 		.4byte	.Ldebug_ranges0+0x30
 898 03eb 01       		.byte	0x1
 899 03ec 95       		.byte	0x95
 900 03ed 05040000 		.4byte	0x405
 901 03f1 16       		.uleb128 0x16
 902 03f2 59030000 		.4byte	0x359
 903 03f6 04       		.uleb128 0x4
 904 03f7 70       		.byte	0x70
 905 03f8 D400     		.sleb128 84
 906 03fa 9F       		.byte	0x9f
 907 03fb 17       		.uleb128 0x17
 908 03fc 4E030000 		.4byte	0x34e
 909 0400 000C0048 		.4byte	0x48000c00
 910 0404 00       		.byte	0
ARM GAS  /tmp/ccvWM4dU.s 			page 17


 911 0405 15       		.uleb128 0x15
 912 0406 42030000 		.4byte	0x342
 913 040a 0C000000 		.4byte	.LBB23
 914 040e 48000000 		.4byte	.Ldebug_ranges0+0x48
 915 0412 01       		.byte	0x1
 916 0413 98       		.byte	0x98
 917 0414 2C040000 		.4byte	0x42c
 918 0418 16       		.uleb128 0x16
 919 0419 59030000 		.4byte	0x359
 920 041d 04       		.uleb128 0x4
 921 041e 70       		.byte	0x70
 922 041f F000     		.sleb128 112
 923 0421 9F       		.byte	0x9f
 924 0422 17       		.uleb128 0x17
 925 0423 4E030000 		.4byte	0x34e
 926 0427 00100048 		.4byte	0x48001000
 927 042b 00       		.byte	0
 928 042c 15       		.uleb128 0x15
 929 042d 42030000 		.4byte	0x342
 930 0431 0E000000 		.4byte	.LBB26
 931 0435 60000000 		.4byte	.Ldebug_ranges0+0x60
 932 0439 01       		.byte	0x1
 933 043a 9B       		.byte	0x9b
 934 043b 53040000 		.4byte	0x453
 935 043f 16       		.uleb128 0x16
 936 0440 59030000 		.4byte	0x359
 937 0444 04       		.uleb128 0x4
 938 0445 70       		.byte	0x70
 939 0446 8C01     		.sleb128 140
 940 0448 9F       		.byte	0x9f
 941 0449 17       		.uleb128 0x17
 942 044a 4E030000 		.4byte	0x34e
 943 044e 00140048 		.4byte	0x48001400
 944 0452 00       		.byte	0
 945 0453 18       		.uleb128 0x18
 946 0454 42030000 		.4byte	0x342
 947 0458 16000000 		.4byte	.LBB29
 948 045c 20000000 		.4byte	.LBE29-.LBB29
 949 0460 01       		.byte	0x1
 950 0461 8C       		.byte	0x8c
 951 0462 16       		.uleb128 0x16
 952 0463 59030000 		.4byte	0x359
 953 0467 01       		.uleb128 0x1
 954 0468 50       		.byte	0x50
 955 0469 17       		.uleb128 0x17
 956 046a 4E030000 		.4byte	0x34e
 957 046e 00000048 		.4byte	0x48000000
 958 0472 00       		.byte	0
 959 0473 00       		.byte	0
 960 0474 0F       		.uleb128 0xf
 961 0475 04       		.byte	0x4
 962 0476 7A040000 		.4byte	0x47a
 963 047a 12       		.uleb128 0x12
 964 047b 10030000 		.4byte	0x310
 965 047f 13       		.uleb128 0x13
 966 0480 14000000 		.4byte	.LASF59
 967 0484 01       		.byte	0x1
ARM GAS  /tmp/ccvWM4dU.s 			page 18


 968 0485 B6       		.byte	0xb6
 969 0486 00000000 		.4byte	.LFB120
 970 048a AC000000 		.4byte	.LFE120-.LFB120
 971 048e 01       		.uleb128 0x1
 972 048f 9C       		.byte	0x9c
 973 0490 4F050000 		.4byte	0x54f
 974 0494 14       		.uleb128 0x14
 975 0495 BA020000 		.4byte	.LASF60
 976 0499 01       		.byte	0x1
 977 049a B6       		.byte	0xb6
 978 049b 31030000 		.4byte	0x331
 979 049f 01       		.uleb128 0x1
 980 04a0 50       		.byte	0x50
 981 04a1 19       		.uleb128 0x19
 982 04a2 3D030000 		.4byte	.LASF61
 983 04a6 01       		.byte	0x1
 984 04a7 B7       		.byte	0xb7
 985 04a8 1B030000 		.4byte	0x31b
 986 04ac 00000000 		.4byte	.LLST0
 987 04b0 19       		.uleb128 0x19
 988 04b1 B5020000 		.4byte	.LASF62
 989 04b5 01       		.byte	0x1
 990 04b6 B8       		.byte	0xb8
 991 04b7 26030000 		.4byte	0x326
 992 04bb 2D000000 		.4byte	.LLST1
 993 04bf 1A       		.uleb128 0x1a
 994 04c0 52030000 		.4byte	.LASF39
 995 04c4 01       		.byte	0x1
 996 04c5 BA       		.byte	0xba
 997 04c6 A2000000 		.4byte	0xa2
 998 04ca 01       		.uleb128 0x1
 999 04cb 5E       		.byte	0x5e
 1000 04cc 1A       		.uleb128 0x1a
 1001 04cd 55020000 		.4byte	.LASF40
 1002 04d1 01       		.byte	0x1
 1003 04d2 BB       		.byte	0xbb
 1004 04d3 A2000000 		.4byte	0xa2
 1005 04d7 01       		.uleb128 0x1
 1006 04d8 57       		.byte	0x57
 1007 04d9 1A       		.uleb128 0x1a
 1008 04da EE000000 		.4byte	.LASF41
 1009 04de 01       		.byte	0x1
 1010 04df BC       		.byte	0xbc
 1011 04e0 A2000000 		.4byte	0xa2
 1012 04e4 01       		.uleb128 0x1
 1013 04e5 56       		.byte	0x56
 1014 04e6 1A       		.uleb128 0x1a
 1015 04e7 42030000 		.4byte	.LASF42
 1016 04eb 01       		.byte	0x1
 1017 04ec BD       		.byte	0xbd
 1018 04ed A2000000 		.4byte	0xa2
 1019 04f1 01       		.uleb128 0x1
 1020 04f2 55       		.byte	0x55
 1021 04f3 1A       		.uleb128 0x1a
 1022 04f4 C6020000 		.4byte	.LASF63
 1023 04f8 01       		.byte	0x1
 1024 04f9 BE       		.byte	0xbe
ARM GAS  /tmp/ccvWM4dU.s 			page 19


 1025 04fa A2000000 		.4byte	0xa2
 1026 04fe 01       		.uleb128 0x1
 1027 04ff 52       		.byte	0x52
 1028 0500 1B       		.uleb128 0x1b
 1029 0501 62697400 		.ascii	"bit\000"
 1030 0505 01       		.byte	0x1
 1031 0506 BF       		.byte	0xbf
 1032 0507 A2000000 		.4byte	0xa2
 1033 050b 4E000000 		.4byte	.LLST2
 1034 050f 1C       		.uleb128 0x1c
 1035 0510 78000000 		.4byte	.Ldebug_ranges0+0x78
 1036 0514 1D       		.uleb128 0x1d
 1037 0515 65030000 		.4byte	.LASF64
 1038 0519 01       		.byte	0x1
 1039 051a C2       		.byte	0xc2
 1040 051b A2000000 		.4byte	0xa2
 1041 051f 6D000000 		.4byte	.LLST3
 1042 0523 1B       		.uleb128 0x1b
 1043 0524 6D3100   		.ascii	"m1\000"
 1044 0527 01       		.byte	0x1
 1045 0528 C2       		.byte	0xc2
 1046 0529 A2000000 		.4byte	0xa2
 1047 052d B3000000 		.4byte	.LLST4
 1048 0531 1B       		.uleb128 0x1b
 1049 0532 6D3200   		.ascii	"m2\000"
 1050 0535 01       		.byte	0x1
 1051 0536 C2       		.byte	0xc2
 1052 0537 A2000000 		.4byte	0xa2
 1053 053b CA000000 		.4byte	.LLST5
 1054 053f 1B       		.uleb128 0x1b
 1055 0540 6D3400   		.ascii	"m4\000"
 1056 0543 01       		.byte	0x1
 1057 0544 C2       		.byte	0xc2
 1058 0545 A2000000 		.4byte	0xa2
 1059 0549 E3000000 		.4byte	.LLST6
 1060 054d 00       		.byte	0
 1061 054e 00       		.byte	0
 1062 054f 1E       		.uleb128 0x1e
 1063 0550 58030000 		.4byte	.LASF69
 1064 0554 06       		.byte	0x6
 1065 0555 9806     		.2byte	0x698
 1066 0557 C7000000 		.4byte	0xc7
 1067 055b 00       		.byte	0
 1068              		.section	.debug_abbrev,"",%progbits
 1069              	.Ldebug_abbrev0:
 1070 0000 01       		.uleb128 0x1
 1071 0001 11       		.uleb128 0x11
 1072 0002 01       		.byte	0x1
 1073 0003 25       		.uleb128 0x25
 1074 0004 0E       		.uleb128 0xe
 1075 0005 13       		.uleb128 0x13
 1076 0006 0B       		.uleb128 0xb
 1077 0007 03       		.uleb128 0x3
 1078 0008 0E       		.uleb128 0xe
 1079 0009 1B       		.uleb128 0x1b
 1080 000a 0E       		.uleb128 0xe
 1081 000b 55       		.uleb128 0x55
ARM GAS  /tmp/ccvWM4dU.s 			page 20


 1082 000c 17       		.uleb128 0x17
 1083 000d 11       		.uleb128 0x11
 1084 000e 01       		.uleb128 0x1
 1085 000f 10       		.uleb128 0x10
 1086 0010 17       		.uleb128 0x17
 1087 0011 00       		.byte	0
 1088 0012 00       		.byte	0
 1089 0013 02       		.uleb128 0x2
 1090 0014 24       		.uleb128 0x24
 1091 0015 00       		.byte	0
 1092 0016 0B       		.uleb128 0xb
 1093 0017 0B       		.uleb128 0xb
 1094 0018 3E       		.uleb128 0x3e
 1095 0019 0B       		.uleb128 0xb
 1096 001a 03       		.uleb128 0x3
 1097 001b 08       		.uleb128 0x8
 1098 001c 00       		.byte	0
 1099 001d 00       		.byte	0
 1100 001e 03       		.uleb128 0x3
 1101 001f 24       		.uleb128 0x24
 1102 0020 00       		.byte	0
 1103 0021 0B       		.uleb128 0xb
 1104 0022 0B       		.uleb128 0xb
 1105 0023 3E       		.uleb128 0x3e
 1106 0024 0B       		.uleb128 0xb
 1107 0025 03       		.uleb128 0x3
 1108 0026 0E       		.uleb128 0xe
 1109 0027 00       		.byte	0
 1110 0028 00       		.byte	0
 1111 0029 04       		.uleb128 0x4
 1112 002a 16       		.uleb128 0x16
 1113 002b 00       		.byte	0
 1114 002c 03       		.uleb128 0x3
 1115 002d 0E       		.uleb128 0xe
 1116 002e 3A       		.uleb128 0x3a
 1117 002f 0B       		.uleb128 0xb
 1118 0030 3B       		.uleb128 0x3b
 1119 0031 0B       		.uleb128 0xb
 1120 0032 49       		.uleb128 0x49
 1121 0033 13       		.uleb128 0x13
 1122 0034 00       		.byte	0
 1123 0035 00       		.byte	0
 1124 0036 05       		.uleb128 0x5
 1125 0037 35       		.uleb128 0x35
 1126 0038 00       		.byte	0
 1127 0039 49       		.uleb128 0x49
 1128 003a 13       		.uleb128 0x13
 1129 003b 00       		.byte	0
 1130 003c 00       		.byte	0
 1131 003d 06       		.uleb128 0x6
 1132 003e 13       		.uleb128 0x13
 1133 003f 01       		.byte	0x1
 1134 0040 0B       		.uleb128 0xb
 1135 0041 0B       		.uleb128 0xb
 1136 0042 3A       		.uleb128 0x3a
 1137 0043 0B       		.uleb128 0xb
 1138 0044 3B       		.uleb128 0x3b
ARM GAS  /tmp/ccvWM4dU.s 			page 21


 1139 0045 05       		.uleb128 0x5
 1140 0046 01       		.uleb128 0x1
 1141 0047 13       		.uleb128 0x13
 1142 0048 00       		.byte	0
 1143 0049 00       		.byte	0
 1144 004a 07       		.uleb128 0x7
 1145 004b 0D       		.uleb128 0xd
 1146 004c 00       		.byte	0
 1147 004d 03       		.uleb128 0x3
 1148 004e 08       		.uleb128 0x8
 1149 004f 3A       		.uleb128 0x3a
 1150 0050 0B       		.uleb128 0xb
 1151 0051 3B       		.uleb128 0x3b
 1152 0052 05       		.uleb128 0x5
 1153 0053 49       		.uleb128 0x49
 1154 0054 13       		.uleb128 0x13
 1155 0055 38       		.uleb128 0x38
 1156 0056 0B       		.uleb128 0xb
 1157 0057 00       		.byte	0
 1158 0058 00       		.byte	0
 1159 0059 08       		.uleb128 0x8
 1160 005a 0D       		.uleb128 0xd
 1161 005b 00       		.byte	0
 1162 005c 03       		.uleb128 0x3
 1163 005d 0E       		.uleb128 0xe
 1164 005e 3A       		.uleb128 0x3a
 1165 005f 0B       		.uleb128 0xb
 1166 0060 3B       		.uleb128 0x3b
 1167 0061 05       		.uleb128 0x5
 1168 0062 49       		.uleb128 0x49
 1169 0063 13       		.uleb128 0x13
 1170 0064 38       		.uleb128 0x38
 1171 0065 0B       		.uleb128 0xb
 1172 0066 00       		.byte	0
 1173 0067 00       		.byte	0
 1174 0068 09       		.uleb128 0x9
 1175 0069 16       		.uleb128 0x16
 1176 006a 00       		.byte	0
 1177 006b 03       		.uleb128 0x3
 1178 006c 0E       		.uleb128 0xe
 1179 006d 3A       		.uleb128 0x3a
 1180 006e 0B       		.uleb128 0xb
 1181 006f 3B       		.uleb128 0x3b
 1182 0070 05       		.uleb128 0x5
 1183 0071 49       		.uleb128 0x49
 1184 0072 13       		.uleb128 0x13
 1185 0073 00       		.byte	0
 1186 0074 00       		.byte	0
 1187 0075 0A       		.uleb128 0xa
 1188 0076 13       		.uleb128 0x13
 1189 0077 01       		.byte	0x1
 1190 0078 0B       		.uleb128 0xb
 1191 0079 0B       		.uleb128 0xb
 1192 007a 3A       		.uleb128 0x3a
 1193 007b 0B       		.uleb128 0xb
 1194 007c 3B       		.uleb128 0x3b
 1195 007d 0B       		.uleb128 0xb
ARM GAS  /tmp/ccvWM4dU.s 			page 22


 1196 007e 01       		.uleb128 0x1
 1197 007f 13       		.uleb128 0x13
 1198 0080 00       		.byte	0
 1199 0081 00       		.byte	0
 1200 0082 0B       		.uleb128 0xb
 1201 0083 0D       		.uleb128 0xd
 1202 0084 00       		.byte	0
 1203 0085 03       		.uleb128 0x3
 1204 0086 08       		.uleb128 0x8
 1205 0087 3A       		.uleb128 0x3a
 1206 0088 0B       		.uleb128 0xb
 1207 0089 3B       		.uleb128 0x3b
 1208 008a 0B       		.uleb128 0xb
 1209 008b 49       		.uleb128 0x49
 1210 008c 13       		.uleb128 0x13
 1211 008d 38       		.uleb128 0x38
 1212 008e 0B       		.uleb128 0xb
 1213 008f 00       		.byte	0
 1214 0090 00       		.byte	0
 1215 0091 0C       		.uleb128 0xc
 1216 0092 0D       		.uleb128 0xd
 1217 0093 00       		.byte	0
 1218 0094 03       		.uleb128 0x3
 1219 0095 0E       		.uleb128 0xe
 1220 0096 3A       		.uleb128 0x3a
 1221 0097 0B       		.uleb128 0xb
 1222 0098 3B       		.uleb128 0x3b
 1223 0099 0B       		.uleb128 0xb
 1224 009a 49       		.uleb128 0x49
 1225 009b 13       		.uleb128 0x13
 1226 009c 38       		.uleb128 0x38
 1227 009d 0B       		.uleb128 0xb
 1228 009e 00       		.byte	0
 1229 009f 00       		.byte	0
 1230 00a0 0D       		.uleb128 0xd
 1231 00a1 17       		.uleb128 0x17
 1232 00a2 01       		.byte	0x1
 1233 00a3 0B       		.uleb128 0xb
 1234 00a4 0B       		.uleb128 0xb
 1235 00a5 3A       		.uleb128 0x3a
 1236 00a6 0B       		.uleb128 0xb
 1237 00a7 3B       		.uleb128 0x3b
 1238 00a8 0B       		.uleb128 0xb
 1239 00a9 01       		.uleb128 0x1
 1240 00aa 13       		.uleb128 0x13
 1241 00ab 00       		.byte	0
 1242 00ac 00       		.byte	0
 1243 00ad 0E       		.uleb128 0xe
 1244 00ae 0D       		.uleb128 0xd
 1245 00af 00       		.byte	0
 1246 00b0 03       		.uleb128 0x3
 1247 00b1 08       		.uleb128 0x8
 1248 00b2 3A       		.uleb128 0x3a
 1249 00b3 0B       		.uleb128 0xb
 1250 00b4 3B       		.uleb128 0x3b
 1251 00b5 0B       		.uleb128 0xb
 1252 00b6 49       		.uleb128 0x49
ARM GAS  /tmp/ccvWM4dU.s 			page 23


 1253 00b7 13       		.uleb128 0x13
 1254 00b8 00       		.byte	0
 1255 00b9 00       		.byte	0
 1256 00ba 0F       		.uleb128 0xf
 1257 00bb 0F       		.uleb128 0xf
 1258 00bc 00       		.byte	0
 1259 00bd 0B       		.uleb128 0xb
 1260 00be 0B       		.uleb128 0xb
 1261 00bf 49       		.uleb128 0x49
 1262 00c0 13       		.uleb128 0x13
 1263 00c1 00       		.byte	0
 1264 00c2 00       		.byte	0
 1265 00c3 10       		.uleb128 0x10
 1266 00c4 2E       		.uleb128 0x2e
 1267 00c5 01       		.byte	0x1
 1268 00c6 03       		.uleb128 0x3
 1269 00c7 0E       		.uleb128 0xe
 1270 00c8 3A       		.uleb128 0x3a
 1271 00c9 0B       		.uleb128 0xb
 1272 00ca 3B       		.uleb128 0x3b
 1273 00cb 0B       		.uleb128 0xb
 1274 00cc 27       		.uleb128 0x27
 1275 00cd 19       		.uleb128 0x19
 1276 00ce 20       		.uleb128 0x20
 1277 00cf 0B       		.uleb128 0xb
 1278 00d0 01       		.uleb128 0x1
 1279 00d1 13       		.uleb128 0x13
 1280 00d2 00       		.byte	0
 1281 00d3 00       		.byte	0
 1282 00d4 11       		.uleb128 0x11
 1283 00d5 05       		.uleb128 0x5
 1284 00d6 00       		.byte	0
 1285 00d7 03       		.uleb128 0x3
 1286 00d8 0E       		.uleb128 0xe
 1287 00d9 3A       		.uleb128 0x3a
 1288 00da 0B       		.uleb128 0xb
 1289 00db 3B       		.uleb128 0x3b
 1290 00dc 0B       		.uleb128 0xb
 1291 00dd 49       		.uleb128 0x49
 1292 00de 13       		.uleb128 0x13
 1293 00df 00       		.byte	0
 1294 00e0 00       		.byte	0
 1295 00e1 12       		.uleb128 0x12
 1296 00e2 26       		.uleb128 0x26
 1297 00e3 00       		.byte	0
 1298 00e4 49       		.uleb128 0x49
 1299 00e5 13       		.uleb128 0x13
 1300 00e6 00       		.byte	0
 1301 00e7 00       		.byte	0
 1302 00e8 13       		.uleb128 0x13
 1303 00e9 2E       		.uleb128 0x2e
 1304 00ea 01       		.byte	0x1
 1305 00eb 3F       		.uleb128 0x3f
 1306 00ec 19       		.uleb128 0x19
 1307 00ed 03       		.uleb128 0x3
 1308 00ee 0E       		.uleb128 0xe
 1309 00ef 3A       		.uleb128 0x3a
ARM GAS  /tmp/ccvWM4dU.s 			page 24


 1310 00f0 0B       		.uleb128 0xb
 1311 00f1 3B       		.uleb128 0x3b
 1312 00f2 0B       		.uleb128 0xb
 1313 00f3 27       		.uleb128 0x27
 1314 00f4 19       		.uleb128 0x19
 1315 00f5 11       		.uleb128 0x11
 1316 00f6 01       		.uleb128 0x1
 1317 00f7 12       		.uleb128 0x12
 1318 00f8 06       		.uleb128 0x6
 1319 00f9 40       		.uleb128 0x40
 1320 00fa 18       		.uleb128 0x18
 1321 00fb 9742     		.uleb128 0x2117
 1322 00fd 19       		.uleb128 0x19
 1323 00fe 01       		.uleb128 0x1
 1324 00ff 13       		.uleb128 0x13
 1325 0100 00       		.byte	0
 1326 0101 00       		.byte	0
 1327 0102 14       		.uleb128 0x14
 1328 0103 05       		.uleb128 0x5
 1329 0104 00       		.byte	0
 1330 0105 03       		.uleb128 0x3
 1331 0106 0E       		.uleb128 0xe
 1332 0107 3A       		.uleb128 0x3a
 1333 0108 0B       		.uleb128 0xb
 1334 0109 3B       		.uleb128 0x3b
 1335 010a 0B       		.uleb128 0xb
 1336 010b 49       		.uleb128 0x49
 1337 010c 13       		.uleb128 0x13
 1338 010d 02       		.uleb128 0x2
 1339 010e 18       		.uleb128 0x18
 1340 010f 00       		.byte	0
 1341 0110 00       		.byte	0
 1342 0111 15       		.uleb128 0x15
 1343 0112 1D       		.uleb128 0x1d
 1344 0113 01       		.byte	0x1
 1345 0114 31       		.uleb128 0x31
 1346 0115 13       		.uleb128 0x13
 1347 0116 52       		.uleb128 0x52
 1348 0117 01       		.uleb128 0x1
 1349 0118 55       		.uleb128 0x55
 1350 0119 17       		.uleb128 0x17
 1351 011a 58       		.uleb128 0x58
 1352 011b 0B       		.uleb128 0xb
 1353 011c 59       		.uleb128 0x59
 1354 011d 0B       		.uleb128 0xb
 1355 011e 01       		.uleb128 0x1
 1356 011f 13       		.uleb128 0x13
 1357 0120 00       		.byte	0
 1358 0121 00       		.byte	0
 1359 0122 16       		.uleb128 0x16
 1360 0123 05       		.uleb128 0x5
 1361 0124 00       		.byte	0
 1362 0125 31       		.uleb128 0x31
 1363 0126 13       		.uleb128 0x13
 1364 0127 02       		.uleb128 0x2
 1365 0128 18       		.uleb128 0x18
 1366 0129 00       		.byte	0
ARM GAS  /tmp/ccvWM4dU.s 			page 25


 1367 012a 00       		.byte	0
 1368 012b 17       		.uleb128 0x17
 1369 012c 05       		.uleb128 0x5
 1370 012d 00       		.byte	0
 1371 012e 31       		.uleb128 0x31
 1372 012f 13       		.uleb128 0x13
 1373 0130 1C       		.uleb128 0x1c
 1374 0131 06       		.uleb128 0x6
 1375 0132 00       		.byte	0
 1376 0133 00       		.byte	0
 1377 0134 18       		.uleb128 0x18
 1378 0135 1D       		.uleb128 0x1d
 1379 0136 01       		.byte	0x1
 1380 0137 31       		.uleb128 0x31
 1381 0138 13       		.uleb128 0x13
 1382 0139 11       		.uleb128 0x11
 1383 013a 01       		.uleb128 0x1
 1384 013b 12       		.uleb128 0x12
 1385 013c 06       		.uleb128 0x6
 1386 013d 58       		.uleb128 0x58
 1387 013e 0B       		.uleb128 0xb
 1388 013f 59       		.uleb128 0x59
 1389 0140 0B       		.uleb128 0xb
 1390 0141 00       		.byte	0
 1391 0142 00       		.byte	0
 1392 0143 19       		.uleb128 0x19
 1393 0144 05       		.uleb128 0x5
 1394 0145 00       		.byte	0
 1395 0146 03       		.uleb128 0x3
 1396 0147 0E       		.uleb128 0xe
 1397 0148 3A       		.uleb128 0x3a
 1398 0149 0B       		.uleb128 0xb
 1399 014a 3B       		.uleb128 0x3b
 1400 014b 0B       		.uleb128 0xb
 1401 014c 49       		.uleb128 0x49
 1402 014d 13       		.uleb128 0x13
 1403 014e 02       		.uleb128 0x2
 1404 014f 17       		.uleb128 0x17
 1405 0150 00       		.byte	0
 1406 0151 00       		.byte	0
 1407 0152 1A       		.uleb128 0x1a
 1408 0153 34       		.uleb128 0x34
 1409 0154 00       		.byte	0
 1410 0155 03       		.uleb128 0x3
 1411 0156 0E       		.uleb128 0xe
 1412 0157 3A       		.uleb128 0x3a
 1413 0158 0B       		.uleb128 0xb
 1414 0159 3B       		.uleb128 0x3b
 1415 015a 0B       		.uleb128 0xb
 1416 015b 49       		.uleb128 0x49
 1417 015c 13       		.uleb128 0x13
 1418 015d 02       		.uleb128 0x2
 1419 015e 18       		.uleb128 0x18
 1420 015f 00       		.byte	0
 1421 0160 00       		.byte	0
 1422 0161 1B       		.uleb128 0x1b
 1423 0162 34       		.uleb128 0x34
ARM GAS  /tmp/ccvWM4dU.s 			page 26


 1424 0163 00       		.byte	0
 1425 0164 03       		.uleb128 0x3
 1426 0165 08       		.uleb128 0x8
 1427 0166 3A       		.uleb128 0x3a
 1428 0167 0B       		.uleb128 0xb
 1429 0168 3B       		.uleb128 0x3b
 1430 0169 0B       		.uleb128 0xb
 1431 016a 49       		.uleb128 0x49
 1432 016b 13       		.uleb128 0x13
 1433 016c 02       		.uleb128 0x2
 1434 016d 17       		.uleb128 0x17
 1435 016e 00       		.byte	0
 1436 016f 00       		.byte	0
 1437 0170 1C       		.uleb128 0x1c
 1438 0171 0B       		.uleb128 0xb
 1439 0172 01       		.byte	0x1
 1440 0173 55       		.uleb128 0x55
 1441 0174 17       		.uleb128 0x17
 1442 0175 00       		.byte	0
 1443 0176 00       		.byte	0
 1444 0177 1D       		.uleb128 0x1d
 1445 0178 34       		.uleb128 0x34
 1446 0179 00       		.byte	0
 1447 017a 03       		.uleb128 0x3
 1448 017b 0E       		.uleb128 0xe
 1449 017c 3A       		.uleb128 0x3a
 1450 017d 0B       		.uleb128 0xb
 1451 017e 3B       		.uleb128 0x3b
 1452 017f 0B       		.uleb128 0xb
 1453 0180 49       		.uleb128 0x49
 1454 0181 13       		.uleb128 0x13
 1455 0182 02       		.uleb128 0x2
 1456 0183 17       		.uleb128 0x17
 1457 0184 00       		.byte	0
 1458 0185 00       		.byte	0
 1459 0186 1E       		.uleb128 0x1e
 1460 0187 34       		.uleb128 0x34
 1461 0188 00       		.byte	0
 1462 0189 03       		.uleb128 0x3
 1463 018a 0E       		.uleb128 0xe
 1464 018b 3A       		.uleb128 0x3a
 1465 018c 0B       		.uleb128 0xb
 1466 018d 3B       		.uleb128 0x3b
 1467 018e 05       		.uleb128 0x5
 1468 018f 49       		.uleb128 0x49
 1469 0190 13       		.uleb128 0x13
 1470 0191 3F       		.uleb128 0x3f
 1471 0192 19       		.uleb128 0x19
 1472 0193 3C       		.uleb128 0x3c
 1473 0194 19       		.uleb128 0x19
 1474 0195 00       		.byte	0
 1475 0196 00       		.byte	0
 1476 0197 00       		.byte	0
 1477              		.section	.debug_loc,"",%progbits
 1478              	.Ldebug_loc0:
 1479              	.LLST0:
 1480 0000 00000000 		.4byte	.LVL7
ARM GAS  /tmp/ccvWM4dU.s 			page 27


 1481 0004 70000000 		.4byte	.LVL18
 1482 0008 0100     		.2byte	0x1
 1483 000a 51       		.byte	0x51
 1484 000b 70000000 		.4byte	.LVL18
 1485 000f 72000000 		.4byte	.LVL19
 1486 0013 0500     		.2byte	0x5
 1487 0015 71       		.byte	0x71
 1488 0016 00       		.sleb128 0
 1489 0017 31       		.byte	0x31
 1490 0018 25       		.byte	0x25
 1491 0019 9F       		.byte	0x9f
 1492 001a 72000000 		.4byte	.LVL19
 1493 001e AC000000 		.4byte	.LFE120
 1494 0022 0100     		.2byte	0x1
 1495 0024 51       		.byte	0x51
 1496 0025 00000000 		.4byte	0
 1497 0029 00000000 		.4byte	0
 1498              	.LLST1:
 1499 002d 00000000 		.4byte	.LVL7
 1500 0031 1E000000 		.4byte	.LVL12
 1501 0035 0100     		.2byte	0x1
 1502 0037 52       		.byte	0x52
 1503 0038 1E000000 		.4byte	.LVL12
 1504 003c AC000000 		.4byte	.LFE120
 1505 0040 0400     		.2byte	0x4
 1506 0042 F3       		.byte	0xf3
 1507 0043 01       		.uleb128 0x1
 1508 0044 52       		.byte	0x52
 1509 0045 9F       		.byte	0x9f
 1510 0046 00000000 		.4byte	0
 1511 004a 00000000 		.4byte	0
 1512              	.LLST2:
 1513 004e 1E000000 		.4byte	.LVL12
 1514 0052 28000000 		.4byte	.LVL13
 1515 0056 0200     		.2byte	0x2
 1516 0058 30       		.byte	0x30
 1517 0059 9F       		.byte	0x9f
 1518 005a 28000000 		.4byte	.LVL13
 1519 005e AC000000 		.4byte	.LFE120
 1520 0062 0100     		.2byte	0x1
 1521 0064 54       		.byte	0x54
 1522 0065 00000000 		.4byte	0
 1523 0069 00000000 		.4byte	0
 1524              	.LLST3:
 1525 006d 28000000 		.4byte	.LVL13
 1526 0071 3C000000 		.4byte	.LVL16
 1527 0075 0100     		.2byte	0x1
 1528 0077 5A       		.byte	0x5a
 1529 0078 3C000000 		.4byte	.LVL16
 1530 007c 80000000 		.4byte	.LVL24
 1531 0080 0A00     		.2byte	0xa
 1532 0082 72       		.byte	0x72
 1533 0083 00       		.sleb128 0
 1534 0084 74       		.byte	0x74
 1535 0085 00       		.sleb128 0
 1536 0086 37       		.byte	0x37
 1537 0087 1A       		.byte	0x1a
ARM GAS  /tmp/ccvWM4dU.s 			page 28


 1538 0088 32       		.byte	0x32
 1539 0089 24       		.byte	0x24
 1540 008a 24       		.byte	0x24
 1541 008b 9F       		.byte	0x9f
 1542 008c 8E000000 		.4byte	.LVL25
 1543 0090 A8000000 		.4byte	.LVL28
 1544 0094 0100     		.2byte	0x1
 1545 0096 5A       		.byte	0x5a
 1546 0097 A8000000 		.4byte	.LVL28
 1547 009b AC000000 		.4byte	.LFE120
 1548 009f 0A00     		.2byte	0xa
 1549 00a1 72       		.byte	0x72
 1550 00a2 00       		.sleb128 0
 1551 00a3 74       		.byte	0x74
 1552 00a4 00       		.sleb128 0
 1553 00a5 37       		.byte	0x37
 1554 00a6 1A       		.byte	0x1a
 1555 00a7 32       		.byte	0x32
 1556 00a8 24       		.byte	0x24
 1557 00a9 24       		.byte	0x24
 1558 00aa 9F       		.byte	0x9f
 1559 00ab 00000000 		.4byte	0
 1560 00af 00000000 		.4byte	0
 1561              	.LLST4:
 1562 00b3 36000000 		.4byte	.LVL15
 1563 00b7 70000000 		.4byte	.LVL18
 1564 00bb 0500     		.2byte	0x5
 1565 00bd 31       		.byte	0x31
 1566 00be 74       		.byte	0x74
 1567 00bf 00       		.sleb128 0
 1568 00c0 24       		.byte	0x24
 1569 00c1 9F       		.byte	0x9f
 1570 00c2 00000000 		.4byte	0
 1571 00c6 00000000 		.4byte	0
 1572              	.LLST5:
 1573 00ca 44000000 		.4byte	.LVL17
 1574 00ce 70000000 		.4byte	.LVL18
 1575 00d2 0700     		.2byte	0x7
 1576 00d4 33       		.byte	0x33
 1577 00d5 74       		.byte	0x74
 1578 00d6 00       		.sleb128 0
 1579 00d7 31       		.byte	0x31
 1580 00d8 24       		.byte	0x24
 1581 00d9 24       		.byte	0x24
 1582 00da 9F       		.byte	0x9f
 1583 00db 00000000 		.4byte	0
 1584 00df 00000000 		.4byte	0
 1585              	.LLST6:
 1586 00e3 28000000 		.4byte	.LVL13
 1587 00e7 30000000 		.4byte	.LVL14
 1588 00eb 0100     		.2byte	0x1
 1589 00ed 53       		.byte	0x53
 1590 00ee 30000000 		.4byte	.LVL14
 1591 00f2 80000000 		.4byte	.LVL24
 1592 00f6 0A00     		.2byte	0xa
 1593 00f8 7C       		.byte	0x7c
 1594 00f9 00       		.sleb128 0
ARM GAS  /tmp/ccvWM4dU.s 			page 29


 1595 00fa 74       		.byte	0x74
 1596 00fb 00       		.sleb128 0
 1597 00fc 37       		.byte	0x37
 1598 00fd 1A       		.byte	0x1a
 1599 00fe 32       		.byte	0x32
 1600 00ff 24       		.byte	0x24
 1601 0100 24       		.byte	0x24
 1602 0101 9F       		.byte	0x9f
 1603 0102 92000000 		.4byte	.LVL26
 1604 0106 A0000000 		.4byte	.LVL27
 1605 010a 0100     		.2byte	0x1
 1606 010c 53       		.byte	0x53
 1607 010d A0000000 		.4byte	.LVL27
 1608 0111 AC000000 		.4byte	.LFE120
 1609 0115 0A00     		.2byte	0xa
 1610 0117 7C       		.byte	0x7c
 1611 0118 00       		.sleb128 0
 1612 0119 74       		.byte	0x74
 1613 011a 00       		.sleb128 0
 1614 011b 37       		.byte	0x37
 1615 011c 1A       		.byte	0x1a
 1616 011d 32       		.byte	0x32
 1617 011e 24       		.byte	0x24
 1618 011f 24       		.byte	0x24
 1619 0120 9F       		.byte	0x9f
 1620 0121 00000000 		.4byte	0
 1621 0125 00000000 		.4byte	0
 1622              		.section	.debug_aranges,"",%progbits
 1623 0000 24000000 		.4byte	0x24
 1624 0004 0200     		.2byte	0x2
 1625 0006 00000000 		.4byte	.Ldebug_info0
 1626 000a 04       		.byte	0x4
 1627 000b 00       		.byte	0
 1628 000c 0000     		.2byte	0
 1629 000e 0000     		.2byte	0
 1630 0010 00000000 		.4byte	.LFB119
 1631 0014 F4000000 		.4byte	.LFE119-.LFB119
 1632 0018 00000000 		.4byte	.LFB120
 1633 001c AC000000 		.4byte	.LFE120-.LFB120
 1634 0020 00000000 		.4byte	0
 1635 0024 00000000 		.4byte	0
 1636              		.section	.debug_ranges,"",%progbits
 1637              	.Ldebug_ranges0:
 1638 0000 04000000 		.4byte	.LBB14
 1639 0004 06000000 		.4byte	.LBE14
 1640 0008 36000000 		.4byte	.LBB31
 1641 000c 52000000 		.4byte	.LBE31
 1642 0010 00000000 		.4byte	0
 1643 0014 00000000 		.4byte	0
 1644 0018 08000000 		.4byte	.LBB17
 1645 001c 0A000000 		.4byte	.LBE17
 1646 0020 52000000 		.4byte	.LBB32
 1647 0024 6E000000 		.4byte	.LBE32
 1648 0028 00000000 		.4byte	0
 1649 002c 00000000 		.4byte	0
 1650 0030 0A000000 		.4byte	.LBB20
 1651 0034 0C000000 		.4byte	.LBE20
ARM GAS  /tmp/ccvWM4dU.s 			page 30


 1652 0038 6E000000 		.4byte	.LBB33
 1653 003c 8A000000 		.4byte	.LBE33
 1654 0040 00000000 		.4byte	0
 1655 0044 00000000 		.4byte	0
 1656 0048 0C000000 		.4byte	.LBB23
 1657 004c 0E000000 		.4byte	.LBE23
 1658 0050 8A000000 		.4byte	.LBB34
 1659 0054 AC000000 		.4byte	.LBE34
 1660 0058 00000000 		.4byte	0
 1661 005c 00000000 		.4byte	0
 1662 0060 0E000000 		.4byte	.LBB26
 1663 0064 10000000 		.4byte	.LBE26
 1664 0068 AC000000 		.4byte	.LBB35
 1665 006c D6000000 		.4byte	.LBE35
 1666 0070 00000000 		.4byte	0
 1667 0074 00000000 		.4byte	0
 1668 0078 04000000 		.4byte	.LBB36
 1669 007c 08000000 		.4byte	.LBE36
 1670 0080 1E000000 		.4byte	.LBB37
 1671 0084 70000000 		.4byte	.LBE37
 1672 0088 80000000 		.4byte	.LBB38
 1673 008c 86000000 		.4byte	.LBE38
 1674 0090 8A000000 		.4byte	.LBB39
 1675 0094 92000000 		.4byte	.LBE39
 1676 0098 94000000 		.4byte	.LBB40
 1677 009c AC000000 		.4byte	.LBE40
 1678 00a0 00000000 		.4byte	0
 1679 00a4 00000000 		.4byte	0
 1680 00a8 00000000 		.4byte	.LFB119
 1681 00ac F4000000 		.4byte	.LFE119
 1682 00b0 00000000 		.4byte	.LFB120
 1683 00b4 AC000000 		.4byte	.LFE120
 1684 00b8 00000000 		.4byte	0
 1685 00bc 00000000 		.4byte	0
 1686              		.section	.debug_line,"",%progbits
 1687              	.Ldebug_line0:
 1688 0000 AE010000 		.section	.debug_str,"MS",%progbits,1
 1688      02001801 
 1688      00000201 
 1688      FB0E0D00 
 1688      01010101 
 1689              	.LASF38:
 1690 0000 4750494F 		.ascii	"GPIO_TypeDef\000"
 1690      5F547970 
 1690      65446566 
 1690      00
 1691              	.LASF48:
 1692 000d 50434461 		.ascii	"PCData\000"
 1692      746100
 1693              	.LASF59:
 1694 0014 5F70616C 		.ascii	"_pal_lld_setgroupmode\000"
 1694      5F6C6C64 
 1694      5F736574 
 1694      67726F75 
 1694      706D6F64 
 1695              	.LASF20:
 1696 002a 41504231 		.ascii	"APB1RSTR\000"
ARM GAS  /tmp/ccvWM4dU.s 			page 31


 1696      52535452 
 1696      00
 1697              	.LASF58:
 1698 0033 5F70616C 		.ascii	"_pal_lld_init\000"
 1698      5F6C6C64 
 1698      5F696E69 
 1698      7400
 1699              	.LASF45:
 1700 0041 73746D33 		.ascii	"stm32_gpio_setup_t\000"
 1700      325F6770 
 1700      696F5F73 
 1700      65747570 
 1700      5F7400
 1701              	.LASF51:
 1702 0054 50464461 		.ascii	"PFData\000"
 1702      746100
 1703              	.LASF3:
 1704 005b 73686F72 		.ascii	"short int\000"
 1704      7420696E 
 1704      7400
 1705              	.LASF68:
 1706 0065 696E6974 		.ascii	"initgpio\000"
 1706      6770696F 
 1706      00
 1707              	.LASF16:
 1708 006e 73697A65 		.ascii	"sizetype\000"
 1708      74797065 
 1708      00
 1709              	.LASF24:
 1710 0077 42444352 		.ascii	"BDCR\000"
 1710      00
 1711              	.LASF56:
 1712 007c 6770696F 		.ascii	"gpiop\000"
 1712      7000
 1713              	.LASF8:
 1714 0082 5F5F7569 		.ascii	"__uint32_t\000"
 1714      6E743332 
 1714      5F7400
 1715              	.LASF5:
 1716 008d 5F5F7569 		.ascii	"__uint16_t\000"
 1716      6E743136 
 1716      5F7400
 1717              	.LASF47:
 1718 0098 50424461 		.ascii	"PBData\000"
 1718      746100
 1719              	.LASF57:
 1720 009f 636F6E66 		.ascii	"config\000"
 1720      696700
 1721              	.LASF54:
 1722 00a6 696F6D6F 		.ascii	"iomode_t\000"
 1722      64655F74 
 1722      00
 1723              	.LASF23:
 1724 00af 41504231 		.ascii	"APB1ENR\000"
 1724      454E5200 
 1725              	.LASF53:
 1726 00b7 696F706F 		.ascii	"ioportmask_t\000"
ARM GAS  /tmp/ccvWM4dU.s 			page 32


 1726      72746D61 
 1726      736B5F74 
 1726      00
 1727              	.LASF31:
 1728 00c4 4F545950 		.ascii	"OTYPER\000"
 1728      455200
 1729              	.LASF46:
 1730 00cb 50414461 		.ascii	"PAData\000"
 1730      746100
 1731              	.LASF25:
 1732 00d2 41484252 		.ascii	"AHBRSTR\000"
 1732      53545200 
 1733              	.LASF10:
 1734 00da 6C6F6E67 		.ascii	"long long int\000"
 1734      206C6F6E 
 1734      6720696E 
 1734      7400
 1735              	.LASF33:
 1736 00e8 50555044 		.ascii	"PUPDR\000"
 1736      5200
 1737              	.LASF41:
 1738 00ee 6F737065 		.ascii	"ospeedr\000"
 1738      65647200 
 1739              	.LASF7:
 1740 00f6 6C6F6E67 		.ascii	"long int\000"
 1740      20696E74 
 1740      00
 1741              	.LASF49:
 1742 00ff 50444461 		.ascii	"PDData\000"
 1742      746100
 1743              	.LASF28:
 1744 0106 5243435F 		.ascii	"RCC_TypeDef\000"
 1744      54797065 
 1744      44656600 
 1745              	.LASF21:
 1746 0112 41484245 		.ascii	"AHBENR\000"
 1746      4E5200
 1747              	.LASF30:
 1748 0119 4D4F4445 		.ascii	"MODER\000"
 1748      5200
 1749              	.LASF19:
 1750 011f 41504232 		.ascii	"APB2RSTR\000"
 1750      52535452 
 1750      00
 1751              	.LASF29:
 1752 0128 636C6561 		.ascii	"clear\000"
 1752      7200
 1753              	.LASF55:
 1754 012e 696F706F 		.ascii	"ioportid_t\000"
 1754      72746964 
 1754      5F7400
 1755              	.LASF2:
 1756 0139 756E7369 		.ascii	"unsigned char\000"
 1756      676E6564 
 1756      20636861 
 1756      7200
 1757              	.LASF22:
ARM GAS  /tmp/ccvWM4dU.s 			page 33


 1758 0147 41504232 		.ascii	"APB2ENR\000"
 1758      454E5200 
 1759              	.LASF1:
 1760 014f 7369676E 		.ascii	"signed char\000"
 1760      65642063 
 1760      68617200 
 1761              	.LASF11:
 1762 015b 6C6F6E67 		.ascii	"long long unsigned int\000"
 1762      206C6F6E 
 1762      6720756E 
 1762      7369676E 
 1762      65642069 
 1763              	.LASF14:
 1764 0172 75696E74 		.ascii	"uint32_t\000"
 1764      33325F74 
 1764      00
 1765              	.LASF65:
 1766 017b 474E5520 		.ascii	"GNU C 4.9.3 20141119 (release) [ARM/embedded-4_9-br"
 1766      4320342E 
 1766      392E3320 
 1766      32303134 
 1766      31313139 
 1767 01ae 616E6368 		.ascii	"anch revision 218278] -mcpu=cortex-m4 -mno-thumb-in"
 1767      20726576 
 1767      6973696F 
 1767      6E203231 
 1767      38323738 
 1768 01e1 74657277 		.ascii	"terwork -mthumb -ggdb -O2 -fomit-frame-pointer -fal"
 1768      6F726B20 
 1768      2D6D7468 
 1768      756D6220 
 1768      2D676764 
 1769 0214 69676E2D 		.ascii	"ign-functions=16 -ffunction-sections -fdata-section"
 1769      66756E63 
 1769      74696F6E 
 1769      733D3136 
 1769      202D6666 
 1770 0247 73202D66 		.ascii	"s -fno-common\000"
 1770      6E6F2D63 
 1770      6F6D6D6F 
 1770      6E00
 1771              	.LASF40:
 1772 0255 6F747970 		.ascii	"otyper\000"
 1772      657200
 1773              	.LASF26:
 1774 025c 43464752 		.ascii	"CFGR2\000"
 1774      3200
 1775              	.LASF27:
 1776 0262 43464752 		.ascii	"CFGR3\000"
 1776      3300
 1777              	.LASF37:
 1778 0268 41465248 		.ascii	"AFRH\000"
 1778      00
 1779              	.LASF36:
 1780 026d 4146524C 		.ascii	"AFRL\000"
 1780      00
 1781              	.LASF4:
ARM GAS  /tmp/ccvWM4dU.s 			page 34


 1782 0272 73686F72 		.ascii	"short unsigned int\000"
 1782      7420756E 
 1782      7369676E 
 1782      65642069 
 1782      6E7400
 1783              	.LASF17:
 1784 0285 63686172 		.ascii	"char\000"
 1784      00
 1785              	.LASF12:
 1786 028a 75696E74 		.ascii	"uint16_t\000"
 1786      31365F74 
 1786      00
 1787              	.LASF13:
 1788 0293 696E7433 		.ascii	"int32_t\000"
 1788      325F7400 
 1789              	.LASF6:
 1790 029b 5F5F696E 		.ascii	"__int32_t\000"
 1790      7433325F 
 1790      7400
 1791              	.LASF52:
 1792 02a5 50414C43 		.ascii	"PALConfig\000"
 1792      6F6E6669 
 1792      6700
 1793              	.LASF15:
 1794 02af 5F426F6F 		.ascii	"_Bool\000"
 1794      6C00
 1795              	.LASF62:
 1796 02b5 6D6F6465 		.ascii	"mode\000"
 1796      00
 1797              	.LASF60:
 1798 02ba 706F7274 		.ascii	"port\000"
 1798      00
 1799              	.LASF50:
 1800 02bf 50454461 		.ascii	"PEData\000"
 1800      746100
 1801              	.LASF63:
 1802 02c6 616C7472 		.ascii	"altr\000"
 1802      00
 1803              	.LASF32:
 1804 02cb 4F535045 		.ascii	"OSPEEDR\000"
 1804      45445200 
 1805              	.LASF9:
 1806 02d3 6C6F6E67 		.ascii	"long unsigned int\000"
 1806      20756E73 
 1806      69676E65 
 1806      6420696E 
 1806      7400
 1807              	.LASF67:
 1808 02e5 2F686F6D 		.ascii	"/home/austin/git/personal/school/motor_control/chib"
 1808      652F6175 
 1808      7374696E 
 1808      2F676974 
 1808      2F706572 
 1809 0318 696F732F 		.ascii	"ios/demos/ARMCM4-STM32F303-DISCOVERY\000"
 1809      64656D6F 
 1809      732F4152 
 1809      4D434D34 
ARM GAS  /tmp/ccvWM4dU.s 			page 35


 1809      2D53544D 
 1810              	.LASF61:
 1811 033d 6D61736B 		.ascii	"mask\000"
 1811      00
 1812              	.LASF42:
 1813 0342 70757064 		.ascii	"pupdr\000"
 1813      7200
 1814              	.LASF44:
 1815 0348 61667268 		.ascii	"afrh\000"
 1815      00
 1816              	.LASF43:
 1817 034d 6166726C 		.ascii	"afrl\000"
 1817      00
 1818              	.LASF39:
 1819 0352 6D6F6465 		.ascii	"moder\000"
 1819      7200
 1820              	.LASF69:
 1821 0358 49544D5F 		.ascii	"ITM_RxBuffer\000"
 1821      52784275 
 1821      66666572 
 1821      00
 1822              	.LASF64:
 1823 0365 616C7472 		.ascii	"altrmask\000"
 1823      6D61736B 
 1823      00
 1824              	.LASF0:
 1825 036e 756E7369 		.ascii	"unsigned int\000"
 1825      676E6564 
 1825      20696E74 
 1825      00
 1826              	.LASF18:
 1827 037b 43464752 		.ascii	"CFGR\000"
 1827      00
 1828              	.LASF35:
 1829 0380 4C434B52 		.ascii	"LCKR\000"
 1829      00
 1830              	.LASF66:
 1831 0385 2E2E2F2E 		.ascii	"../../os/hal/platforms/STM32/GPIOv2/pal_lld.c\000"
 1831      2E2F6F73 
 1831      2F68616C 
 1831      2F706C61 
 1831      74666F72 
 1832              	.LASF34:
 1833 03b3 42535252 		.ascii	"BSRR\000"
 1833      00
 1834              		.ident	"GCC: (GNU Tools for ARM Embedded Processors) 4.9.3 20141119 (release) [ARM/embedded-4_9-br
ARM GAS  /tmp/ccvWM4dU.s 			page 36


DEFINED SYMBOLS
                            *ABS*:0000000000000000 pal_lld.c
     /tmp/ccvWM4dU.s:19     .text._pal_lld_init:0000000000000000 $t
     /tmp/ccvWM4dU.s:25     .text._pal_lld_init:0000000000000000 _pal_lld_init
     /tmp/ccvWM4dU.s:242    .text._pal_lld_init:00000000000000dc $d
     /tmp/ccvWM4dU.s:252    .text._pal_lld_setgroupmode:0000000000000000 $t
     /tmp/ccvWM4dU.s:258    .text._pal_lld_setgroupmode:0000000000000000 _pal_lld_setgroupmode
                     .debug_frame:0000000000000010 $d
     /tmp/ccvWM4dU.s:251    .text._pal_lld_init:00000000000000f4 $t

NO UNDEFINED SYMBOLS
