ARM GAS  /tmp/ccxqjOgZ.s 			page 1


   1              		.syntax unified
   2              		.cpu cortex-m4
   3              		.fpu softvfp
   4              		.eabi_attribute 20, 1
   5              		.eabi_attribute 21, 1
   6              		.eabi_attribute 23, 3
   7              		.eabi_attribute 24, 1
   8              		.eabi_attribute 25, 1
   9              		.eabi_attribute 26, 1
  10              		.eabi_attribute 30, 2
  11              		.eabi_attribute 34, 1
  12              		.eabi_attribute 18, 4
  13              		.thumb
  14              		.file	"serial_lld.c"
  15              		.text
  16              	.Ltext0:
  17              		.cfi_sections	.debug_frame
  18              		.section	.text.notify1,"ax",%progbits
  19              		.align	2
  20              		.p2align 4,,15
  21              		.thumb
  22              		.thumb_func
  23              		.type	notify1, %function
  24              	notify1:
  25              	.LFB122:
  26              		.file 1 "../../os/hal/platforms/STM32/USARTv2/serial_lld.c"
  27              		.loc 1 199 0
  28              		.cfi_startproc
  29              		@ args = 0, pretend = 0, frame = 0
  30              		@ frame_needed = 0, uses_anonymous_args = 0
  31              		@ link register save eliminated.
  32              	.LVL0:
  33              		.loc 1 202 0
  34 0000 024A     		ldr	r2, .L2
  35 0002 1368     		ldr	r3, [r2]
  36 0004 43F08003 		orr	r3, r3, #128
  37 0008 1360     		str	r3, [r2]
  38 000a 7047     		bx	lr
  39              	.L3:
  40              		.align	2
  41              	.L2:
  42 000c 00380140 		.word	1073821696
  43              		.cfi_endproc
  44              	.LFE122:
  45              		.size	notify1, .-notify1
  46              		.section	.text.VectorD4,"ax",%progbits
  47              		.align	2
  48              		.p2align 4,,15
  49              		.global	VectorD4
  50              		.thumb
  51              		.thumb_func
  52              		.type	VectorD4, %function
  53              	VectorD4:
  54              	.LFB123:
  55              		.loc 1 259 0
  56              		.cfi_startproc
  57              		@ args = 0, pretend = 0, frame = 0
ARM GAS  /tmp/ccxqjOgZ.s 			page 2


  58              		@ frame_needed = 0, uses_anonymous_args = 0
  59              	.LVL1:
  60 0000 F8B5     		push	{r3, r4, r5, r6, r7, lr}
  61              		.cfi_def_cfa_offset 24
  62              		.cfi_offset 3, -24
  63              		.cfi_offset 4, -20
  64              		.cfi_offset 5, -16
  65              		.cfi_offset 6, -12
  66              		.cfi_offset 7, -8
  67              		.cfi_offset 14, -4
  68              	.LBB32:
  69              	.LBB33:
  70              		.loc 1 148 0
  71 0002 3B4F     		ldr	r7, .L54
  72 0004 7D6F     		ldr	r5, [r7, #116]
  73              	.LVL2:
  74              		.loc 1 149 0
  75 0006 2E68     		ldr	r6, [r5]
  76              	.LVL3:
  77              		.loc 1 153 0
  78 0008 EC69     		ldr	r4, [r5, #28]
  79              	.LVL4:
  80              		.loc 1 154 0
  81 000a 2C62     		str	r4, [r5, #32]
  82              		.loc 1 157 0
  83 000c 2207     		lsls	r2, r4, #28
  84 000e 33D1     		bne	.L48
  85              	.L5:
  86              		.loc 1 161 0
  87 0010 E305     		lsls	r3, r4, #23
  88 0012 25D4     		bmi	.L49
  89              	.L10:
  90              		.loc 1 168 0
  91 0014 A006     		lsls	r0, r4, #26
  92 0016 17D4     		bmi	.L50
  93              	.L11:
  94              		.loc 1 175 0
  95 0018 3106     		lsls	r1, r6, #24
  96 001a 01D5     		bpl	.L12
  97 001c 2206     		lsls	r2, r4, #24
  98 001e 46D4     		bmi	.L51
  99              	.L12:
 100              		.loc 1 189 0
 101 0020 6306     		lsls	r3, r4, #25
 102 0022 0DD5     		bpl	.L15
 103              	.LBB34:
 104              		.loc 1 190 0
 105 0024 2023     		movs	r3, #32
 106              	@ 190 "../../os/hal/platforms/STM32/USARTv2/serial_lld.c" 1
 107 0026 83F31188 		msr     BASEPRI, r3
 108              	@ 0 "" 2
 109              		.thumb
 110              	.LBE34:
 111              		.loc 1 191 0
 112 002a 7A6C     		ldr	r2, [r7, #68]
 113 002c BB6C     		ldr	r3, [r7, #72]
 114 002e 3048     		ldr	r0, .L54
ARM GAS  /tmp/ccxqjOgZ.s 			page 3


 115 0030 9A42     		cmp	r2, r3
 116 0032 4AD0     		beq	.L52
 117              	.L16:
 118              		.loc 1 193 0
 119 0034 26F04006 		bic	r6, r6, #64
 120              	.LVL5:
 121 0038 2E60     		str	r6, [r5]
 122              	.LBB35:
 123              		.loc 1 194 0
 124 003a 0023     		movs	r3, #0
 125              	@ 194 "../../os/hal/platforms/STM32/USARTv2/serial_lld.c" 1
 126 003c 83F31188 		msr     BASEPRI, r3
 127              	@ 0 "" 2
 128              		.thumb
 129              	.L15:
 130              	.LBE35:
 131              	.LBE33:
 132              	.LBE32:
 133              		.loc 1 266 0
 134 0040 BDE8F840 		pop	{r3, r4, r5, r6, r7, lr}
 135              		.cfi_remember_state
 136              		.cfi_restore 14
 137              		.cfi_restore 7
 138              		.cfi_restore 6
 139              		.cfi_restore 5
 140              		.cfi_restore 4
 141              		.cfi_restore 3
 142              		.cfi_def_cfa_offset 0
 143              	.LVL6:
 144              		.loc 1 265 0
 145 0044 FFF7FEBF 		b	_port_irq_epilogue
 146              	.LVL7:
 147              	.L50:
 148              		.cfi_restore_state
 149              	.LBB49:
 150              	.LBB48:
 151              	.LBB36:
 152              		.loc 1 169 0
 153 0048 2023     		movs	r3, #32
 154              	@ 169 "../../os/hal/platforms/STM32/USARTv2/serial_lld.c" 1
 155 004a 83F31188 		msr     BASEPRI, r3
 156              	@ 0 "" 2
 157              		.thumb
 158              	.LBE36:
 159              		.loc 1 170 0
 160 004e A98C     		ldrh	r1, [r5, #36]
 161 0050 2748     		ldr	r0, .L54
 162 0052 C9B2     		uxtb	r1, r1
 163 0054 FFF7FEFF 		bl	sdIncomingDataI
 164              	.LVL8:
 165              	.LBB37:
 166              		.loc 1 171 0
 167 0058 0023     		movs	r3, #0
 168              	@ 171 "../../os/hal/platforms/STM32/USARTv2/serial_lld.c" 1
 169 005a 83F31188 		msr     BASEPRI, r3
 170              	@ 0 "" 2
 171              		.thumb
ARM GAS  /tmp/ccxqjOgZ.s 			page 4


 172 005e DBE7     		b	.L11
 173              	.L49:
 174              	.LBE37:
 175              	.LBB38:
 176              		.loc 1 162 0
 177 0060 2023     		movs	r3, #32
 178              	@ 162 "../../os/hal/platforms/STM32/USARTv2/serial_lld.c" 1
 179 0062 83F31188 		msr     BASEPRI, r3
 180              	@ 0 "" 2
 181              		.thumb
 182              	.LBE38:
 183              		.loc 1 163 0
 184 0066 2348     		ldr	r0, .L54+4
 185 0068 4FF40071 		mov	r1, #512
 186 006c FFF7FEFF 		bl	chEvtBroadcastFlagsI
 187              	.LVL9:
 188              	.LBB39:
 189              		.loc 1 164 0
 190 0070 0023     		movs	r3, #0
 191              	@ 164 "../../os/hal/platforms/STM32/USARTv2/serial_lld.c" 1
 192 0072 83F31188 		msr     BASEPRI, r3
 193              	@ 0 "" 2
 194              		.thumb
 195 0076 CDE7     		b	.L10
 196              	.L48:
 197              	.LVL10:
 198              	.LBE39:
 199              	.LBB40:
 200              	.LBB41:
 201              		.loc 1 130 0
 202 0078 14F0080F 		tst	r4, #8
 203 007c 0CBF     		ite	eq
 204 007e 0021     		moveq	r1, #0
 205 0080 8021     		movne	r1, #128
 206              	.LVL11:
 207              		.loc 1 131 0
 208 0082 E307     		lsls	r3, r4, #31
 209              		.loc 1 132 0
 210 0084 48BF     		it	mi
 211 0086 41F02001 		orrmi	r1, r1, #32
 212              	.LVL12:
 213              		.loc 1 133 0
 214 008a A007     		lsls	r0, r4, #30
 215              		.loc 1 134 0
 216 008c 48BF     		it	mi
 217 008e 41F04001 		orrmi	r1, r1, #64
 218              	.LVL13:
 219              		.loc 1 135 0
 220 0092 6207     		lsls	r2, r4, #29
 221              		.loc 1 136 0
 222 0094 48BF     		it	mi
 223 0096 41F48071 		orrmi	r1, r1, #256
 224              	.LVL14:
 225              	.LBB42:
 226              		.loc 1 137 0
 227 009a 2023     		movs	r3, #32
 228              	@ 137 "../../os/hal/platforms/STM32/USARTv2/serial_lld.c" 1
ARM GAS  /tmp/ccxqjOgZ.s 			page 5


 229 009c 83F31188 		msr     BASEPRI, r3
 230              	@ 0 "" 2
 231              		.thumb
 232              	.LBE42:
 233              		.loc 1 138 0
 234 00a0 1448     		ldr	r0, .L54+4
 235 00a2 FFF7FEFF 		bl	chEvtBroadcastFlagsI
 236              	.LVL15:
 237              	.LBB43:
 238              		.loc 1 139 0
 239 00a6 0023     		movs	r3, #0
 240              	@ 139 "../../os/hal/platforms/STM32/USARTv2/serial_lld.c" 1
 241 00a8 83F31188 		msr     BASEPRI, r3
 242              	@ 0 "" 2
 243              		.thumb
 244 00ac B0E7     		b	.L5
 245              	.LVL16:
 246              	.L51:
 247              	.LBE43:
 248              	.LBE41:
 249              	.LBE40:
 250              	.LBB44:
 251              	.LBB45:
 252              		.loc 1 177 0
 253 00ae 2023     		movs	r3, #32
 254              	@ 177 "../../os/hal/platforms/STM32/USARTv2/serial_lld.c" 1
 255 00b0 83F31188 		msr     BASEPRI, r3
 256              	@ 0 "" 2
 257              		.thumb
 258              	.LBE45:
 259              		.loc 1 178 0
 260 00b4 1048     		ldr	r0, .L54+8
 261 00b6 FFF7FEFF 		bl	chOQGetI
 262              	.LVL17:
 263              		.loc 1 179 0
 264 00ba 0028     		cmp	r0, #0
 265 00bc 0DDB     		blt	.L53
 266              		.loc 1 184 0
 267 00be 80B2     		uxth	r0, r0
 268              	.LVL18:
 269 00c0 2885     		strh	r0, [r5, #40]	@ movhi
 270              	.L14:
 271              	.LBB46:
 272              		.loc 1 185 0
 273 00c2 0023     		movs	r3, #0
 274              	@ 185 "../../os/hal/platforms/STM32/USARTv2/serial_lld.c" 1
 275 00c4 83F31188 		msr     BASEPRI, r3
 276              	@ 0 "" 2
 277              		.thumb
 278 00c8 AAE7     		b	.L12
 279              	.L52:
 280              	.LBE46:
 281              	.LBE44:
 282              		.loc 1 191 0
 283 00ca 836B     		ldr	r3, [r0, #56]
 284 00cc 002B     		cmp	r3, #0
 285 00ce B1D0     		beq	.L16
ARM GAS  /tmp/ccxqjOgZ.s 			page 6


 286              		.loc 1 192 0
 287 00d0 0430     		adds	r0, r0, #4
 288 00d2 1021     		movs	r1, #16
 289 00d4 FFF7FEFF 		bl	chEvtBroadcastFlagsI
 290              	.LVL19:
 291 00d8 ACE7     		b	.L16
 292              	.LVL20:
 293              	.L53:
 294              	.LBB47:
 295              		.loc 1 180 0
 296 00da 0648     		ldr	r0, .L54+4
 297              	.LVL21:
 298 00dc 0821     		movs	r1, #8
 299 00de FFF7FEFF 		bl	chEvtBroadcastFlagsI
 300              	.LVL22:
 301              		.loc 1 181 0
 302 00e2 26F0C003 		bic	r3, r6, #192
 303 00e6 43F04003 		orr	r3, r3, #64
 304 00ea 2B60     		str	r3, [r5]
 305 00ec E9E7     		b	.L14
 306              	.L55:
 307 00ee 00BF     		.align	2
 308              	.L54:
 309 00f0 00000000 		.word	.LANCHOR0
 310 00f4 04000000 		.word	.LANCHOR0+4
 311 00f8 30000000 		.word	.LANCHOR0+48
 312              	.LBE47:
 313              	.LBE48:
 314              	.LBE49:
 315              		.cfi_endproc
 316              	.LFE123:
 317              		.size	VectorD4, .-VectorD4
 318 00fc AFF30080 		.section	.text.sd_lld_init,"ax",%progbits
 319              		.align	2
 320              		.p2align 4,,15
 321              		.global	sd_lld_init
 322              		.thumb
 323              		.thumb_func
 324              		.type	sd_lld_init, %function
 325              	sd_lld_init:
 326              	.LFB124:
 327              		.loc 1 373 0
 328              		.cfi_startproc
 329              		@ args = 0, pretend = 0, frame = 0
 330              		@ frame_needed = 0, uses_anonymous_args = 0
 331 0000 10B5     		push	{r4, lr}
 332              		.cfi_def_cfa_offset 8
 333              		.cfi_offset 4, -8
 334              		.cfi_offset 14, -4
 335              		.loc 1 376 0
 336 0002 054C     		ldr	r4, .L58
 337 0004 054A     		ldr	r2, .L58+4
 338 0006 2046     		mov	r0, r4
 339 0008 0021     		movs	r1, #0
 340 000a FFF7FEFF 		bl	sdObjectInit
 341              	.LVL23:
 342              		.loc 1 377 0
ARM GAS  /tmp/ccxqjOgZ.s 			page 7


 343 000e 044A     		ldr	r2, .L58+8
 344              		.loc 1 378 0
 345 0010 044B     		ldr	r3, .L58+12
 346              		.loc 1 377 0
 347 0012 6267     		str	r2, [r4, #116]
 348              		.loc 1 378 0
 349 0014 A367     		str	r3, [r4, #120]
 350 0016 10BD     		pop	{r4, pc}
 351              	.L59:
 352              		.align	2
 353              	.L58:
 354 0018 00000000 		.word	.LANCHOR0
 355 001c 00000000 		.word	notify1
 356 0020 00380140 		.word	1073821696
 357 0024 00512502 		.word	36000000
 358              		.cfi_endproc
 359              	.LFE124:
 360              		.size	sd_lld_init, .-sd_lld_init
 361 0028 AFF30080 		.section	.text.sd_lld_start,"ax",%progbits
 361      AFF30080 
 362              		.align	2
 363              		.p2align 4,,15
 364              		.global	sd_lld_start
 365              		.thumb
 366              		.thumb_func
 367              		.type	sd_lld_start, %function
 368              	sd_lld_start:
 369              	.LFB125:
 370              		.loc 1 422 0
 371              		.cfi_startproc
 372              		@ args = 0, pretend = 0, frame = 0
 373              		@ frame_needed = 0, uses_anonymous_args = 0
 374              	.LVL24:
 375 0000 70B5     		push	{r4, r5, r6, lr}
 376              		.cfi_def_cfa_offset 16
 377              		.cfi_offset 4, -16
 378              		.cfi_offset 5, -12
 379              		.cfi_offset 6, -8
 380              		.cfi_offset 14, -4
 381              		.loc 1 427 0
 382 0002 037A     		ldrb	r3, [r0, #8]	@ zero_extendqisi2
 383              		.loc 1 425 0
 384 0004 164C     		ldr	r4, .L65
 385 0006 0029     		cmp	r1, #0
 386 0008 18BF     		it	ne
 387 000a 0C46     		movne	r4, r1
 388              	.LVL25:
 389              		.loc 1 427 0
 390 000c 012B     		cmp	r3, #1
 391              		.loc 1 422 0
 392 000e 0646     		mov	r6, r0
 393              		.loc 1 427 0
 394 0010 18D0     		beq	.L64
 395              	.LVL26:
 396              	.L62:
 397              	.LBB50:
 398              	.LBB51:
ARM GAS  /tmp/ccxqjOgZ.s 			page 8


 399              		.loc 1 102 0
 400 0012 6268     		ldr	r2, [r4, #4]
 401              		.loc 1 99 0
 402 0014 A568     		ldr	r5, [r4, #8]
 403              		.loc 1 100 0
 404 0016 E068     		ldr	r0, [r4, #12]
 405 0018 736F     		ldr	r3, [r6, #116]
 406              	.LVL27:
 407              		.loc 1 96 0
 408 001a 2468     		ldr	r4, [r4]
 409              	.LVL28:
 410 001c B16F     		ldr	r1, [r6, #120]
 411 001e B1FBF4F1 		udiv	r1, r1, r4
 412              		.loc 1 102 0
 413 0022 42F49672 		orr	r2, r2, #300
 414              		.loc 1 99 0
 415 0026 45F04004 		orr	r4, r5, #64
 416              		.loc 1 96 0
 417 002a 89B2     		uxth	r1, r1
 418              		.loc 1 100 0
 419 002c 40F00100 		orr	r0, r0, #1
 420              		.loc 1 102 0
 421 0030 42F00102 		orr	r2, r2, #1
 422              		.loc 1 104 0
 423 0034 4FF0FF35 		mov	r5, #-1
 424              		.loc 1 96 0
 425 0038 9981     		strh	r1, [r3, #12]	@ movhi
 426              		.loc 1 99 0
 427 003a 5C60     		str	r4, [r3, #4]
 428              		.loc 1 100 0
 429 003c 9860     		str	r0, [r3, #8]
 430              		.loc 1 101 0
 431 003e 1A60     		str	r2, [r3]
 432              		.loc 1 104 0
 433 0040 1D62     		str	r5, [r3, #32]
 434 0042 70BD     		pop	{r4, r5, r6, pc}
 435              	.LVL29:
 436              	.L64:
 437              	.LBE51:
 438              	.LBE50:
 439              		.loc 1 429 0
 440 0044 074B     		ldr	r3, .L65+4
 441 0046 9842     		cmp	r0, r3
 442 0048 E3D1     		bne	.L62
 443              		.loc 1 430 0
 444 004a 074A     		ldr	r2, .L65+8
 445 004c 9369     		ldr	r3, [r2, #24]
 446 004e 43F48043 		orr	r3, r3, #16384
 447 0052 9361     		str	r3, [r2, #24]
 448              		.loc 1 431 0
 449 0054 2520     		movs	r0, #37
 450              	.LVL30:
 451 0056 C021     		movs	r1, #192
 452 0058 FFF7FEFF 		bl	nvicEnableVector
 453              	.LVL31:
 454 005c D9E7     		b	.L62
 455              	.L66:
ARM GAS  /tmp/ccxqjOgZ.s 			page 9


 456 005e 00BF     		.align	2
 457              	.L65:
 458 0060 00000000 		.word	.LANCHOR1
 459 0064 00000000 		.word	.LANCHOR0
 460 0068 00100240 		.word	1073876992
 461              		.cfi_endproc
 462              	.LFE125:
 463              		.size	sd_lld_start, .-sd_lld_start
 464 006c AFF30080 		.section	.text.sd_lld_stop,"ax",%progbits
 465              		.align	2
 466              		.p2align 4,,15
 467              		.global	sd_lld_stop
 468              		.thumb
 469              		.thumb_func
 470              		.type	sd_lld_stop, %function
 471              	sd_lld_stop:
 472              	.LFB126:
 473              		.loc 1 483 0
 474              		.cfi_startproc
 475              		@ args = 0, pretend = 0, frame = 0
 476              		@ frame_needed = 0, uses_anonymous_args = 0
 477              		@ link register save eliminated.
 478              	.LVL32:
 479              		.loc 1 485 0
 480 0000 037A     		ldrb	r3, [r0, #8]	@ zero_extendqisi2
 481 0002 022B     		cmp	r3, #2
 482 0004 00D0     		beq	.L71
 483              	.L67:
 484 0006 7047     		bx	lr
 485              	.L71:
 486              		.loc 1 488 0
 487 0008 0949     		ldr	r1, .L72
 488              		.loc 1 486 0
 489 000a 436F     		ldr	r3, [r0, #116]
 490              	.LVL33:
 491              	.LBB52:
 492              	.LBB53:
 493              		.loc 1 115 0
 494 000c 0022     		movs	r2, #0
 495              	.LBE53:
 496              	.LBE52:
 497              		.loc 1 488 0
 498 000e 8842     		cmp	r0, r1
 499              	.LBB55:
 500              	.LBB54:
 501              		.loc 1 115 0
 502 0010 1A60     		str	r2, [r3]
 503              		.loc 1 116 0
 504 0012 5A60     		str	r2, [r3, #4]
 505              		.loc 1 117 0
 506 0014 9A60     		str	r2, [r3, #8]
 507              	.LBE54:
 508              	.LBE55:
 509              		.loc 1 488 0
 510 0016 F6D1     		bne	.L67
 511              		.loc 1 489 0
 512 0018 02F18042 		add	r2, r2, #1073741824
ARM GAS  /tmp/ccxqjOgZ.s 			page 10


 513 001c 02F50432 		add	r2, r2, #135168
 514              		.loc 1 490 0
 515 0020 2520     		movs	r0, #37
 516              	.LVL34:
 517              		.loc 1 489 0
 518 0022 9369     		ldr	r3, [r2, #24]
 519              	.LVL35:
 520 0024 23F48043 		bic	r3, r3, #16384
 521 0028 9361     		str	r3, [r2, #24]
 522              		.loc 1 490 0
 523 002a FFF7FEBF 		b	nvicDisableVector
 524              	.LVL36:
 525              	.L73:
 526 002e 00BF     		.align	2
 527              	.L72:
 528 0030 00000000 		.word	.LANCHOR0
 529              		.cfi_endproc
 530              	.LFE126:
 531              		.size	sd_lld_stop, .-sd_lld_stop
 532              		.global	SD1
 533 0034 AFF30080 		.section	.rodata.default_config,"a",%progbits
 533      AFF30080 
 533      AFF30080 
 534              		.align	2
 535              		.set	.LANCHOR1,. + 0
 536              		.type	default_config, %object
 537              		.size	default_config, 16
 538              	default_config:
 539 0000 00960000 		.word	38400
 540 0004 00000000 		.word	0
 541 0008 00400000 		.word	16384
 542 000c 00000000 		.word	0
 543              		.section	.bss.SD1,"aw",%nobits
 544              		.align	2
 545              		.set	.LANCHOR0,. + 0
 546              		.type	SD1, %object
 547              		.size	SD1, 124
 548              	SD1:
 549 0000 00000000 		.space	124
 549      00000000 
 549      00000000 
 549      00000000 
 549      00000000 
 550              		.text
 551              	.Letext0:
 552              		.file 2 "/usr/lib/gcc/arm-none-eabi/4.9.3/include/stddef.h"
 553              		.file 3 "/usr/arm-none-eabi/include/machine/_default_types.h"
 554              		.file 4 "/usr/arm-none-eabi/include/stdint.h"
 555              		.file 5 "../../os/ports/GCC/ARMCMx/chtypes.h"
 556              		.file 6 "../../os/kernel/include/chlists.h"
 557              		.file 7 "../../os/kernel/include/chthreads.h"
 558              		.file 8 "../../os/ports/GCC/ARMCMx/chcore_v7m.h"
 559              		.file 9 "../../os/kernel/include/chmtx.h"
 560              		.file 10 "../../os/kernel/include/chevents.h"
 561              		.file 11 "../../os/kernel/include/chqueues.h"
 562              		.file 12 "../../os/hal/platforms/STM32F30x/stm32f30x.h"
 563              		.file 13 "../../os/hal/include/serial.h"
ARM GAS  /tmp/ccxqjOgZ.s 			page 11


 564              		.file 14 "../../os/hal/platforms/STM32/USARTv2/serial_lld.h"
 565              		.file 15 "../../os/ports/common/ARMCMx/nvic.h"
 566              		.file 16 "../../os/ports/common/ARMCMx/CMSIS/include/core_cm4.h"