ARM GAS  /tmp/cchEpFKO.s 			page 1


   1              		.syntax unified
   2              		.cpu cortex-m4
   3              		.fpu softvfp
   4              		.eabi_attribute 20, 1
   5              		.eabi_attribute 21, 1
   6              		.eabi_attribute 23, 3
   7              		.eabi_attribute 24, 1
   8              		.eabi_attribute 25, 1
   9              		.eabi_attribute 26, 1
  10              		.eabi_attribute 30, 2
  11              		.eabi_attribute 34, 1
  12              		.eabi_attribute 18, 4
  13              		.thumb
  14              		.file	"serial.c"
  15              		.text
  16              	.Ltext0:
  17              		.cfi_sections	.debug_frame
  18              		.section	.text.readt,"ax",%progbits
  19              		.align	2
  20              		.p2align 4,,15
  21              		.thumb
  22              		.thumb_func
  23              		.type	readt, %function
  24              	readt:
  25              	.LFB125:
  26              		.file 1 "../../os/hal/src/serial.c"
  27              		.loc 1 99 0
  28              		.cfi_startproc
  29              		@ args = 0, pretend = 0, frame = 0
  30              		@ frame_needed = 0, uses_anonymous_args = 0
  31              		@ link register save eliminated.
  32              	.LVL0:
  33              		.loc 1 101 0
  34 0000 0C30     		adds	r0, r0, #12
  35              	.LVL1:
  36 0002 FFF7FEBF 		b	chIQReadTimeout
  37              	.LVL2:
  38              		.cfi_endproc
  39              	.LFE125:
  40              		.size	readt, .-readt
  41 0006 00BFAFF3 		.section	.text.read,"ax",%progbits
  41      0080AFF3 
  41      0080
  42              		.align	2
  43              		.p2align 4,,15
  44              		.thumb
  45              		.thumb_func
  46              		.type	read, %function
  47              	read:
  48              	.LFB119:
  49              		.loc 1 68 0
  50              		.cfi_startproc
  51              		@ args = 0, pretend = 0, frame = 0
  52              		@ frame_needed = 0, uses_anonymous_args = 0
  53              		@ link register save eliminated.
  54              	.LVL3:
  55              		.loc 1 70 0
ARM GAS  /tmp/cchEpFKO.s 			page 2


  56 0000 0C30     		adds	r0, r0, #12
  57              	.LVL4:
  58 0002 4FF0FF33 		mov	r3, #-1
  59 0006 FFF7FEBF 		b	chIQReadTimeout
  60              	.LVL5:
  61              		.cfi_endproc
  62              	.LFE119:
  63              		.size	read, .-read
  64 000a 00BFAFF3 		.section	.text.writet,"ax",%progbits
  64      0080
  65              		.align	2
  66              		.p2align 4,,15
  67              		.thumb
  68              		.thumb_func
  69              		.type	writet, %function
  70              	writet:
  71              	.LFB124:
  72              		.loc 1 94 0
  73              		.cfi_startproc
  74              		@ args = 0, pretend = 0, frame = 0
  75              		@ frame_needed = 0, uses_anonymous_args = 0
  76              		@ link register save eliminated.
  77              	.LVL6:
  78              		.loc 1 96 0
  79 0000 3030     		adds	r0, r0, #48
  80              	.LVL7:
  81 0002 FFF7FEBF 		b	chOQWriteTimeout
  82              	.LVL8:
  83              		.cfi_endproc
  84              	.LFE124:
  85              		.size	writet, .-writet
  86 0006 00BFAFF3 		.section	.text.write,"ax",%progbits
  86      0080AFF3 
  86      0080
  87              		.align	2
  88              		.p2align 4,,15
  89              		.thumb
  90              		.thumb_func
  91              		.type	write, %function
  92              	write:
  93              	.LFB118:
  94              		.loc 1 62 0
  95              		.cfi_startproc
  96              		@ args = 0, pretend = 0, frame = 0
  97              		@ frame_needed = 0, uses_anonymous_args = 0
  98              		@ link register save eliminated.
  99              	.LVL9:
 100              		.loc 1 64 0
 101 0000 3030     		adds	r0, r0, #48
 102              	.LVL10:
 103 0002 4FF0FF33 		mov	r3, #-1
 104 0006 FFF7FEBF 		b	chOQWriteTimeout
 105              	.LVL11:
 106              		.cfi_endproc
 107              	.LFE118:
 108              		.size	write, .-write
 109 000a 00BFAFF3 		.section	.text.gett,"ax",%progbits
ARM GAS  /tmp/cchEpFKO.s 			page 3


 109      0080
 110              		.align	2
 111              		.p2align 4,,15
 112              		.thumb
 113              		.thumb_func
 114              		.type	gett, %function
 115              	gett:
 116              	.LFB123:
 117              		.loc 1 89 0
 118              		.cfi_startproc
 119              		@ args = 0, pretend = 0, frame = 0
 120              		@ frame_needed = 0, uses_anonymous_args = 0
 121              		@ link register save eliminated.
 122              	.LVL12:
 123              		.loc 1 91 0
 124 0000 0C30     		adds	r0, r0, #12
 125              	.LVL13:
 126 0002 FFF7FEBF 		b	chIQGetTimeout
 127              	.LVL14:
 128              		.cfi_endproc
 129              	.LFE123:
 130              		.size	gett, .-gett
 131 0006 00BFAFF3 		.section	.text.get,"ax",%progbits
 131      0080AFF3 
 131      0080
 132              		.align	2
 133              		.p2align 4,,15
 134              		.thumb
 135              		.thumb_func
 136              		.type	get, %function
 137              	get:
 138              	.LFB121:
 139              		.loc 1 79 0
 140              		.cfi_startproc
 141              		@ args = 0, pretend = 0, frame = 0
 142              		@ frame_needed = 0, uses_anonymous_args = 0
 143              		@ link register save eliminated.
 144              	.LVL15:
 145              		.loc 1 81 0
 146 0000 0C30     		adds	r0, r0, #12
 147              	.LVL16:
 148 0002 4FF0FF31 		mov	r1, #-1
 149 0006 FFF7FEBF 		b	chIQGetTimeout
 150              	.LVL17:
 151              		.cfi_endproc
 152              	.LFE121:
 153              		.size	get, .-get
 154 000a 00BFAFF3 		.section	.text.putt,"ax",%progbits
 154      0080
 155              		.align	2
 156              		.p2align 4,,15
 157              		.thumb
 158              		.thumb_func
 159              		.type	putt, %function
 160              	putt:
 161              	.LFB122:
 162              		.loc 1 84 0
ARM GAS  /tmp/cchEpFKO.s 			page 4


 163              		.cfi_startproc
 164              		@ args = 0, pretend = 0, frame = 0
 165              		@ frame_needed = 0, uses_anonymous_args = 0
 166              		@ link register save eliminated.
 167              	.LVL18:
 168              		.loc 1 86 0
 169 0000 3030     		adds	r0, r0, #48
 170              	.LVL19:
 171 0002 FFF7FEBF 		b	chOQPutTimeout
 172              	.LVL20:
 173              		.cfi_endproc
 174              	.LFE122:
 175              		.size	putt, .-putt
 176 0006 00BFAFF3 		.section	.text.put,"ax",%progbits
 176      0080AFF3 
 176      0080
 177              		.align	2
 178              		.p2align 4,,15
 179              		.thumb
 180              		.thumb_func
 181              		.type	put, %function
 182              	put:
 183              	.LFB120:
 184              		.loc 1 74 0
 185              		.cfi_startproc
 186              		@ args = 0, pretend = 0, frame = 0
 187              		@ frame_needed = 0, uses_anonymous_args = 0
 188              		@ link register save eliminated.
 189              	.LVL21:
 190              		.loc 1 76 0
 191 0000 3030     		adds	r0, r0, #48
 192              	.LVL22:
 193 0002 4FF0FF32 		mov	r2, #-1
 194 0006 FFF7FEBF 		b	chOQPutTimeout
 195              	.LVL23:
 196              		.cfi_endproc
 197              	.LFE120:
 198              		.size	put, .-put
 199 000a 00BFAFF3 		.section	.text.sdInit,"ax",%progbits
 199      0080
 200              		.align	2
 201              		.p2align 4,,15
 202              		.global	sdInit
 203              		.thumb
 204              		.thumb_func
 205              		.type	sdInit, %function
 206              	sdInit:
 207              	.LFB126:
 208              		.loc 1 120 0
 209              		.cfi_startproc
 210              		@ args = 0, pretend = 0, frame = 0
 211              		@ frame_needed = 0, uses_anonymous_args = 0
 212              		@ link register save eliminated.
 213              		.loc 1 122 0
 214 0000 FFF7FEBF 		b	sd_lld_init
 215              	.LVL24:
 216              		.cfi_endproc
ARM GAS  /tmp/cchEpFKO.s 			page 5


 217              	.LFE126:
 218              		.size	sdInit, .-sdInit
 219 0004 AFF30080 		.section	.text.sdObjectInit,"ax",%progbits
 219      AFF30080 
 219      AFF30080 
 220              		.align	2
 221              		.p2align 4,,15
 222              		.global	sdObjectInit
 223              		.thumb
 224              		.thumb_func
 225              		.type	sdObjectInit, %function
 226              	sdObjectInit:
 227              	.LFB127:
 228              		.loc 1 140 0
 229              		.cfi_startproc
 230              		@ args = 0, pretend = 0, frame = 0
 231              		@ frame_needed = 0, uses_anonymous_args = 0
 232              	.LVL25:
 233 0000 70B5     		push	{r4, r5, r6, lr}
 234              		.cfi_def_cfa_offset 16
 235              		.cfi_offset 4, -16
 236              		.cfi_offset 5, -12
 237              		.cfi_offset 6, -8
 238              		.cfi_offset 14, -4
 239              		.loc 1 142 0
 240 0002 0E4B     		ldr	r3, .L12
 241              		.loc 1 140 0
 242 0004 0446     		mov	r4, r0
 243 0006 82B0     		sub	sp, sp, #8
 244              		.cfi_def_cfa_offset 24
 245              		.loc 1 142 0
 246 0008 40F8043B 		str	r3, [r0], #4
 247              	.LVL26:
 248              		.loc 1 144 0
 249 000c 0126     		movs	r6, #1
 250              		.loc 1 145 0
 251 000e 0094     		str	r4, [sp]
 252              		.loc 1 140 0
 253 0010 0B46     		mov	r3, r1
 254 0012 1546     		mov	r5, r2
 255              		.loc 1 143 0
 256 0014 6060     		str	r0, [r4, #4]
 257              		.loc 1 145 0
 258 0016 04F15401 		add	r1, r4, #84
 259              	.LVL27:
 260 001a 04F10C00 		add	r0, r4, #12
 261              		.loc 1 144 0
 262 001e 2672     		strb	r6, [r4, #8]
 263              		.loc 1 145 0
 264 0020 1022     		movs	r2, #16
 265              	.LVL28:
 266 0022 FFF7FEFF 		bl	chIQInit
 267              	.LVL29:
 268              		.loc 1 146 0
 269 0026 0094     		str	r4, [sp]
 270 0028 2B46     		mov	r3, r5
 271 002a 04F13000 		add	r0, r4, #48
ARM GAS  /tmp/cchEpFKO.s 			page 6


 272 002e 04F16401 		add	r1, r4, #100
 273 0032 1022     		movs	r2, #16
 274 0034 FFF7FEFF 		bl	chOQInit
 275              	.LVL30:
 276              		.loc 1 147 0
 277 0038 02B0     		add	sp, sp, #8
 278              		.cfi_def_cfa_offset 16
 279              		@ sp needed
 280 003a 70BD     		pop	{r4, r5, r6, pc}
 281              	.LVL31:
 282              	.L13:
 283              		.align	2
 284              	.L12:
 285 003c 00000000 		.word	.LANCHOR0
 286              		.cfi_endproc
 287              	.LFE127:
 288              		.size	sdObjectInit, .-sdObjectInit
 289              		.section	.text.sdStart,"ax",%progbits
 290              		.align	2
 291              		.p2align 4,,15
 292              		.global	sdStart
 293              		.thumb
 294              		.thumb_func
 295              		.type	sdStart, %function
 296              	sdStart:
 297              	.LFB128:
 298              		.loc 1 159 0
 299              		.cfi_startproc
 300              		@ args = 0, pretend = 0, frame = 0
 301              		@ frame_needed = 0, uses_anonymous_args = 0
 302              	.LVL32:
 303 0000 10B5     		push	{r4, lr}
 304              		.cfi_def_cfa_offset 8
 305              		.cfi_offset 4, -8
 306              		.cfi_offset 14, -4
 307              	.LBB2:
 308              		.loc 1 163 0
 309 0002 2023     		movs	r3, #32
 310              	.LBE2:
 311              		.loc 1 159 0
 312 0004 0446     		mov	r4, r0
 313              	.LBB3:
 314              		.loc 1 163 0
 315              	@ 163 "../../os/hal/src/serial.c" 1
 316 0006 83F31188 		msr     BASEPRI, r3
 317              	@ 0 "" 2
 318              		.thumb
 319              	.LBE3:
 320              		.loc 1 167 0
 321 000a FFF7FEFF 		bl	sd_lld_start
 322              	.LVL33:
 323              		.loc 1 168 0
 324 000e 0223     		movs	r3, #2
 325 0010 2372     		strb	r3, [r4, #8]
 326              	.LBB4:
 327              		.loc 1 169 0
 328 0012 0023     		movs	r3, #0
ARM GAS  /tmp/cchEpFKO.s 			page 7


 329              	@ 169 "../../os/hal/src/serial.c" 1
 330 0014 83F31188 		msr     BASEPRI, r3
 331              	@ 0 "" 2
 332              		.thumb
 333 0018 10BD     		pop	{r4, pc}
 334              	.LBE4:
 335              		.cfi_endproc
 336              	.LFE128:
 337              		.size	sdStart, .-sdStart
 338 001a 00BFAFF3 		.section	.text.sdStop,"ax",%progbits
 338      0080
 339              		.align	2
 340              		.p2align 4,,15
 341              		.global	sdStop
 342              		.thumb
 343              		.thumb_func
 344              		.type	sdStop, %function
 345              	sdStop:
 346              	.LFB129:
 347              		.loc 1 181 0
 348              		.cfi_startproc
 349              		@ args = 0, pretend = 0, frame = 0
 350              		@ frame_needed = 0, uses_anonymous_args = 0
 351              	.LVL34:
 352 0000 10B5     		push	{r4, lr}
 353              		.cfi_def_cfa_offset 8
 354              		.cfi_offset 4, -8
 355              		.cfi_offset 14, -4
 356              	.LBB5:
 357              		.loc 1 185 0
 358 0002 2023     		movs	r3, #32
 359              	.LBE5:
 360              		.loc 1 181 0
 361 0004 0446     		mov	r4, r0
 362              	.LBB6:
 363              		.loc 1 185 0
 364              	@ 185 "../../os/hal/src/serial.c" 1
 365 0006 83F31188 		msr     BASEPRI, r3
 366              	@ 0 "" 2
 367              		.thumb
 368              	.LBE6:
 369              		.loc 1 189 0
 370 000a FFF7FEFF 		bl	sd_lld_stop
 371              	.LVL35:
 372              		.loc 1 190 0
 373 000e 0123     		movs	r3, #1
 374 0010 2372     		strb	r3, [r4, #8]
 375              		.loc 1 191 0
 376 0012 04F13000 		add	r0, r4, #48
 377 0016 FFF7FEFF 		bl	chOQResetI
 378              	.LVL36:
 379              		.loc 1 192 0
 380 001a 04F10C00 		add	r0, r4, #12
 381 001e FFF7FEFF 		bl	chIQResetI
 382              	.LVL37:
 383              		.loc 1 193 0
 384 0022 FFF7FEFF 		bl	chSchRescheduleS
ARM GAS  /tmp/cchEpFKO.s 			page 8


 385              	.LVL38:
 386              	.LBB7:
 387              		.loc 1 194 0
 388 0026 0023     		movs	r3, #0
 389              	@ 194 "../../os/hal/src/serial.c" 1
 390 0028 83F31188 		msr     BASEPRI, r3
 391              	@ 0 "" 2
 392              		.thumb
 393 002c 10BD     		pop	{r4, pc}
 394              	.LBE7:
 395              		.cfi_endproc
 396              	.LFE129:
 397              		.size	sdStop, .-sdStop
 398 002e 00BF     		.section	.text.sdIncomingDataI,"ax",%progbits
 399              		.align	2
 400              		.p2align 4,,15
 401              		.global	sdIncomingDataI
 402              		.thumb
 403              		.thumb_func
 404              		.type	sdIncomingDataI, %function
 405              	sdIncomingDataI:
 406              	.LFB130:
 407              		.loc 1 213 0
 408              		.cfi_startproc
 409              		@ args = 0, pretend = 0, frame = 0
 410              		@ frame_needed = 0, uses_anonymous_args = 0
 411              	.LVL39:
 412 0000 38B5     		push	{r3, r4, r5, lr}
 413              		.cfi_def_cfa_offset 16
 414              		.cfi_offset 3, -16
 415              		.cfi_offset 4, -12
 416              		.cfi_offset 5, -8
 417              		.cfi_offset 14, -4
 418              		.loc 1 218 0
 419 0002 4369     		ldr	r3, [r0, #20]
 420              		.loc 1 213 0
 421 0004 0446     		mov	r4, r0
 422 0006 0D46     		mov	r5, r1
 423              		.loc 1 218 0
 424 0008 3BB1     		cbz	r3, .L23
 425              		.loc 1 220 0
 426 000a 2946     		mov	r1, r5
 427              	.LVL40:
 428 000c 04F10C00 		add	r0, r4, #12
 429              	.LVL41:
 430 0010 FFF7FEFF 		bl	chIQPutI
 431              	.LVL42:
 432 0014 0028     		cmp	r0, #0
 433 0016 0BDB     		blt	.L24
 434              	.L18:
 435 0018 38BD     		pop	{r3, r4, r5, pc}
 436              	.LVL43:
 437              	.L23:
 438              		.loc 1 219 0
 439 001a 0430     		adds	r0, r0, #4
 440              	.LVL44:
 441 001c 0421     		movs	r1, #4
ARM GAS  /tmp/cchEpFKO.s 			page 9


 442              	.LVL45:
 443 001e FFF7FEFF 		bl	chEvtBroadcastFlagsI
 444              	.LVL46:
 445              		.loc 1 220 0
 446 0022 2946     		mov	r1, r5
 447 0024 04F10C00 		add	r0, r4, #12
 448 0028 FFF7FEFF 		bl	chIQPutI
 449              	.LVL47:
 450 002c 0028     		cmp	r0, #0
 451 002e F3DA     		bge	.L18
 452              	.L24:
 453              		.loc 1 221 0
 454 0030 201D     		adds	r0, r4, #4
 455 0032 8021     		movs	r1, #128
 456              		.loc 1 222 0
 457 0034 BDE83840 		pop	{r3, r4, r5, lr}
 458              		.cfi_restore 14
 459              		.cfi_restore 5
 460              		.cfi_restore 4
 461              		.cfi_restore 3
 462              		.cfi_def_cfa_offset 0
 463              	.LVL48:
 464              		.loc 1 221 0
 465 0038 FFF7FEBF 		b	chEvtBroadcastFlagsI
 466              	.LVL49:
 467              		.cfi_endproc
 468              	.LFE130:
 469              		.size	sdIncomingDataI, .-sdIncomingDataI
 470 003c AFF30080 		.section	.text.sdRequestDataI,"ax",%progbits
 471              		.align	2
 472              		.p2align 4,,15
 473              		.global	sdRequestDataI
 474              		.thumb
 475              		.thumb_func
 476              		.type	sdRequestDataI, %function
 477              	sdRequestDataI:
 478              	.LFB131:
 479              		.loc 1 239 0
 480              		.cfi_startproc
 481              		@ args = 0, pretend = 0, frame = 0
 482              		@ frame_needed = 0, uses_anonymous_args = 0
 483              	.LVL50:
 484 0000 38B5     		push	{r3, r4, r5, lr}
 485              		.cfi_def_cfa_offset 16
 486              		.cfi_offset 3, -16
 487              		.cfi_offset 4, -12
 488              		.cfi_offset 5, -8
 489              		.cfi_offset 14, -4
 490              		.loc 1 239 0
 491 0002 0446     		mov	r4, r0
 492              		.loc 1 245 0
 493 0004 3030     		adds	r0, r0, #48
 494              	.LVL51:
 495 0006 FFF7FEFF 		bl	chOQGetI
 496              	.LVL52:
 497              		.loc 1 246 0
 498 000a 051E     		subs	r5, r0, #0
ARM GAS  /tmp/cchEpFKO.s 			page 10


 499 000c 01DB     		blt	.L28
 500              		.loc 1 249 0
 501 000e 2846     		mov	r0, r5
 502 0010 38BD     		pop	{r3, r4, r5, pc}
 503              	.LVL53:
 504              	.L28:
 505              		.loc 1 247 0
 506 0012 201D     		adds	r0, r4, #4
 507              	.LVL54:
 508 0014 0821     		movs	r1, #8
 509 0016 FFF7FEFF 		bl	chEvtBroadcastFlagsI
 510              	.LVL55:
 511              		.loc 1 249 0
 512 001a 2846     		mov	r0, r5
 513 001c 38BD     		pop	{r3, r4, r5, pc}
 514              		.cfi_endproc
 515              	.LFE131:
 516              		.size	sdRequestDataI, .-sdRequestDataI
 517 001e 00BF     		.section	.rodata.vmt,"a",%progbits
 518              		.align	2
 519              		.set	.LANCHOR0,. + 0
 520              		.type	vmt, %object
 521              		.size	vmt, 32
 522              	vmt:
 523 0000 00000000 		.word	write
 524 0004 00000000 		.word	read
 525 0008 00000000 		.word	put
 526 000c 00000000 		.word	get
 527 0010 00000000 		.word	putt
 528 0014 00000000 		.word	gett
 529 0018 00000000 		.word	writet
 530 001c 00000000 		.word	readt
 531              		.text
 532              	.Letext0:
 533              		.file 2 "/usr/lib/gcc/arm-none-eabi/4.9.3/include/stddef.h"
 534              		.file 3 "/usr/arm-none-eabi/include/machine/_default_types.h"
 535              		.file 4 "/usr/arm-none-eabi/include/stdint.h"
 536              		.file 5 "../../os/ports/GCC/ARMCMx/chtypes.h"
 537              		.file 6 "../../os/kernel/include/chlists.h"
 538              		.file 7 "../../os/kernel/include/chthreads.h"
 539              		.file 8 "../../os/ports/GCC/ARMCMx/chcore_v7m.h"
 540              		.file 9 "../../os/kernel/include/chmtx.h"
 541              		.file 10 "../../os/kernel/include/chevents.h"
 542              		.file 11 "../../os/kernel/include/chqueues.h"
 543              		.file 12 "../../os/hal/platforms/STM32F30x/stm32f30x.h"
 544              		.file 13 "../../os/hal/include/serial.h"
 545              		.file 14 "../../os/hal/platforms/STM32/USARTv2/serial_lld.h"
 546              		.file 15 "../../os/kernel/include/chschd.h"
 547              		.file 16 "../../os/ports/common/ARMCMx/CMSIS/include/core_cm4.h"