ARM GAS  /tmp/ccxqjOgZ.s 			page 1


   1              		.syntax unified
   2              		.cpu cortex-m4
   3              		.fpu softvfp
   4              		.eabi_attribute 20, 1
   5              		.eabi_attribute 21, 1
   6              		.eabi_attribute 23, 3
   7              		.eabi_attribute 24, 1
   8              		.eabi_attribute 25, 1
   9              		.eabi_attribute 26, 1
  10              		.eabi_attribute 30, 2
  11              		.eabi_attribute 34, 1
  12              		.eabi_attribute 18, 4
  13              		.thumb
  14              		.file	"serial_lld.c"
  15              		.text
  16              	.Ltext0:
  17              		.cfi_sections	.debug_frame
  18              		.section	.text.notify1,"ax",%progbits
  19              		.align	2
  20              		.p2align 4,,15
  21              		.thumb
  22              		.thumb_func
  23              		.type	notify1, %function
  24              	notify1:
  25              	.LFB122:
  26              		.file 1 "../../os/hal/platforms/STM32/USARTv2/serial_lld.c"
  27              		.loc 1 199 0
  28              		.cfi_startproc
  29              		@ args = 0, pretend = 0, frame = 0
  30              		@ frame_needed = 0, uses_anonymous_args = 0
  31              		@ link register save eliminated.
  32              	.LVL0:
  33              		.loc 1 202 0
  34 0000 024A     		ldr	r2, .L2
  35 0002 1368     		ldr	r3, [r2]
  36 0004 43F08003 		orr	r3, r3, #128
  37 0008 1360     		str	r3, [r2]
  38 000a 7047     		bx	lr
  39              	.L3:
  40              		.align	2
  41              	.L2:
  42 000c 00380140 		.word	1073821696
  43              		.cfi_endproc
  44              	.LFE122:
  45              		.size	notify1, .-notify1
  46              		.section	.text.VectorD4,"ax",%progbits
  47              		.align	2
  48              		.p2align 4,,15
  49              		.global	VectorD4
  50              		.thumb
  51              		.thumb_func
  52              		.type	VectorD4, %function
  53              	VectorD4:
  54              	.LFB123:
  55              		.loc 1 259 0
  56              		.cfi_startproc
  57              		@ args = 0, pretend = 0, frame = 0
ARM GAS  /tmp/ccxqjOgZ.s 			page 2


  58              		@ frame_needed = 0, uses_anonymous_args = 0
  59              	.LVL1:
  60 0000 F8B5     		push	{r3, r4, r5, r6, r7, lr}
  61              		.cfi_def_cfa_offset 24
  62              		.cfi_offset 3, -24
  63              		.cfi_offset 4, -20
  64              		.cfi_offset 5, -16
  65              		.cfi_offset 6, -12
  66              		.cfi_offset 7, -8
  67              		.cfi_offset 14, -4
  68              	.LBB32:
  69              	.LBB33:
  70              		.loc 1 148 0
  71 0002 3B4F     		ldr	r7, .L54
  72 0004 7D6F     		ldr	r5, [r7, #116]
  73              	.LVL2:
  74              		.loc 1 149 0
  75 0006 2E68     		ldr	r6, [r5]
  76              	.LVL3:
  77              		.loc 1 153 0
  78 0008 EC69     		ldr	r4, [r5, #28]
  79              	.LVL4:
  80              		.loc 1 154 0
  81 000a 2C62     		str	r4, [r5, #32]
  82              		.loc 1 157 0
  83 000c 2207     		lsls	r2, r4, #28
  84 000e 33D1     		bne	.L48
  85              	.L5:
  86              		.loc 1 161 0
  87 0010 E305     		lsls	r3, r4, #23
  88 0012 25D4     		bmi	.L49
  89              	.L10:
  90              		.loc 1 168 0
  91 0014 A006     		lsls	r0, r4, #26
  92 0016 17D4     		bmi	.L50
  93              	.L11:
  94              		.loc 1 175 0
  95 0018 3106     		lsls	r1, r6, #24
  96 001a 01D5     		bpl	.L12
  97 001c 2206     		lsls	r2, r4, #24
  98 001e 46D4     		bmi	.L51
  99              	.L12:
 100              		.loc 1 189 0
 101 0020 6306     		lsls	r3, r4, #25
 102 0022 0DD5     		bpl	.L15
 103              	.LBB34:
 104              		.loc 1 190 0
 105 0024 2023     		movs	r3, #32
 106              	@ 190 "../../os/hal/platforms/STM32/USARTv2/serial_lld.c" 1
 107 0026 83F31188 		msr     BASEPRI, r3
 108              	@ 0 "" 2
 109              		.thumb
 110              	.LBE34:
 111              		.loc 1 191 0
 112 002a 7A6C     		ldr	r2, [r7, #68]
 113 002c BB6C     		ldr	r3, [r7, #72]
 114 002e 3048     		ldr	r0, .L54
ARM GAS  /tmp/ccxqjOgZ.s 			page 3


 115 0030 9A42     		cmp	r2, r3
 116 0032 4AD0     		beq	.L52
 117              	.L16:
 118              		.loc 1 193 0
 119 0034 26F04006 		bic	r6, r6, #64
 120              	.LVL5:
 121 0038 2E60     		str	r6, [r5]
 122              	.LBB35:
 123              		.loc 1 194 0
 124 003a 0023     		movs	r3, #0
 125              	@ 194 "../../os/hal/platforms/STM32/USARTv2/serial_lld.c" 1
 126 003c 83F31188 		msr     BASEPRI, r3
 127              	@ 0 "" 2
 128              		.thumb
 129              	.L15:
 130              	.LBE35:
 131              	.LBE33:
 132              	.LBE32:
 133              		.loc 1 266 0
 134 0040 BDE8F840 		pop	{r3, r4, r5, r6, r7, lr}
 135              		.cfi_remember_state
 136              		.cfi_restore 14
 137              		.cfi_restore 7
 138              		.cfi_restore 6
 139              		.cfi_restore 5
 140              		.cfi_restore 4
 141              		.cfi_restore 3
 142              		.cfi_def_cfa_offset 0
 143              	.LVL6:
 144              		.loc 1 265 0
 145 0044 FFF7FEBF 		b	_port_irq_epilogue
 146              	.LVL7:
 147              	.L50:
 148              		.cfi_restore_state
 149              	.LBB49:
 150              	.LBB48:
 151              	.LBB36:
 152              		.loc 1 169 0
 153 0048 2023     		movs	r3, #32
 154              	@ 169 "../../os/hal/platforms/STM32/USARTv2/serial_lld.c" 1
 155 004a 83F31188 		msr     BASEPRI, r3
 156              	@ 0 "" 2
 157              		.thumb
 158              	.LBE36:
 159              		.loc 1 170 0
 160 004e A98C     		ldrh	r1, [r5, #36]
 161 0050 2748     		ldr	r0, .L54
 162 0052 C9B2     		uxtb	r1, r1
 163 0054 FFF7FEFF 		bl	sdIncomingDataI
 164              	.LVL8:
 165              	.LBB37:
 166              		.loc 1 171 0
 167 0058 0023     		movs	r3, #0
 168              	@ 171 "../../os/hal/platforms/STM32/USARTv2/serial_lld.c" 1
 169 005a 83F31188 		msr     BASEPRI, r3
 170              	@ 0 "" 2
 171              		.thumb
ARM GAS  /tmp/ccxqjOgZ.s 			page 4


 172 005e DBE7     		b	.L11
 173              	.L49:
 174              	.LBE37:
 175              	.LBB38:
 176              		.loc 1 162 0
 177 0060 2023     		movs	r3, #32
 178              	@ 162 "../../os/hal/platforms/STM32/USARTv2/serial_lld.c" 1
 179 0062 83F31188 		msr     BASEPRI, r3
 180              	@ 0 "" 2
 181              		.thumb
 182              	.LBE38:
 183              		.loc 1 163 0
 184 0066 2348     		ldr	r0, .L54+4
 185 0068 4FF40071 		mov	r1, #512
 186 006c FFF7FEFF 		bl	chEvtBroadcastFlagsI
 187              	.LVL9:
 188              	.LBB39:
 189              		.loc 1 164 0
 190 0070 0023     		movs	r3, #0
 191              	@ 164 "../../os/hal/platforms/STM32/USARTv2/serial_lld.c" 1
 192 0072 83F31188 		msr     BASEPRI, r3
 193              	@ 0 "" 2
 194              		.thumb
 195 0076 CDE7     		b	.L10
 196              	.L48:
 197              	.LVL10:
 198              	.LBE39:
 199              	.LBB40:
 200              	.LBB41:
 201              		.loc 1 130 0
 202 0078 14F0080F 		tst	r4, #8
 203 007c 0CBF     		ite	eq
 204 007e 0021     		moveq	r1, #0
 205 0080 8021     		movne	r1, #128
 206              	.LVL11:
 207              		.loc 1 131 0
 208 0082 E307     		lsls	r3, r4, #31
 209              		.loc 1 132 0
 210 0084 48BF     		it	mi
 211 0086 41F02001 		orrmi	r1, r1, #32
 212              	.LVL12:
 213              		.loc 1 133 0
 214 008a A007     		lsls	r0, r4, #30
 215              		.loc 1 134 0
 216 008c 48BF     		it	mi
 217 008e 41F04001 		orrmi	r1, r1, #64
 218              	.LVL13:
 219              		.loc 1 135 0
 220 0092 6207     		lsls	r2, r4, #29
 221              		.loc 1 136 0
 222 0094 48BF     		it	mi
 223 0096 41F48071 		orrmi	r1, r1, #256
 224              	.LVL14:
 225              	.LBB42:
 226              		.loc 1 137 0
 227 009a 2023     		movs	r3, #32
 228              	@ 137 "../../os/hal/platforms/STM32/USARTv2/serial_lld.c" 1
ARM GAS  /tmp/ccxqjOgZ.s 			page 5


 229 009c 83F31188 		msr     BASEPRI, r3
 230              	@ 0 "" 2
 231              		.thumb
 232              	.LBE42:
 233              		.loc 1 138 0
 234 00a0 1448     		ldr	r0, .L54+4
 235 00a2 FFF7FEFF 		bl	chEvtBroadcastFlagsI
 236              	.LVL15:
 237              	.LBB43:
 238              		.loc 1 139 0
 239 00a6 0023     		movs	r3, #0
 240              	@ 139 "../../os/hal/platforms/STM32/USARTv2/serial_lld.c" 1
 241 00a8 83F31188 		msr     BASEPRI, r3
 242              	@ 0 "" 2
 243              		.thumb
 244 00ac B0E7     		b	.L5
 245              	.LVL16:
 246              	.L51:
 247              	.LBE43:
 248              	.LBE41:
 249              	.LBE40:
 250              	.LBB44:
 251              	.LBB45:
 252              		.loc 1 177 0
 253 00ae 2023     		movs	r3, #32
 254              	@ 177 "../../os/hal/platforms/STM32/USARTv2/serial_lld.c" 1
 255 00b0 83F31188 		msr     BASEPRI, r3
 256              	@ 0 "" 2
 257              		.thumb
 258              	.LBE45:
 259              		.loc 1 178 0
 260 00b4 1048     		ldr	r0, .L54+8
 261 00b6 FFF7FEFF 		bl	chOQGetI
 262              	.LVL17:
 263              		.loc 1 179 0
 264 00ba 0028     		cmp	r0, #0
 265 00bc 0DDB     		blt	.L53
 266              		.loc 1 184 0
 267 00be 80B2     		uxth	r0, r0
 268              	.LVL18:
 269 00c0 2885     		strh	r0, [r5, #40]	@ movhi
 270              	.L14:
 271              	.LBB46:
 272              		.loc 1 185 0
 273 00c2 0023     		movs	r3, #0
 274              	@ 185 "../../os/hal/platforms/STM32/USARTv2/serial_lld.c" 1
 275 00c4 83F31188 		msr     BASEPRI, r3
 276              	@ 0 "" 2
 277              		.thumb
 278 00c8 AAE7     		b	.L12
 279              	.L52:
 280              	.LBE46:
 281              	.LBE44:
 282              		.loc 1 191 0
 283 00ca 836B     		ldr	r3, [r0, #56]
 284 00cc 002B     		cmp	r3, #0
 285 00ce B1D0     		beq	.L16
ARM GAS  /tmp/ccxqjOgZ.s 			page 6


 286              		.loc 1 192 0
 287 00d0 0430     		adds	r0, r0, #4
 288 00d2 1021     		movs	r1, #16
 289 00d4 FFF7FEFF 		bl	chEvtBroadcastFlagsI
 290              	.LVL19:
 291 00d8 ACE7     		b	.L16
 292              	.LVL20:
 293              	.L53:
 294              	.LBB47:
 295              		.loc 1 180 0
 296 00da 0648     		ldr	r0, .L54+4
 297              	.LVL21:
 298 00dc 0821     		movs	r1, #8
 299 00de FFF7FEFF 		bl	chEvtBroadcastFlagsI
 300              	.LVL22:
 301              		.loc 1 181 0
 302 00e2 26F0C003 		bic	r3, r6, #192
 303 00e6 43F04003 		orr	r3, r3, #64
 304 00ea 2B60     		str	r3, [r5]
 305 00ec E9E7     		b	.L14
 306              	.L55:
 307 00ee 00BF     		.align	2
 308              	.L54:
 309 00f0 00000000 		.word	.LANCHOR0
 310 00f4 04000000 		.word	.LANCHOR0+4
 311 00f8 30000000 		.word	.LANCHOR0+48
 312              	.LBE47:
 313              	.LBE48:
 314              	.LBE49:
 315              		.cfi_endproc
 316              	.LFE123:
 317              		.size	VectorD4, .-VectorD4
 318 00fc AFF30080 		.section	.text.sd_lld_init,"ax",%progbits
 319              		.align	2
 320              		.p2align 4,,15
 321              		.global	sd_lld_init
 322              		.thumb
 323              		.thumb_func
 324              		.type	sd_lld_init, %function
 325              	sd_lld_init:
 326              	.LFB124:
 327              		.loc 1 373 0
 328              		.cfi_startproc
 329              		@ args = 0, pretend = 0, frame = 0
 330              		@ frame_needed = 0, uses_anonymous_args = 0
 331 0000 10B5     		push	{r4, lr}
 332              		.cfi_def_cfa_offset 8
 333              		.cfi_offset 4, -8
 334              		.cfi_offset 14, -4
 335              		.loc 1 376 0
 336 0002 054C     		ldr	r4, .L58
 337 0004 054A     		ldr	r2, .L58+4
 338 0006 2046     		mov	r0, r4
 339 0008 0021     		movs	r1, #0
 340 000a FFF7FEFF 		bl	sdObjectInit
 341              	.LVL23:
 342              		.loc 1 377 0
ARM GAS  /tmp/ccxqjOgZ.s 			page 7


 343 000e 044A     		ldr	r2, .L58+8
 344              		.loc 1 378 0
 345 0010 044B     		ldr	r3, .L58+12
 346              		.loc 1 377 0
 347 0012 6267     		str	r2, [r4, #116]
 348              		.loc 1 378 0
 349 0014 A367     		str	r3, [r4, #120]
 350 0016 10BD     		pop	{r4, pc}
 351              	.L59:
 352              		.align	2
 353              	.L58:
 354 0018 00000000 		.word	.LANCHOR0
 355 001c 00000000 		.word	notify1
 356 0020 00380140 		.word	1073821696
 357 0024 00512502 		.word	36000000
 358              		.cfi_endproc
 359              	.LFE124:
 360              		.size	sd_lld_init, .-sd_lld_init
 361 0028 AFF30080 		.section	.text.sd_lld_start,"ax",%progbits
 361      AFF30080 
 362              		.align	2
 363              		.p2align 4,,15
 364              		.global	sd_lld_start
 365              		.thumb
 366              		.thumb_func
 367              		.type	sd_lld_start, %function
 368              	sd_lld_start:
 369              	.LFB125:
 370              		.loc 1 422 0
 371              		.cfi_startproc
 372              		@ args = 0, pretend = 0, frame = 0
 373              		@ frame_needed = 0, uses_anonymous_args = 0
 374              	.LVL24:
 375 0000 70B5     		push	{r4, r5, r6, lr}
 376              		.cfi_def_cfa_offset 16
 377              		.cfi_offset 4, -16
 378              		.cfi_offset 5, -12
 379              		.cfi_offset 6, -8
 380              		.cfi_offset 14, -4
 381              		.loc 1 427 0
 382 0002 037A     		ldrb	r3, [r0, #8]	@ zero_extendqisi2
 383              		.loc 1 425 0
 384 0004 164C     		ldr	r4, .L65
 385 0006 0029     		cmp	r1, #0
 386 0008 18BF     		it	ne
 387 000a 0C46     		movne	r4, r1
 388              	.LVL25:
 389              		.loc 1 427 0
 390 000c 012B     		cmp	r3, #1
 391              		.loc 1 422 0
 392 000e 0646     		mov	r6, r0
 393              		.loc 1 427 0
 394 0010 18D0     		beq	.L64
 395              	.LVL26:
 396              	.L62:
 397              	.LBB50:
 398              	.LBB51:
ARM GAS  /tmp/ccxqjOgZ.s 			page 8


 399              		.loc 1 102 0
 400 0012 6268     		ldr	r2, [r4, #4]
 401              		.loc 1 99 0
 402 0014 A568     		ldr	r5, [r4, #8]
 403              		.loc 1 100 0
 404 0016 E068     		ldr	r0, [r4, #12]
 405 0018 736F     		ldr	r3, [r6, #116]
 406              	.LVL27:
 407              		.loc 1 96 0
 408 001a 2468     		ldr	r4, [r4]
 409              	.LVL28:
 410 001c B16F     		ldr	r1, [r6, #120]
 411 001e B1FBF4F1 		udiv	r1, r1, r4
 412              		.loc 1 102 0
 413 0022 42F49672 		orr	r2, r2, #300
 414              		.loc 1 99 0
 415 0026 45F04004 		orr	r4, r5, #64
 416              		.loc 1 96 0
 417 002a 89B2     		uxth	r1, r1
 418              		.loc 1 100 0
 419 002c 40F00100 		orr	r0, r0, #1
 420              		.loc 1 102 0
 421 0030 42F00102 		orr	r2, r2, #1
 422              		.loc 1 104 0
 423 0034 4FF0FF35 		mov	r5, #-1
 424              		.loc 1 96 0
 425 0038 9981     		strh	r1, [r3, #12]	@ movhi
 426              		.loc 1 99 0
 427 003a 5C60     		str	r4, [r3, #4]
 428              		.loc 1 100 0
 429 003c 9860     		str	r0, [r3, #8]
 430              		.loc 1 101 0
 431 003e 1A60     		str	r2, [r3]
 432              		.loc 1 104 0
 433 0040 1D62     		str	r5, [r3, #32]
 434 0042 70BD     		pop	{r4, r5, r6, pc}
 435              	.LVL29:
 436              	.L64:
 437              	.LBE51:
 438              	.LBE50:
 439              		.loc 1 429 0
 440 0044 074B     		ldr	r3, .L65+4
 441 0046 9842     		cmp	r0, r3
 442 0048 E3D1     		bne	.L62
 443              		.loc 1 430 0
 444 004a 074A     		ldr	r2, .L65+8
 445 004c 9369     		ldr	r3, [r2, #24]
 446 004e 43F48043 		orr	r3, r3, #16384
 447 0052 9361     		str	r3, [r2, #24]
 448              		.loc 1 431 0
 449 0054 2520     		movs	r0, #37
 450              	.LVL30:
 451 0056 C021     		movs	r1, #192
 452 0058 FFF7FEFF 		bl	nvicEnableVector
 453              	.LVL31:
 454 005c D9E7     		b	.L62
 455              	.L66:
ARM GAS  /tmp/ccxqjOgZ.s 			page 9


 456 005e 00BF     		.align	2
 457              	.L65:
 458 0060 00000000 		.word	.LANCHOR1
 459 0064 00000000 		.word	.LANCHOR0
 460 0068 00100240 		.word	1073876992
 461              		.cfi_endproc
 462              	.LFE125:
 463              		.size	sd_lld_start, .-sd_lld_start
 464 006c AFF30080 		.section	.text.sd_lld_stop,"ax",%progbits
 465              		.align	2
 466              		.p2align 4,,15
 467              		.global	sd_lld_stop
 468              		.thumb
 469              		.thumb_func
 470              		.type	sd_lld_stop, %function
 471              	sd_lld_stop:
 472              	.LFB126:
 473              		.loc 1 483 0
 474              		.cfi_startproc
 475              		@ args = 0, pretend = 0, frame = 0
 476              		@ frame_needed = 0, uses_anonymous_args = 0
 477              		@ link register save eliminated.
 478              	.LVL32:
 479              		.loc 1 485 0
 480 0000 037A     		ldrb	r3, [r0, #8]	@ zero_extendqisi2
 481 0002 022B     		cmp	r3, #2
 482 0004 00D0     		beq	.L71
 483              	.L67:
 484 0006 7047     		bx	lr
 485              	.L71:
 486              		.loc 1 488 0
 487 0008 0949     		ldr	r1, .L72
 488              		.loc 1 486 0
 489 000a 436F     		ldr	r3, [r0, #116]
 490              	.LVL33:
 491              	.LBB52:
 492              	.LBB53:
 493              		.loc 1 115 0
 494 000c 0022     		movs	r2, #0
 495              	.LBE53:
 496              	.LBE52:
 497              		.loc 1 488 0
 498 000e 8842     		cmp	r0, r1
 499              	.LBB55:
 500              	.LBB54:
 501              		.loc 1 115 0
 502 0010 1A60     		str	r2, [r3]
 503              		.loc 1 116 0
 504 0012 5A60     		str	r2, [r3, #4]
 505              		.loc 1 117 0
 506 0014 9A60     		str	r2, [r3, #8]
 507              	.LBE54:
 508              	.LBE55:
 509              		.loc 1 488 0
 510 0016 F6D1     		bne	.L67
 511              		.loc 1 489 0
 512 0018 02F18042 		add	r2, r2, #1073741824
ARM GAS  /tmp/ccxqjOgZ.s 			page 10


 513 001c 02F50432 		add	r2, r2, #135168
 514              		.loc 1 490 0
 515 0020 2520     		movs	r0, #37
 516              	.LVL34:
 517              		.loc 1 489 0
 518 0022 9369     		ldr	r3, [r2, #24]
 519              	.LVL35:
 520 0024 23F48043 		bic	r3, r3, #16384
 521 0028 9361     		str	r3, [r2, #24]
 522              		.loc 1 490 0
 523 002a FFF7FEBF 		b	nvicDisableVector
 524              	.LVL36:
 525              	.L73:
 526 002e 00BF     		.align	2
 527              	.L72:
 528 0030 00000000 		.word	.LANCHOR0
 529              		.cfi_endproc
 530              	.LFE126:
 531              		.size	sd_lld_stop, .-sd_lld_stop
 532              		.global	SD1
 533 0034 AFF30080 		.section	.rodata.default_config,"a",%progbits
 533      AFF30080 
 533      AFF30080 
 534              		.align	2
 535              		.set	.LANCHOR1,. + 0
 536              		.type	default_config, %object
 537              		.size	default_config, 16
 538              	default_config:
 539 0000 00960000 		.word	38400
 540 0004 00000000 		.word	0
 541 0008 00400000 		.word	16384
 542 000c 00000000 		.word	0
 543              		.section	.bss.SD1,"aw",%nobits
 544              		.align	2
 545              		.set	.LANCHOR0,. + 0
 546              		.type	SD1, %object
 547              		.size	SD1, 124
 548              	SD1:
 549 0000 00000000 		.space	124
 549      00000000 
 549      00000000 
 549      00000000 
 549      00000000 
 550              		.text
 551              	.Letext0:
 552              		.file 2 "/usr/lib/gcc/arm-none-eabi/4.9.3/include/stddef.h"
 553              		.file 3 "/usr/arm-none-eabi/include/machine/_default_types.h"
 554              		.file 4 "/usr/arm-none-eabi/include/stdint.h"
 555              		.file 5 "../../os/ports/GCC/ARMCMx/chtypes.h"
 556              		.file 6 "../../os/kernel/include/chlists.h"
 557              		.file 7 "../../os/kernel/include/chthreads.h"
 558              		.file 8 "../../os/ports/GCC/ARMCMx/chcore_v7m.h"
 559              		.file 9 "../../os/kernel/include/chmtx.h"
 560              		.file 10 "../../os/kernel/include/chevents.h"
 561              		.file 11 "../../os/kernel/include/chqueues.h"
 562              		.file 12 "../../os/hal/platforms/STM32F30x/stm32f30x.h"
 563              		.file 13 "../../os/hal/include/serial.h"
ARM GAS  /tmp/ccxqjOgZ.s 			page 11


 564              		.file 14 "../../os/hal/platforms/STM32/USARTv2/serial_lld.h"
 565              		.file 15 "../../os/ports/common/ARMCMx/nvic.h"
 566              		.file 16 "../../os/ports/common/ARMCMx/CMSIS/include/core_cm4.h"
 567              		.section	.debug_info,"",%progbits
 568              	.Ldebug_info0:
 569 0000 9D0E0000 		.4byte	0xe9d
 570 0004 0400     		.2byte	0x4
 571 0006 00000000 		.4byte	.Ldebug_abbrev0
 572 000a 04       		.byte	0x4
 573 000b 01       		.uleb128 0x1
 574 000c C8020000 		.4byte	.LASF136
 575 0010 01       		.byte	0x1
 576 0011 A3050000 		.4byte	.LASF137
 577 0015 5A020000 		.4byte	.LASF138
 578 0019 48000000 		.4byte	.Ldebug_ranges0+0x48
 579 001d 00000000 		.4byte	0
 580 0021 00000000 		.4byte	.Ldebug_line0
 581 0025 02       		.uleb128 0x2
 582 0026 04       		.byte	0x4
 583 0027 05       		.byte	0x5
 584 0028 696E7400 		.ascii	"int\000"
 585 002c 03       		.uleb128 0x3
 586 002d 00000000 		.4byte	.LASF2
 587 0031 02       		.byte	0x2
 588 0032 D4       		.byte	0xd4
 589 0033 37000000 		.4byte	0x37
 590 0037 04       		.uleb128 0x4
 591 0038 04       		.byte	0x4
 592 0039 07       		.byte	0x7
 593 003a 7D010000 		.4byte	.LASF0
 594 003e 04       		.uleb128 0x4
 595 003f 01       		.byte	0x1
 596 0040 06       		.byte	0x6
 597 0041 97000000 		.4byte	.LASF1
 598 0045 03       		.uleb128 0x3
 599 0046 1A000000 		.4byte	.LASF3
 600 004a 03       		.byte	0x3
 601 004b 1D       		.byte	0x1d
 602 004c 50000000 		.4byte	0x50
 603 0050 04       		.uleb128 0x4
 604 0051 01       		.byte	0x1
 605 0052 08       		.byte	0x8
 606 0053 5A040000 		.4byte	.LASF4
 607 0057 04       		.uleb128 0x4
 608 0058 02       		.byte	0x2
 609 0059 05       		.byte	0x5
 610 005a 9C040000 		.4byte	.LASF5
 611 005e 03       		.uleb128 0x3
 612 005f 72050000 		.4byte	.LASF6
 613 0063 03       		.byte	0x3
 614 0064 2B       		.byte	0x2b
 615 0065 69000000 		.4byte	0x69
 616 0069 04       		.uleb128 0x4
 617 006a 02       		.byte	0x2
 618 006b 07       		.byte	0x7
 619 006c CC010000 		.4byte	.LASF7
 620 0070 03       		.uleb128 0x3
ARM GAS  /tmp/ccxqjOgZ.s 			page 12


 621 0071 99050000 		.4byte	.LASF8
 622 0075 03       		.byte	0x3
 623 0076 3F       		.byte	0x3f
 624 0077 7B000000 		.4byte	0x7b
 625 007b 04       		.uleb128 0x4
 626 007c 04       		.byte	0x4
 627 007d 05       		.byte	0x5
 628 007e EA000000 		.4byte	.LASF9
 629 0082 03       		.uleb128 0x3
 630 0083 4A010000 		.4byte	.LASF10
 631 0087 03       		.byte	0x3
 632 0088 41       		.byte	0x41
 633 0089 8D000000 		.4byte	0x8d
 634 008d 04       		.uleb128 0x4
 635 008e 04       		.byte	0x4
 636 008f 07       		.byte	0x7
 637 0090 3F050000 		.4byte	.LASF11
 638 0094 04       		.uleb128 0x4
 639 0095 08       		.byte	0x8
 640 0096 05       		.byte	0x5
 641 0097 89000000 		.4byte	.LASF12
 642 009b 04       		.uleb128 0x4
 643 009c 08       		.byte	0x8
 644 009d 07       		.byte	0x7
 645 009e 3F000000 		.4byte	.LASF13
 646 00a2 03       		.uleb128 0x3
 647 00a3 3B060000 		.4byte	.LASF14
 648 00a7 04       		.byte	0x4
 649 00a8 15       		.byte	0x15
 650 00a9 45000000 		.4byte	0x45
 651 00ad 03       		.uleb128 0x3
 652 00ae 8A010000 		.4byte	.LASF15
 653 00b2 04       		.byte	0x4
 654 00b3 21       		.byte	0x21
 655 00b4 5E000000 		.4byte	0x5e
 656 00b8 03       		.uleb128 0x3
 657 00b9 52040000 		.4byte	.LASF16
 658 00bd 04       		.byte	0x4
 659 00be 2C       		.byte	0x2c
 660 00bf 70000000 		.4byte	0x70
 661 00c3 03       		.uleb128 0x3
 662 00c4 0D050000 		.4byte	.LASF17
 663 00c8 04       		.byte	0x4
 664 00c9 2D       		.byte	0x2d
 665 00ca 82000000 		.4byte	0x82
 666 00ce 03       		.uleb128 0x3
 667 00cf B0000000 		.4byte	.LASF18
 668 00d3 05       		.byte	0x5
 669 00d4 2B       		.byte	0x2b
 670 00d5 D9000000 		.4byte	0xd9
 671 00d9 04       		.uleb128 0x4
 672 00da 01       		.byte	0x1
 673 00db 02       		.byte	0x2
 674 00dc 4C040000 		.4byte	.LASF19
 675 00e0 03       		.uleb128 0x3
 676 00e1 14020000 		.4byte	.LASF20
 677 00e5 05       		.byte	0x5
ARM GAS  /tmp/ccxqjOgZ.s 			page 13


 678 00e6 2C       		.byte	0x2c
 679 00e7 A2000000 		.4byte	0xa2
 680 00eb 03       		.uleb128 0x3
 681 00ec FC000000 		.4byte	.LASF21
 682 00f0 05       		.byte	0x5
 683 00f1 2D       		.byte	0x2d
 684 00f2 A2000000 		.4byte	0xa2
 685 00f6 03       		.uleb128 0x3
 686 00f7 05040000 		.4byte	.LASF22
 687 00fb 05       		.byte	0x5
 688 00fc 2E       		.byte	0x2e
 689 00fd A2000000 		.4byte	0xa2
 690 0101 03       		.uleb128 0x3
 691 0102 BF000000 		.4byte	.LASF23
 692 0106 05       		.byte	0x5
 693 0107 2F       		.byte	0x2f
 694 0108 A2000000 		.4byte	0xa2
 695 010c 03       		.uleb128 0x3
 696 010d 3C040000 		.4byte	.LASF24
 697 0111 05       		.byte	0x5
 698 0112 30       		.byte	0x30
 699 0113 C3000000 		.4byte	0xc3
 700 0117 03       		.uleb128 0x3
 701 0118 DF010000 		.4byte	.LASF25
 702 011c 05       		.byte	0x5
 703 011d 31       		.byte	0x31
 704 011e B8000000 		.4byte	0xb8
 705 0122 03       		.uleb128 0x3
 706 0123 28020000 		.4byte	.LASF26
 707 0127 05       		.byte	0x5
 708 0128 33       		.byte	0x33
 709 0129 C3000000 		.4byte	0xc3
 710 012d 03       		.uleb128 0x3
 711 012e FA050000 		.4byte	.LASF27
 712 0132 05       		.byte	0x5
 713 0133 34       		.byte	0x34
 714 0134 C3000000 		.4byte	0xc3
 715 0138 03       		.uleb128 0x3
 716 0139 84050000 		.4byte	.LASF28
 717 013d 05       		.byte	0x5
 718 013e 35       		.byte	0x35
 719 013f C3000000 		.4byte	0xc3
 720 0143 03       		.uleb128 0x3
 721 0144 D7040000 		.4byte	.LASF29
 722 0148 06       		.byte	0x6
 723 0149 2A       		.byte	0x2a
 724 014a 4E010000 		.4byte	0x14e
 725 014e 05       		.uleb128 0x5
 726 014f D7040000 		.4byte	.LASF29
 727 0153 48       		.byte	0x48
 728 0154 07       		.byte	0x7
 729 0155 5E       		.byte	0x5e
 730 0156 4B020000 		.4byte	0x24b
 731 015a 06       		.uleb128 0x6
 732 015b BB030000 		.4byte	.LASF30
 733 015f 07       		.byte	0x7
 734 0160 5F       		.byte	0x5f
ARM GAS  /tmp/ccxqjOgZ.s 			page 14


 735 0161 6C020000 		.4byte	0x26c
 736 0165 00       		.byte	0
 737 0166 06       		.uleb128 0x6
 738 0167 35040000 		.4byte	.LASF31
 739 016b 07       		.byte	0x7
 740 016c 61       		.byte	0x61
 741 016d 6C020000 		.4byte	0x26c
 742 0171 04       		.byte	0x4
 743 0172 06       		.uleb128 0x6
 744 0173 4E060000 		.4byte	.LASF32
 745 0177 07       		.byte	0x7
 746 0178 63       		.byte	0x63
 747 0179 0C010000 		.4byte	0x10c
 748 017d 08       		.byte	0x8
 749 017e 06       		.uleb128 0x6
 750 017f 90060000 		.4byte	.LASF33
 751 0183 07       		.byte	0x7
 752 0184 64       		.byte	0x64
 753 0185 26030000 		.4byte	0x326
 754 0189 0C       		.byte	0xc
 755 018a 06       		.uleb128 0x6
 756 018b 42010000 		.4byte	.LASF34
 757 018f 07       		.byte	0x7
 758 0190 66       		.byte	0x66
 759 0191 6C020000 		.4byte	0x26c
 760 0195 10       		.byte	0x10
 761 0196 06       		.uleb128 0x6
 762 0197 C2030000 		.4byte	.LASF35
 763 019b 07       		.byte	0x7
 764 019c 67       		.byte	0x67
 765 019d 6C020000 		.4byte	0x26c
 766 01a1 14       		.byte	0x14
 767 01a2 06       		.uleb128 0x6
 768 01a3 0C060000 		.4byte	.LASF36
 769 01a7 07       		.byte	0x7
 770 01a8 6E       		.byte	0x6e
 771 01a9 41040000 		.4byte	0x441
 772 01ad 18       		.byte	0x18
 773 01ae 06       		.uleb128 0x6
 774 01af 8A040000 		.4byte	.LASF37
 775 01b3 07       		.byte	0x7
 776 01b4 79       		.byte	0x79
 777 01b5 EB000000 		.4byte	0xeb
 778 01b9 1C       		.byte	0x1c
 779 01ba 06       		.uleb128 0x6
 780 01bb B7040000 		.4byte	.LASF38
 781 01bf 07       		.byte	0x7
 782 01c0 7D       		.byte	0x7d
 783 01c1 E0000000 		.4byte	0xe0
 784 01c5 1D       		.byte	0x1d
 785 01c6 06       		.uleb128 0x6
 786 01c7 0E010000 		.4byte	.LASF39
 787 01cb 07       		.byte	0x7
 788 01cc 82       		.byte	0x82
 789 01cd F6000000 		.4byte	0xf6
 790 01d1 1E       		.byte	0x1e
 791 01d2 06       		.uleb128 0x6
ARM GAS  /tmp/ccxqjOgZ.s 			page 15


 792 01d3 A6040000 		.4byte	.LASF40
 793 01d7 07       		.byte	0x7
 794 01d8 88       		.byte	0x88
 795 01d9 01010000 		.4byte	0x101
 796 01dd 1F       		.byte	0x1f
 797 01de 06       		.uleb128 0x6
 798 01df 26010000 		.4byte	.LASF41
 799 01e3 07       		.byte	0x7
 800 01e4 8F       		.byte	0x8f
 801 01e5 53030000 		.4byte	0x353
 802 01e9 20       		.byte	0x20
 803 01ea 07       		.uleb128 0x7
 804 01eb 705F7500 		.ascii	"p_u\000"
 805 01ef 07       		.byte	0x7
 806 01f0 B4       		.byte	0xb4
 807 01f1 0C040000 		.4byte	0x40c
 808 01f5 24       		.byte	0x24
 809 01f6 06       		.uleb128 0x6
 810 01f7 96060000 		.4byte	.LASF42
 811 01fb 07       		.byte	0x7
 812 01fc B9       		.byte	0xb9
 813 01fd 92020000 		.4byte	0x292
 814 0201 28       		.byte	0x28
 815 0202 06       		.uleb128 0x6
 816 0203 AA010000 		.4byte	.LASF43
 817 0207 07       		.byte	0x7
 818 0208 BF       		.byte	0xbf
 819 0209 72020000 		.4byte	0x272
 820 020d 2C       		.byte	0x2c
 821 020e 06       		.uleb128 0x6
 822 020f 29060000 		.4byte	.LASF44
 823 0213 07       		.byte	0x7
 824 0214 C3       		.byte	0xc3
 825 0215 17010000 		.4byte	0x117
 826 0219 34       		.byte	0x34
 827 021a 06       		.uleb128 0x6
 828 021b EE040000 		.4byte	.LASF45
 829 021f 07       		.byte	0x7
 830 0220 C9       		.byte	0xc9
 831 0221 22010000 		.4byte	0x122
 832 0225 38       		.byte	0x38
 833 0226 06       		.uleb128 0x6
 834 0227 92040000 		.4byte	.LASF46
 835 022b 07       		.byte	0x7
 836 022c D0       		.byte	0xd0
 837 022d 53040000 		.4byte	0x453
 838 0231 3C       		.byte	0x3c
 839 0232 06       		.uleb128 0x6
 840 0233 8E050000 		.4byte	.LASF47
 841 0237 07       		.byte	0x7
 842 0238 D4       		.byte	0xd4
 843 0239 0C010000 		.4byte	0x10c
 844 023d 40       		.byte	0x40
 845 023e 06       		.uleb128 0x6
 846 023f A8000000 		.4byte	.LASF48
 847 0243 07       		.byte	0x7
 848 0244 DA       		.byte	0xda
ARM GAS  /tmp/ccxqjOgZ.s 			page 16


 849 0245 A8020000 		.4byte	0x2a8
 850 0249 44       		.byte	0x44
 851 024a 00       		.byte	0
 852 024b 08       		.uleb128 0x8
 853 024c 08       		.byte	0x8
 854 024d 06       		.byte	0x6
 855 024e 61       		.byte	0x61
 856 024f 6C020000 		.4byte	0x26c
 857 0253 06       		.uleb128 0x6
 858 0254 BB030000 		.4byte	.LASF30
 859 0258 06       		.byte	0x6
 860 0259 62       		.byte	0x62
 861 025a 6C020000 		.4byte	0x26c
 862 025e 00       		.byte	0
 863 025f 06       		.uleb128 0x6
 864 0260 35040000 		.4byte	.LASF31
 865 0264 06       		.byte	0x6
 866 0265 64       		.byte	0x64
 867 0266 6C020000 		.4byte	0x26c
 868 026a 04       		.byte	0x4
 869 026b 00       		.byte	0
 870 026c 09       		.uleb128 0x9
 871 026d 04       		.byte	0x4
 872 026e 43010000 		.4byte	0x143
 873 0272 03       		.uleb128 0x3
 874 0273 CA030000 		.4byte	.LASF49
 875 0277 06       		.byte	0x6
 876 0278 66       		.byte	0x66
 877 0279 4B020000 		.4byte	0x24b
 878 027d 08       		.uleb128 0x8
 879 027e 04       		.byte	0x4
 880 027f 06       		.byte	0x6
 881 0280 6B       		.byte	0x6b
 882 0281 92020000 		.4byte	0x292
 883 0285 06       		.uleb128 0x6
 884 0286 BB030000 		.4byte	.LASF30
 885 028a 06       		.byte	0x6
 886 028b 6D       		.byte	0x6d
 887 028c 6C020000 		.4byte	0x26c
 888 0290 00       		.byte	0
 889 0291 00       		.byte	0
 890 0292 03       		.uleb128 0x3
 891 0293 1C020000 		.4byte	.LASF50
 892 0297 06       		.byte	0x6
 893 0298 70       		.byte	0x70
 894 0299 7D020000 		.4byte	0x27d
 895 029d 03       		.uleb128 0x3
 896 029e 55010000 		.4byte	.LASF51
 897 02a2 08       		.byte	0x8
 898 02a3 E5       		.byte	0xe5
 899 02a4 A8020000 		.4byte	0x2a8
 900 02a8 0A       		.uleb128 0xa
 901 02a9 04       		.byte	0x4
 902 02aa 0B       		.uleb128 0xb
 903 02ab EA050000 		.4byte	.LASF52
 904 02af 24       		.byte	0x24
 905 02b0 08       		.byte	0x8
ARM GAS  /tmp/ccxqjOgZ.s 			page 17


 906 02b1 0C01     		.2byte	0x10c
 907 02b3 26030000 		.4byte	0x326
 908 02b7 0C       		.uleb128 0xc
 909 02b8 723400   		.ascii	"r4\000"
 910 02bb 08       		.byte	0x8
 911 02bc 1F01     		.2byte	0x11f
 912 02be 9D020000 		.4byte	0x29d
 913 02c2 00       		.byte	0
 914 02c3 0C       		.uleb128 0xc
 915 02c4 723500   		.ascii	"r5\000"
 916 02c7 08       		.byte	0x8
 917 02c8 2001     		.2byte	0x120
 918 02ca 9D020000 		.4byte	0x29d
 919 02ce 04       		.byte	0x4
 920 02cf 0C       		.uleb128 0xc
 921 02d0 723600   		.ascii	"r6\000"
 922 02d3 08       		.byte	0x8
 923 02d4 2101     		.2byte	0x121
 924 02d6 9D020000 		.4byte	0x29d
 925 02da 08       		.byte	0x8
 926 02db 0C       		.uleb128 0xc
 927 02dc 723700   		.ascii	"r7\000"
 928 02df 08       		.byte	0x8
 929 02e0 2201     		.2byte	0x122
 930 02e2 9D020000 		.4byte	0x29d
 931 02e6 0C       		.byte	0xc
 932 02e7 0C       		.uleb128 0xc
 933 02e8 723800   		.ascii	"r8\000"
 934 02eb 08       		.byte	0x8
 935 02ec 2301     		.2byte	0x123
 936 02ee 9D020000 		.4byte	0x29d
 937 02f2 10       		.byte	0x10
 938 02f3 0C       		.uleb128 0xc
 939 02f4 723900   		.ascii	"r9\000"
 940 02f7 08       		.byte	0x8
 941 02f8 2401     		.2byte	0x124
 942 02fa 9D020000 		.4byte	0x29d
 943 02fe 14       		.byte	0x14
 944 02ff 0C       		.uleb128 0xc
 945 0300 72313000 		.ascii	"r10\000"
 946 0304 08       		.byte	0x8
 947 0305 2501     		.2byte	0x125
 948 0307 9D020000 		.4byte	0x29d
 949 030b 18       		.byte	0x18
 950 030c 0C       		.uleb128 0xc
 951 030d 72313100 		.ascii	"r11\000"
 952 0311 08       		.byte	0x8
 953 0312 2601     		.2byte	0x126
 954 0314 9D020000 		.4byte	0x29d
 955 0318 1C       		.byte	0x1c
 956 0319 0C       		.uleb128 0xc
 957 031a 6C7200   		.ascii	"lr\000"
 958 031d 08       		.byte	0x8
 959 031e 2701     		.2byte	0x127
 960 0320 9D020000 		.4byte	0x29d
 961 0324 20       		.byte	0x20
 962 0325 00       		.byte	0
ARM GAS  /tmp/ccxqjOgZ.s 			page 18


 963 0326 0B       		.uleb128 0xb
 964 0327 E2050000 		.4byte	.LASF53
 965 032b 04       		.byte	0x4
 966 032c 08       		.byte	0x8
 967 032d 3101     		.2byte	0x131
 968 032f 41030000 		.4byte	0x341
 969 0333 0C       		.uleb128 0xc
 970 0334 72313300 		.ascii	"r13\000"
 971 0338 08       		.byte	0x8
 972 0339 3201     		.2byte	0x132
 973 033b 41030000 		.4byte	0x341
 974 033f 00       		.byte	0
 975 0340 00       		.byte	0
 976 0341 09       		.uleb128 0x9
 977 0342 04       		.byte	0x4
 978 0343 AA020000 		.4byte	0x2aa
 979 0347 0D       		.uleb128 0xd
 980 0348 C3000000 		.4byte	0xc3
 981 034c 04       		.uleb128 0x4
 982 034d 04       		.byte	0x4
 983 034e 07       		.byte	0x7
 984 034f A2030000 		.4byte	.LASF54
 985 0353 0D       		.uleb128 0xd
 986 0354 38010000 		.4byte	0x138
 987 0358 05       		.uleb128 0x5
 988 0359 B5030000 		.4byte	.LASF55
 989 035d 10       		.byte	0x10
 990 035e 09       		.byte	0x9
 991 035f 2C       		.byte	0x2c
 992 0360 89030000 		.4byte	0x389
 993 0364 06       		.uleb128 0x6
 994 0365 B7000000 		.4byte	.LASF56
 995 0369 09       		.byte	0x9
 996 036a 2D       		.byte	0x2d
 997 036b 72020000 		.4byte	0x272
 998 036f 00       		.byte	0
 999 0370 06       		.uleb128 0x6
 1000 0371 88060000 		.4byte	.LASF57
 1001 0375 09       		.byte	0x9
 1002 0376 2F       		.byte	0x2f
 1003 0377 6C020000 		.4byte	0x26c
 1004 037b 08       		.byte	0x8
 1005 037c 06       		.uleb128 0x6
 1006 037d 7D050000 		.4byte	.LASF58
 1007 0381 09       		.byte	0x9
 1008 0382 31       		.byte	0x31
 1009 0383 89030000 		.4byte	0x389
 1010 0387 0C       		.byte	0xc
 1011 0388 00       		.byte	0
 1012 0389 09       		.uleb128 0x9
 1013 038a 04       		.byte	0x4
 1014 038b 58030000 		.4byte	0x358
 1015 038f 03       		.uleb128 0x3
 1016 0390 B5030000 		.4byte	.LASF55
 1017 0394 09       		.byte	0x9
 1018 0395 33       		.byte	0x33
 1019 0396 58030000 		.4byte	0x358
ARM GAS  /tmp/ccxqjOgZ.s 			page 19


 1020 039a 03       		.uleb128 0x3
 1021 039b 55060000 		.4byte	.LASF59
 1022 039f 0A       		.byte	0xa
 1023 03a0 2C       		.byte	0x2c
 1024 03a1 A5030000 		.4byte	0x3a5
 1025 03a5 05       		.uleb128 0x5
 1026 03a6 55060000 		.4byte	.LASF59
 1027 03aa 10       		.byte	0x10
 1028 03ab 0A       		.byte	0xa
 1029 03ac 31       		.byte	0x31
 1030 03ad E2030000 		.4byte	0x3e2
 1031 03b1 06       		.uleb128 0x6
 1032 03b2 BF040000 		.4byte	.LASF60
 1033 03b6 0A       		.byte	0xa
 1034 03b7 32       		.byte	0x32
 1035 03b8 E2030000 		.4byte	0x3e2
 1036 03bc 00       		.byte	0
 1037 03bd 06       		.uleb128 0x6
 1038 03be 75040000 		.4byte	.LASF61
 1039 03c2 0A       		.byte	0xa
 1040 03c3 35       		.byte	0x35
 1041 03c4 6C020000 		.4byte	0x26c
 1042 03c8 04       		.byte	0x4
 1043 03c9 06       		.uleb128 0x6
 1044 03ca E8030000 		.4byte	.LASF62
 1045 03ce 0A       		.byte	0xa
 1046 03cf 37       		.byte	0x37
 1047 03d0 22010000 		.4byte	0x122
 1048 03d4 08       		.byte	0x8
 1049 03d5 06       		.uleb128 0x6
 1050 03d6 81040000 		.4byte	.LASF63
 1051 03da 0A       		.byte	0xa
 1052 03db 3A       		.byte	0x3a
 1053 03dc 2D010000 		.4byte	0x12d
 1054 03e0 0C       		.byte	0xc
 1055 03e1 00       		.byte	0
 1056 03e2 09       		.uleb128 0x9
 1057 03e3 04       		.byte	0x4
 1058 03e4 9A030000 		.4byte	0x39a
 1059 03e8 05       		.uleb128 0x5
 1060 03e9 6B010000 		.4byte	.LASF64
 1061 03ed 04       		.byte	0x4
 1062 03ee 0A       		.byte	0xa
 1063 03ef 41       		.byte	0x41
 1064 03f0 01040000 		.4byte	0x401
 1065 03f4 06       		.uleb128 0x6
 1066 03f5 13060000 		.4byte	.LASF65
 1067 03f9 0A       		.byte	0xa
 1068 03fa 42       		.byte	0x42
 1069 03fb E2030000 		.4byte	0x3e2
 1070 03ff 00       		.byte	0
 1071 0400 00       		.byte	0
 1072 0401 03       		.uleb128 0x3
 1073 0402 6B010000 		.4byte	.LASF64
 1074 0406 0A       		.byte	0xa
 1075 0407 45       		.byte	0x45
 1076 0408 E8030000 		.4byte	0x3e8
ARM GAS  /tmp/ccxqjOgZ.s 			page 20


 1077 040c 0E       		.uleb128 0xe
 1078 040d 04       		.byte	0x4
 1079 040e 07       		.byte	0x7
 1080 040f 96       		.byte	0x96
 1081 0410 41040000 		.4byte	0x441
 1082 0414 0F       		.uleb128 0xf
 1083 0415 07000000 		.4byte	.LASF66
 1084 0419 07       		.byte	0x7
 1085 041a 9D       		.byte	0x9d
 1086 041b 17010000 		.4byte	0x117
 1087 041f 0F       		.uleb128 0xf
 1088 0420 56000000 		.4byte	.LASF67
 1089 0424 07       		.byte	0x7
 1090 0425 A4       		.byte	0xa4
 1091 0426 17010000 		.4byte	0x117
 1092 042a 0F       		.uleb128 0xf
 1093 042b 63060000 		.4byte	.LASF68
 1094 042f 07       		.byte	0x7
 1095 0430 AB       		.byte	0xab
 1096 0431 A8020000 		.4byte	0x2a8
 1097 0435 0F       		.uleb128 0xf
 1098 0436 B0040000 		.4byte	.LASF69
 1099 043a 07       		.byte	0x7
 1100 043b B2       		.byte	0xb2
 1101 043c 22010000 		.4byte	0x122
 1102 0440 00       		.byte	0
 1103 0441 09       		.uleb128 0x9
 1104 0442 04       		.byte	0x4
 1105 0443 47040000 		.4byte	0x447
 1106 0447 10       		.uleb128 0x10
 1107 0448 4C040000 		.4byte	0x44c
 1108 044c 04       		.uleb128 0x4
 1109 044d 01       		.byte	0x1
 1110 044e 08       		.byte	0x8
 1111 044f 56050000 		.4byte	.LASF70
 1112 0453 09       		.uleb128 0x9
 1113 0454 04       		.byte	0x4
 1114 0455 8F030000 		.4byte	0x38f
 1115 0459 09       		.uleb128 0x9
 1116 045a 04       		.byte	0x4
 1117 045b 5F040000 		.4byte	0x45f
 1118 045f 11       		.uleb128 0x11
 1119 0460 17010000 		.4byte	0x117
 1120 0464 6E040000 		.4byte	0x46e
 1121 0468 12       		.uleb128 0x12
 1122 0469 A8020000 		.4byte	0x2a8
 1123 046d 00       		.byte	0
 1124 046e 03       		.uleb128 0x3
 1125 046f 4D020000 		.4byte	.LASF71
 1126 0473 0B       		.byte	0xb
 1127 0474 37       		.byte	0x37
 1128 0475 79040000 		.4byte	0x479
 1129 0479 05       		.uleb128 0x5
 1130 047a 4D020000 		.4byte	.LASF71
 1131 047e 24       		.byte	0x24
 1132 047f 0B       		.byte	0xb
 1133 0480 45       		.byte	0x45
ARM GAS  /tmp/ccxqjOgZ.s 			page 21


 1134 0481 E6040000 		.4byte	0x4e6
 1135 0485 06       		.uleb128 0x6
 1136 0486 7F000000 		.4byte	.LASF72
 1137 048a 0B       		.byte	0xb
 1138 048b 46       		.byte	0x46
 1139 048c 72020000 		.4byte	0x272
 1140 0490 00       		.byte	0
 1141 0491 06       		.uleb128 0x6
 1142 0492 AB030000 		.4byte	.LASF73
 1143 0496 0B       		.byte	0xb
 1144 0497 47       		.byte	0x47
 1145 0498 2C000000 		.4byte	0x2c
 1146 049c 08       		.byte	0x8
 1147 049d 06       		.uleb128 0x6
 1148 049e 15010000 		.4byte	.LASF74
 1149 04a2 0B       		.byte	0xb
 1150 04a3 48       		.byte	0x48
 1151 04a4 08050000 		.4byte	0x508
 1152 04a8 0C       		.byte	0xc
 1153 04a9 06       		.uleb128 0x6
 1154 04aa 06060000 		.4byte	.LASF75
 1155 04ae 0B       		.byte	0xb
 1156 04af 49       		.byte	0x49
 1157 04b0 08050000 		.4byte	0x508
 1158 04b4 10       		.byte	0x10
 1159 04b5 06       		.uleb128 0x6
 1160 04b6 1E010000 		.4byte	.LASF76
 1161 04ba 0B       		.byte	0xb
 1162 04bb 4B       		.byte	0x4b
 1163 04bc 08050000 		.4byte	0x508
 1164 04c0 14       		.byte	0x14
 1165 04c1 06       		.uleb128 0x6
 1166 04c2 44040000 		.4byte	.LASF77
 1167 04c6 0B       		.byte	0xb
 1168 04c7 4C       		.byte	0x4c
 1169 04c8 08050000 		.4byte	0x508
 1170 04cc 18       		.byte	0x18
 1171 04cd 06       		.uleb128 0x6
 1172 04ce 20060000 		.4byte	.LASF78
 1173 04d2 0B       		.byte	0xb
 1174 04d3 4D       		.byte	0x4d
 1175 04d4 E6040000 		.4byte	0x4e6
 1176 04d8 1C       		.byte	0x1c
 1177 04d9 06       		.uleb128 0x6
 1178 04da 81060000 		.4byte	.LASF79
 1179 04de 0B       		.byte	0xb
 1180 04df 4E       		.byte	0x4e
 1181 04e0 A8020000 		.4byte	0x2a8
 1182 04e4 20       		.byte	0x20
 1183 04e5 00       		.byte	0
 1184 04e6 03       		.uleb128 0x3
 1185 04e7 43020000 		.4byte	.LASF80
 1186 04eb 0B       		.byte	0xb
 1187 04ec 3A       		.byte	0x3a
 1188 04ed F1040000 		.4byte	0x4f1
 1189 04f1 09       		.uleb128 0x9
 1190 04f2 04       		.byte	0x4
ARM GAS  /tmp/ccxqjOgZ.s 			page 22


 1191 04f3 F7040000 		.4byte	0x4f7
 1192 04f7 13       		.uleb128 0x13
 1193 04f8 02050000 		.4byte	0x502
 1194 04fc 12       		.uleb128 0x12
 1195 04fd 02050000 		.4byte	0x502
 1196 0501 00       		.byte	0
 1197 0502 09       		.uleb128 0x9
 1198 0503 04       		.byte	0x4
 1199 0504 6E040000 		.4byte	0x46e
 1200 0508 09       		.uleb128 0x9
 1201 0509 04       		.byte	0x4
 1202 050a A2000000 		.4byte	0xa2
 1203 050e 03       		.uleb128 0x3
 1204 050f 43060000 		.4byte	.LASF81
 1205 0513 0B       		.byte	0xb
 1206 0514 82       		.byte	0x82
 1207 0515 6E040000 		.4byte	0x46e
 1208 0519 03       		.uleb128 0x3
 1209 051a 0E000000 		.4byte	.LASF82
 1210 051e 0B       		.byte	0xb
 1211 051f F5       		.byte	0xf5
 1212 0520 6E040000 		.4byte	0x46e
 1213 0524 11       		.uleb128 0x11
 1214 0525 2C000000 		.4byte	0x2c
 1215 0529 3D050000 		.4byte	0x53d
 1216 052d 12       		.uleb128 0x12
 1217 052e A8020000 		.4byte	0x2a8
 1218 0532 12       		.uleb128 0x12
 1219 0533 3D050000 		.4byte	0x53d
 1220 0537 12       		.uleb128 0x12
 1221 0538 2C000000 		.4byte	0x2c
 1222 053c 00       		.byte	0
 1223 053d 09       		.uleb128 0x9
 1224 053e 04       		.byte	0x4
 1225 053f 43050000 		.4byte	0x543
 1226 0543 10       		.uleb128 0x10
 1227 0544 A2000000 		.4byte	0xa2
 1228 0548 09       		.uleb128 0x9
 1229 0549 04       		.byte	0x4
 1230 054a 24050000 		.4byte	0x524
 1231 054e 11       		.uleb128 0x11
 1232 054f 2C000000 		.4byte	0x2c
 1233 0553 67050000 		.4byte	0x567
 1234 0557 12       		.uleb128 0x12
 1235 0558 A8020000 		.4byte	0x2a8
 1236 055c 12       		.uleb128 0x12
 1237 055d 08050000 		.4byte	0x508
 1238 0561 12       		.uleb128 0x12
 1239 0562 2C000000 		.4byte	0x2c
 1240 0566 00       		.byte	0
 1241 0567 09       		.uleb128 0x9
 1242 0568 04       		.byte	0x4
 1243 0569 4E050000 		.4byte	0x54e
 1244 056d 11       		.uleb128 0x11
 1245 056e 17010000 		.4byte	0x117
 1246 0572 81050000 		.4byte	0x581
 1247 0576 12       		.uleb128 0x12
ARM GAS  /tmp/ccxqjOgZ.s 			page 23


 1248 0577 A8020000 		.4byte	0x2a8
 1249 057b 12       		.uleb128 0x12
 1250 057c A2000000 		.4byte	0xa2
 1251 0580 00       		.byte	0
 1252 0581 09       		.uleb128 0x9
 1253 0582 04       		.byte	0x4
 1254 0583 6D050000 		.4byte	0x56d
 1255 0587 0D       		.uleb128 0xd
 1256 0588 AD000000 		.4byte	0xad
 1257 058c 0D       		.uleb128 0xd
 1258 058d B8000000 		.4byte	0xb8
 1259 0591 14       		.uleb128 0x14
 1260 0592 34       		.byte	0x34
 1261 0593 0C       		.byte	0xc
 1262 0594 8502     		.2byte	0x285
 1263 0596 43060000 		.4byte	0x643
 1264 059a 0C       		.uleb128 0xc
 1265 059b 435200   		.ascii	"CR\000"
 1266 059e 0C       		.byte	0xc
 1267 059f 8702     		.2byte	0x287
 1268 05a1 47030000 		.4byte	0x347
 1269 05a5 00       		.byte	0
 1270 05a6 15       		.uleb128 0x15
 1271 05a7 6A060000 		.4byte	.LASF83
 1272 05ab 0C       		.byte	0xc
 1273 05ac 8802     		.2byte	0x288
 1274 05ae 47030000 		.4byte	0x347
 1275 05b2 04       		.byte	0x4
 1276 05b3 0C       		.uleb128 0xc
 1277 05b4 43495200 		.ascii	"CIR\000"
 1278 05b8 0C       		.byte	0xc
 1279 05b9 8902     		.2byte	0x289
 1280 05bb 47030000 		.4byte	0x347
 1281 05bf 08       		.byte	0x8
 1282 05c0 15       		.uleb128 0x15
 1283 05c1 F3000000 		.4byte	.LASF84
 1284 05c5 0C       		.byte	0xc
 1285 05c6 8A02     		.2byte	0x28a
 1286 05c8 47030000 		.4byte	0x347
 1287 05cc 0C       		.byte	0xc
 1288 05cd 15       		.uleb128 0x15
 1289 05ce DF030000 		.4byte	.LASF85
 1290 05d2 0C       		.byte	0xc
 1291 05d3 8B02     		.2byte	0x28b
 1292 05d5 47030000 		.4byte	0x347
 1293 05d9 10       		.byte	0x10
 1294 05da 15       		.uleb128 0x15
 1295 05db A0060000 		.4byte	.LASF86
 1296 05df 0C       		.byte	0xc
 1297 05e0 8C02     		.2byte	0x28c
 1298 05e2 47030000 		.4byte	0x347
 1299 05e6 14       		.byte	0x14
 1300 05e7 15       		.uleb128 0x15
 1301 05e8 CF040000 		.4byte	.LASF87
 1302 05ec 0C       		.byte	0xc
 1303 05ed 8D02     		.2byte	0x28d
 1304 05ef 47030000 		.4byte	0x347
ARM GAS  /tmp/ccxqjOgZ.s 			page 24


 1305 05f3 18       		.byte	0x18
 1306 05f4 15       		.uleb128 0x15
 1307 05f5 DA050000 		.4byte	.LASF88
 1308 05f9 0C       		.byte	0xc
 1309 05fa 8E02     		.2byte	0x28e
 1310 05fc 47030000 		.4byte	0x347
 1311 0600 1C       		.byte	0x1c
 1312 0601 15       		.uleb128 0x15
 1313 0602 1B060000 		.4byte	.LASF89
 1314 0606 0C       		.byte	0xc
 1315 0607 8F02     		.2byte	0x28f
 1316 0609 47030000 		.4byte	0x347
 1317 060d 20       		.byte	0x20
 1318 060e 0C       		.uleb128 0xc
 1319 060f 43535200 		.ascii	"CSR\000"
 1320 0613 0C       		.byte	0xc
 1321 0614 9002     		.2byte	0x290
 1322 0616 47030000 		.4byte	0x347
 1323 061a 24       		.byte	0x24
 1324 061b 15       		.uleb128 0x15
 1325 061c D7030000 		.4byte	.LASF90
 1326 0620 0C       		.byte	0xc
 1327 0621 9102     		.2byte	0x291
 1328 0623 47030000 		.4byte	0x347
 1329 0627 28       		.byte	0x28
 1330 0628 15       		.uleb128 0x15
 1331 0629 2F060000 		.4byte	.LASF91
 1332 062d 0C       		.byte	0xc
 1333 062e 9202     		.2byte	0x292
 1334 0630 47030000 		.4byte	0x347
 1335 0634 2C       		.byte	0x2c
 1336 0635 15       		.uleb128 0x15
 1337 0636 35060000 		.4byte	.LASF92
 1338 063a 0C       		.byte	0xc
 1339 063b 9302     		.2byte	0x293
 1340 063d 47030000 		.4byte	0x347
 1341 0641 30       		.byte	0x30
 1342 0642 00       		.byte	0
 1343 0643 16       		.uleb128 0x16
 1344 0644 C9000000 		.4byte	.LASF93
 1345 0648 0C       		.byte	0xc
 1346 0649 9402     		.2byte	0x294
 1347 064b 91050000 		.4byte	0x591
 1348 064f 14       		.uleb128 0x14
 1349 0650 2C       		.byte	0x2c
 1350 0651 0C       		.byte	0xc
 1351 0652 1B03     		.2byte	0x31b
 1352 0654 29070000 		.4byte	0x729
 1353 0658 0C       		.uleb128 0xc
 1354 0659 43523100 		.ascii	"CR1\000"
 1355 065d 0C       		.byte	0xc
 1356 065e 1D03     		.2byte	0x31d
 1357 0660 47030000 		.4byte	0x347
 1358 0664 00       		.byte	0
 1359 0665 0C       		.uleb128 0xc
 1360 0666 43523200 		.ascii	"CR2\000"
 1361 066a 0C       		.byte	0xc
ARM GAS  /tmp/ccxqjOgZ.s 			page 25


 1362 066b 1E03     		.2byte	0x31e
 1363 066d 47030000 		.4byte	0x347
 1364 0671 04       		.byte	0x4
 1365 0672 0C       		.uleb128 0xc
 1366 0673 43523300 		.ascii	"CR3\000"
 1367 0677 0C       		.byte	0xc
 1368 0678 1F03     		.2byte	0x31f
 1369 067a 47030000 		.4byte	0x347
 1370 067e 08       		.byte	0x8
 1371 067f 0C       		.uleb128 0xc
 1372 0680 42525200 		.ascii	"BRR\000"
 1373 0684 0C       		.byte	0xc
 1374 0685 2003     		.2byte	0x320
 1375 0687 87050000 		.4byte	0x587
 1376 068b 0C       		.byte	0xc
 1377 068c 15       		.uleb128 0x15
 1378 068d 0D040000 		.4byte	.LASF94
 1379 0691 0C       		.byte	0xc
 1380 0692 2103     		.2byte	0x321
 1381 0694 AD000000 		.4byte	0xad
 1382 0698 0E       		.byte	0xe
 1383 0699 15       		.uleb128 0x15
 1384 069a A3000000 		.4byte	.LASF95
 1385 069e 0C       		.byte	0xc
 1386 069f 2203     		.2byte	0x322
 1387 06a1 87050000 		.4byte	0x587
 1388 06a5 10       		.byte	0x10
 1389 06a6 15       		.uleb128 0x15
 1390 06a7 17040000 		.4byte	.LASF96
 1391 06ab 0C       		.byte	0xc
 1392 06ac 2303     		.2byte	0x323
 1393 06ae AD000000 		.4byte	0xad
 1394 06b2 12       		.byte	0x12
 1395 06b3 15       		.uleb128 0x15
 1396 06b4 D5050000 		.4byte	.LASF97
 1397 06b8 0C       		.byte	0xc
 1398 06b9 2403     		.2byte	0x324
 1399 06bb 47030000 		.4byte	0x347
 1400 06bf 14       		.byte	0x14
 1401 06c0 0C       		.uleb128 0xc
 1402 06c1 52515200 		.ascii	"RQR\000"
 1403 06c5 0C       		.byte	0xc
 1404 06c6 2503     		.2byte	0x325
 1405 06c8 87050000 		.4byte	0x587
 1406 06cc 18       		.byte	0x18
 1407 06cd 15       		.uleb128 0x15
 1408 06ce 21040000 		.4byte	.LASF98
 1409 06d2 0C       		.byte	0xc
 1410 06d3 2603     		.2byte	0x326
 1411 06d5 AD000000 		.4byte	0xad
 1412 06d9 1A       		.byte	0x1a
 1413 06da 0C       		.uleb128 0xc
 1414 06db 49535200 		.ascii	"ISR\000"
 1415 06df 0C       		.byte	0xc
 1416 06e0 2703     		.2byte	0x327
 1417 06e2 47030000 		.4byte	0x347
 1418 06e6 1C       		.byte	0x1c
ARM GAS  /tmp/ccxqjOgZ.s 			page 26


 1419 06e7 0C       		.uleb128 0xc
 1420 06e8 49435200 		.ascii	"ICR\000"
 1421 06ec 0C       		.byte	0xc
 1422 06ed 2803     		.2byte	0x328
 1423 06ef 47030000 		.4byte	0x347
 1424 06f3 20       		.byte	0x20
 1425 06f4 0C       		.uleb128 0xc
 1426 06f5 52445200 		.ascii	"RDR\000"
 1427 06f9 0C       		.byte	0xc
 1428 06fa 2903     		.2byte	0x329
 1429 06fc 87050000 		.4byte	0x587
 1430 0700 24       		.byte	0x24
 1431 0701 15       		.uleb128 0x15
 1432 0702 2B040000 		.4byte	.LASF99
 1433 0706 0C       		.byte	0xc
 1434 0707 2A03     		.2byte	0x32a
 1435 0709 AD000000 		.4byte	0xad
 1436 070d 26       		.byte	0x26
 1437 070e 0C       		.uleb128 0xc
 1438 070f 54445200 		.ascii	"TDR\000"
 1439 0713 0C       		.byte	0xc
 1440 0714 2B03     		.2byte	0x32b
 1441 0716 87050000 		.4byte	0x587
 1442 071a 28       		.byte	0x28
 1443 071b 15       		.uleb128 0x15
 1444 071c 03050000 		.4byte	.LASF100
 1445 0720 0C       		.byte	0xc
 1446 0721 2C03     		.2byte	0x32c
 1447 0723 AD000000 		.4byte	0xad
 1448 0727 2A       		.byte	0x2a
 1449 0728 00       		.byte	0
 1450 0729 16       		.uleb128 0x16
 1451 072a FF010000 		.4byte	.LASF101
 1452 072e 0C       		.byte	0xc
 1453 072f 2D03     		.2byte	0x32d
 1454 0731 4F060000 		.4byte	0x64f
 1455 0735 11       		.uleb128 0x11
 1456 0736 17010000 		.4byte	0x117
 1457 073a 4E070000 		.4byte	0x74e
 1458 073e 12       		.uleb128 0x12
 1459 073f A8020000 		.4byte	0x2a8
 1460 0743 12       		.uleb128 0x12
 1461 0744 A2000000 		.4byte	0xa2
 1462 0748 12       		.uleb128 0x12
 1463 0749 38010000 		.4byte	0x138
 1464 074d 00       		.byte	0
 1465 074e 09       		.uleb128 0x9
 1466 074f 04       		.byte	0x4
 1467 0750 35070000 		.4byte	0x735
 1468 0754 11       		.uleb128 0x11
 1469 0755 17010000 		.4byte	0x117
 1470 0759 68070000 		.4byte	0x768
 1471 075d 12       		.uleb128 0x12
 1472 075e A8020000 		.4byte	0x2a8
 1473 0762 12       		.uleb128 0x12
 1474 0763 38010000 		.4byte	0x138
 1475 0767 00       		.byte	0
ARM GAS  /tmp/ccxqjOgZ.s 			page 27


 1476 0768 09       		.uleb128 0x9
 1477 0769 04       		.byte	0x4
 1478 076a 54070000 		.4byte	0x754
 1479 076e 11       		.uleb128 0x11
 1480 076f 2C000000 		.4byte	0x2c
 1481 0773 8C070000 		.4byte	0x78c
 1482 0777 12       		.uleb128 0x12
 1483 0778 A8020000 		.4byte	0x2a8
 1484 077c 12       		.uleb128 0x12
 1485 077d 3D050000 		.4byte	0x53d
 1486 0781 12       		.uleb128 0x12
 1487 0782 2C000000 		.4byte	0x2c
 1488 0786 12       		.uleb128 0x12
 1489 0787 38010000 		.4byte	0x138
 1490 078b 00       		.byte	0
 1491 078c 09       		.uleb128 0x9
 1492 078d 04       		.byte	0x4
 1493 078e 6E070000 		.4byte	0x76e
 1494 0792 11       		.uleb128 0x11
 1495 0793 2C000000 		.4byte	0x2c
 1496 0797 B0070000 		.4byte	0x7b0
 1497 079b 12       		.uleb128 0x12
 1498 079c A8020000 		.4byte	0x2a8
 1499 07a0 12       		.uleb128 0x12
 1500 07a1 08050000 		.4byte	0x508
 1501 07a5 12       		.uleb128 0x12
 1502 07a6 2C000000 		.4byte	0x2c
 1503 07aa 12       		.uleb128 0x12
 1504 07ab 38010000 		.4byte	0x138
 1505 07af 00       		.byte	0
 1506 07b0 09       		.uleb128 0x9
 1507 07b1 04       		.byte	0x4
 1508 07b2 92070000 		.4byte	0x792
 1509 07b6 17       		.uleb128 0x17
 1510 07b7 01       		.byte	0x1
 1511 07b8 0D       		.byte	0xd
 1512 07b9 64       		.byte	0x64
 1513 07ba D1070000 		.4byte	0x7d1
 1514 07be 18       		.uleb128 0x18
 1515 07bf F9040000 		.4byte	.LASF102
 1516 07c3 00       		.sleb128 0
 1517 07c4 18       		.uleb128 0x18
 1518 07c5 C7040000 		.4byte	.LASF103
 1519 07c9 01       		.sleb128 1
 1520 07ca 18       		.uleb128 0x18
 1521 07cb F1050000 		.4byte	.LASF104
 1522 07cf 02       		.sleb128 2
 1523 07d0 00       		.byte	0
 1524 07d1 03       		.uleb128 0x3
 1525 07d2 16050000 		.4byte	.LASF105
 1526 07d6 0D       		.byte	0xd
 1527 07d7 68       		.byte	0x68
 1528 07d8 B6070000 		.4byte	0x7b6
 1529 07dc 03       		.uleb128 0x3
 1530 07dd 20050000 		.4byte	.LASF106
 1531 07e1 0D       		.byte	0xd
 1532 07e2 6D       		.byte	0x6d
ARM GAS  /tmp/ccxqjOgZ.s 			page 28


 1533 07e3 E7070000 		.4byte	0x7e7
 1534 07e7 05       		.uleb128 0x5
 1535 07e8 20050000 		.4byte	.LASF106
 1536 07ec 7C       		.byte	0x7c
 1537 07ed 0D       		.byte	0xd
 1538 07ee 87       		.byte	0x87
 1539 07ef 5E080000 		.4byte	0x85e
 1540 07f3 07       		.uleb128 0x7
 1541 07f4 766D7400 		.ascii	"vmt\000"
 1542 07f8 0D       		.byte	0xd
 1543 07f9 89       		.byte	0x89
 1544 07fa 0F090000 		.4byte	0x90f
 1545 07fe 00       		.byte	0
 1546 07ff 06       		.uleb128 0x6
 1547 0800 C6010000 		.4byte	.LASF107
 1548 0804 0D       		.byte	0xd
 1549 0805 8A       		.byte	0x8a
 1550 0806 01040000 		.4byte	0x401
 1551 080a 04       		.byte	0x4
 1552 080b 06       		.uleb128 0x6
 1553 080c E4000000 		.4byte	.LASF108
 1554 0810 0D       		.byte	0xd
 1555 0811 8A       		.byte	0x8a
 1556 0812 D1070000 		.4byte	0x7d1
 1557 0816 08       		.byte	0x8
 1558 0817 06       		.uleb128 0x6
 1559 0818 A3010000 		.4byte	.LASF109
 1560 081c 0D       		.byte	0xd
 1561 081d 8A       		.byte	0x8a
 1562 081e 0E050000 		.4byte	0x50e
 1563 0822 0C       		.byte	0xc
 1564 0823 06       		.uleb128 0x6
 1565 0824 E5010000 		.4byte	.LASF110
 1566 0828 0D       		.byte	0xd
 1567 0829 8A       		.byte	0x8a
 1568 082a 19050000 		.4byte	0x519
 1569 082e 30       		.byte	0x30
 1570 082f 07       		.uleb128 0x7
 1571 0830 696200   		.ascii	"ib\000"
 1572 0833 0D       		.byte	0xd
 1573 0834 8A       		.byte	0x8a
 1574 0835 1A090000 		.4byte	0x91a
 1575 0839 54       		.byte	0x54
 1576 083a 07       		.uleb128 0x7
 1577 083b 6F6200   		.ascii	"ob\000"
 1578 083e 0D       		.byte	0xd
 1579 083f 8A       		.byte	0x8a
 1580 0840 1A090000 		.4byte	0x91a
 1581 0844 64       		.byte	0x64
 1582 0845 06       		.uleb128 0x6
 1583 0846 77010000 		.4byte	.LASF111
 1584 084a 0D       		.byte	0xd
 1585 084b 8A       		.byte	0x8a
 1586 084c 2A090000 		.4byte	0x92a
 1587 0850 74       		.byte	0x74
 1588 0851 06       		.uleb128 0x6
 1589 0852 6F060000 		.4byte	.LASF112
ARM GAS  /tmp/ccxqjOgZ.s 			page 29


 1590 0856 0D       		.byte	0xd
 1591 0857 8A       		.byte	0x8a
 1592 0858 C3000000 		.4byte	0xc3
 1593 085c 78       		.byte	0x78
 1594 085d 00       		.byte	0
 1595 085e 08       		.uleb128 0x8
 1596 085f 10       		.byte	0x10
 1597 0860 0E       		.byte	0xe
 1598 0861 D7       		.byte	0xd7
 1599 0862 97080000 		.4byte	0x897
 1600 0866 06       		.uleb128 0x6
 1601 0867 3D020000 		.4byte	.LASF113
 1602 086b 0E       		.byte	0xe
 1603 086c DB       		.byte	0xdb
 1604 086d C3000000 		.4byte	0xc3
 1605 0871 00       		.byte	0
 1606 0872 07       		.uleb128 0x7
 1607 0873 63723100 		.ascii	"cr1\000"
 1608 0877 0E       		.byte	0xe
 1609 0878 E0       		.byte	0xe0
 1610 0879 C3000000 		.4byte	0xc3
 1611 087d 04       		.byte	0x4
 1612 087e 07       		.uleb128 0x7
 1613 087f 63723200 		.ascii	"cr2\000"
 1614 0883 0E       		.byte	0xe
 1615 0884 E4       		.byte	0xe4
 1616 0885 C3000000 		.4byte	0xc3
 1617 0889 08       		.byte	0x8
 1618 088a 07       		.uleb128 0x7
 1619 088b 63723300 		.ascii	"cr3\000"
 1620 088f 0E       		.byte	0xe
 1621 0890 E8       		.byte	0xe8
 1622 0891 C3000000 		.4byte	0xc3
 1623 0895 0C       		.byte	0xc
 1624 0896 00       		.byte	0
 1625 0897 03       		.uleb128 0x3
 1626 0898 F0030000 		.4byte	.LASF114
 1627 089c 0E       		.byte	0xe
 1628 089d E9       		.byte	0xe9
 1629 089e 5E080000 		.4byte	0x85e
 1630 08a2 05       		.uleb128 0x5
 1631 08a3 93010000 		.4byte	.LASF115
 1632 08a7 20       		.byte	0x20
 1633 08a8 0D       		.byte	0xd
 1634 08a9 7C       		.byte	0x7c
 1635 08aa 0F090000 		.4byte	0x90f
 1636 08ae 06       		.uleb128 0x6
 1637 08af B2020000 		.4byte	.LASF116
 1638 08b3 0D       		.byte	0xd
 1639 08b4 7D       		.byte	0x7d
 1640 08b5 48050000 		.4byte	0x548
 1641 08b9 00       		.byte	0
 1642 08ba 06       		.uleb128 0x6
 1643 08bb 51050000 		.4byte	.LASF117
 1644 08bf 0D       		.byte	0xd
 1645 08c0 7D       		.byte	0x7d
 1646 08c1 67050000 		.4byte	0x567
ARM GAS  /tmp/ccxqjOgZ.s 			page 30


 1647 08c5 04       		.byte	0x4
 1648 08c6 07       		.uleb128 0x7
 1649 08c7 70757400 		.ascii	"put\000"
 1650 08cb 0D       		.byte	0xd
 1651 08cc 7D       		.byte	0x7d
 1652 08cd 81050000 		.4byte	0x581
 1653 08d1 08       		.byte	0x8
 1654 08d2 07       		.uleb128 0x7
 1655 08d3 67657400 		.ascii	"get\000"
 1656 08d7 0D       		.byte	0xd
 1657 08d8 7D       		.byte	0x7d
 1658 08d9 59040000 		.4byte	0x459
 1659 08dd 0C       		.byte	0xc
 1660 08de 06       		.uleb128 0x6
 1661 08df B8020000 		.4byte	.LASF118
 1662 08e3 0D       		.byte	0xd
 1663 08e4 7D       		.byte	0x7d
 1664 08e5 4E070000 		.4byte	0x74e
 1665 08e9 10       		.byte	0x10
 1666 08ea 06       		.uleb128 0x6
 1667 08eb C1010000 		.4byte	.LASF119
 1668 08ef 0D       		.byte	0xd
 1669 08f0 7D       		.byte	0x7d
 1670 08f1 68070000 		.4byte	0x768
 1671 08f5 14       		.byte	0x14
 1672 08f6 06       		.uleb128 0x6
 1673 08f7 0D020000 		.4byte	.LASF120
 1674 08fb 0D       		.byte	0xd
 1675 08fc 7D       		.byte	0x7d
 1676 08fd 8C070000 		.4byte	0x78c
 1677 0901 18       		.byte	0x18
 1678 0902 06       		.uleb128 0x6
 1679 0903 79000000 		.4byte	.LASF121
 1680 0907 0D       		.byte	0xd
 1681 0908 7D       		.byte	0x7d
 1682 0909 B0070000 		.4byte	0x7b0
 1683 090d 1C       		.byte	0x1c
 1684 090e 00       		.byte	0
 1685 090f 09       		.uleb128 0x9
 1686 0910 04       		.byte	0x4
 1687 0911 15090000 		.4byte	0x915
 1688 0915 10       		.uleb128 0x10
 1689 0916 A2080000 		.4byte	0x8a2
 1690 091a 19       		.uleb128 0x19
 1691 091b A2000000 		.4byte	0xa2
 1692 091f 2A090000 		.4byte	0x92a
 1693 0923 1A       		.uleb128 0x1a
 1694 0924 4C030000 		.4byte	0x34c
 1695 0928 0F       		.byte	0xf
 1696 0929 00       		.byte	0
 1697 092a 09       		.uleb128 0x9
 1698 092b 04       		.byte	0x4
 1699 092c 29070000 		.4byte	0x729
 1700 0930 1B       		.uleb128 0x1b
 1701 0931 BD020000 		.4byte	.LASF123
 1702 0935 01       		.byte	0x1
 1703 0936 5C       		.byte	0x5c
ARM GAS  /tmp/ccxqjOgZ.s 			page 31


 1704 0937 01       		.byte	0x1
 1705 0938 5C090000 		.4byte	0x95c
 1706 093c 1C       		.uleb128 0x1c
 1707 093d 73647000 		.ascii	"sdp\000"
 1708 0941 01       		.byte	0x1
 1709 0942 5C       		.byte	0x5c
 1710 0943 5C090000 		.4byte	0x95c
 1711 0947 1D       		.uleb128 0x1d
 1712 0948 6B050000 		.4byte	.LASF122
 1713 094c 01       		.byte	0x1
 1714 094d 5C       		.byte	0x5c
 1715 094e 62090000 		.4byte	0x962
 1716 0952 1E       		.uleb128 0x1e
 1717 0953 7500     		.ascii	"u\000"
 1718 0955 01       		.byte	0x1
 1719 0956 5D       		.byte	0x5d
 1720 0957 2A090000 		.4byte	0x92a
 1721 095b 00       		.byte	0
 1722 095c 09       		.uleb128 0x9
 1723 095d 04       		.byte	0x4
 1724 095e DC070000 		.4byte	0x7dc
 1725 0962 09       		.uleb128 0x9
 1726 0963 04       		.byte	0x4
 1727 0964 68090000 		.4byte	0x968
 1728 0968 10       		.uleb128 0x10
 1729 0969 97080000 		.4byte	0x897
 1730 096d 1B       		.uleb128 0x1b
 1731 096e 5E010000 		.4byte	.LASF124
 1732 0972 01       		.byte	0x1
 1733 0973 71       		.byte	0x71
 1734 0974 01       		.byte	0x1
 1735 0975 83090000 		.4byte	0x983
 1736 0979 1C       		.uleb128 0x1c
 1737 097a 7500     		.ascii	"u\000"
 1738 097c 01       		.byte	0x1
 1739 097d 71       		.byte	0x71
 1740 097e 2A090000 		.4byte	0x92a
 1741 0982 00       		.byte	0
 1742 0983 1B       		.uleb128 0x1b
 1743 0984 24000000 		.4byte	.LASF125
 1744 0988 01       		.byte	0x1
 1745 0989 7E       		.byte	0x7e
 1746 098a 01       		.byte	0x1
 1747 098b CF090000 		.4byte	0x9cf
 1748 098f 1C       		.uleb128 0x1c
 1749 0990 73647000 		.ascii	"sdp\000"
 1750 0994 01       		.byte	0x1
 1751 0995 7E       		.byte	0x7e
 1752 0996 5C090000 		.4byte	0x95c
 1753 099a 1C       		.uleb128 0x1c
 1754 099b 69737200 		.ascii	"isr\000"
 1755 099f 01       		.byte	0x1
 1756 09a0 7E       		.byte	0x7e
 1757 09a1 C3000000 		.4byte	0xc3
 1758 09a5 1E       		.uleb128 0x1e
 1759 09a6 73747300 		.ascii	"sts\000"
 1760 09aa 01       		.byte	0x1
ARM GAS  /tmp/ccxqjOgZ.s 			page 32


 1761 09ab 7F       		.byte	0x7f
 1762 09ac 2D010000 		.4byte	0x12d
 1763 09b0 1F       		.uleb128 0x1f
 1764 09b1 C1090000 		.4byte	0x9c1
 1765 09b5 1E       		.uleb128 0x1e
 1766 09b6 746D7000 		.ascii	"tmp\000"
 1767 09ba 01       		.byte	0x1
 1768 09bb 89       		.byte	0x89
 1769 09bc C3000000 		.4byte	0xc3
 1770 09c0 00       		.byte	0
 1771 09c1 20       		.uleb128 0x20
 1772 09c2 1E       		.uleb128 0x1e
 1773 09c3 746D7000 		.ascii	"tmp\000"
 1774 09c7 01       		.byte	0x1
 1775 09c8 8B       		.byte	0x8b
 1776 09c9 C3000000 		.4byte	0xc3
 1777 09cd 00       		.byte	0
 1778 09ce 00       		.byte	0
 1779 09cf 1B       		.uleb128 0x1b
 1780 09d0 DE040000 		.4byte	.LASF126
 1781 09d4 01       		.byte	0x1
 1782 09d5 93       		.byte	0x93
 1783 09d6 01       		.byte	0x1
 1784 09d7 950A0000 		.4byte	0xa95
 1785 09db 1C       		.uleb128 0x1c
 1786 09dc 73647000 		.ascii	"sdp\000"
 1787 09e0 01       		.byte	0x1
 1788 09e1 93       		.byte	0x93
 1789 09e2 5C090000 		.4byte	0x95c
 1790 09e6 1E       		.uleb128 0x1e
 1791 09e7 7500     		.ascii	"u\000"
 1792 09e9 01       		.byte	0x1
 1793 09ea 94       		.byte	0x94
 1794 09eb 2A090000 		.4byte	0x92a
 1795 09ef 1E       		.uleb128 0x1e
 1796 09f0 63723100 		.ascii	"cr1\000"
 1797 09f4 01       		.byte	0x1
 1798 09f5 95       		.byte	0x95
 1799 09f6 C3000000 		.4byte	0xc3
 1800 09fa 1E       		.uleb128 0x1e
 1801 09fb 69737200 		.ascii	"isr\000"
 1802 09ff 01       		.byte	0x1
 1803 0a00 96       		.byte	0x96
 1804 0a01 C3000000 		.4byte	0xc3
 1805 0a05 1F       		.uleb128 0x1f
 1806 0a06 160A0000 		.4byte	0xa16
 1807 0a0a 1E       		.uleb128 0x1e
 1808 0a0b 746D7000 		.ascii	"tmp\000"
 1809 0a0f 01       		.byte	0x1
 1810 0a10 A2       		.byte	0xa2
 1811 0a11 C3000000 		.4byte	0xc3
 1812 0a15 00       		.byte	0
 1813 0a16 1F       		.uleb128 0x1f
 1814 0a17 270A0000 		.4byte	0xa27
 1815 0a1b 1E       		.uleb128 0x1e
 1816 0a1c 746D7000 		.ascii	"tmp\000"
 1817 0a20 01       		.byte	0x1
ARM GAS  /tmp/ccxqjOgZ.s 			page 33


 1818 0a21 A4       		.byte	0xa4
 1819 0a22 C3000000 		.4byte	0xc3
 1820 0a26 00       		.byte	0
 1821 0a27 1F       		.uleb128 0x1f
 1822 0a28 380A0000 		.4byte	0xa38
 1823 0a2c 1E       		.uleb128 0x1e
 1824 0a2d 746D7000 		.ascii	"tmp\000"
 1825 0a31 01       		.byte	0x1
 1826 0a32 A9       		.byte	0xa9
 1827 0a33 C3000000 		.4byte	0xc3
 1828 0a37 00       		.byte	0
 1829 0a38 1F       		.uleb128 0x1f
 1830 0a39 490A0000 		.4byte	0xa49
 1831 0a3d 1E       		.uleb128 0x1e
 1832 0a3e 746D7000 		.ascii	"tmp\000"
 1833 0a42 01       		.byte	0x1
 1834 0a43 AB       		.byte	0xab
 1835 0a44 C3000000 		.4byte	0xc3
 1836 0a48 00       		.byte	0
 1837 0a49 1F       		.uleb128 0x1f
 1838 0a4a 760A0000 		.4byte	0xa76
 1839 0a4e 1E       		.uleb128 0x1e
 1840 0a4f 6200     		.ascii	"b\000"
 1841 0a51 01       		.byte	0x1
 1842 0a52 B0       		.byte	0xb0
 1843 0a53 17010000 		.4byte	0x117
 1844 0a57 1F       		.uleb128 0x1f
 1845 0a58 680A0000 		.4byte	0xa68
 1846 0a5c 1E       		.uleb128 0x1e
 1847 0a5d 746D7000 		.ascii	"tmp\000"
 1848 0a61 01       		.byte	0x1
 1849 0a62 B1       		.byte	0xb1
 1850 0a63 C3000000 		.4byte	0xc3
 1851 0a67 00       		.byte	0
 1852 0a68 20       		.uleb128 0x20
 1853 0a69 1E       		.uleb128 0x1e
 1854 0a6a 746D7000 		.ascii	"tmp\000"
 1855 0a6e 01       		.byte	0x1
 1856 0a6f B9       		.byte	0xb9
 1857 0a70 C3000000 		.4byte	0xc3
 1858 0a74 00       		.byte	0
 1859 0a75 00       		.byte	0
 1860 0a76 1F       		.uleb128 0x1f
 1861 0a77 870A0000 		.4byte	0xa87
 1862 0a7b 1E       		.uleb128 0x1e
 1863 0a7c 746D7000 		.ascii	"tmp\000"
 1864 0a80 01       		.byte	0x1
 1865 0a81 BE       		.byte	0xbe
 1866 0a82 C3000000 		.4byte	0xc3
 1867 0a86 00       		.byte	0
 1868 0a87 20       		.uleb128 0x20
 1869 0a88 1E       		.uleb128 0x1e
 1870 0a89 746D7000 		.ascii	"tmp\000"
 1871 0a8d 01       		.byte	0x1
 1872 0a8e C2       		.byte	0xc2
 1873 0a8f C3000000 		.4byte	0xc3
 1874 0a93 00       		.byte	0
ARM GAS  /tmp/ccxqjOgZ.s 			page 34


 1875 0a94 00       		.byte	0
 1876 0a95 21       		.uleb128 0x21
 1877 0a96 FD030000 		.4byte	.LASF139
 1878 0a9a 01       		.byte	0x1
 1879 0a9b C7       		.byte	0xc7
 1880 0a9c 00000000 		.4byte	.LFB122
 1881 0aa0 10000000 		.4byte	.LFE122-.LFB122
 1882 0aa4 01       		.uleb128 0x1
 1883 0aa5 9C       		.byte	0x9c
 1884 0aa6 B70A0000 		.4byte	0xab7
 1885 0aaa 22       		.uleb128 0x22
 1886 0aab 717000   		.ascii	"qp\000"
 1887 0aae 01       		.byte	0x1
 1888 0aaf C7       		.byte	0xc7
 1889 0ab0 02050000 		.4byte	0x502
 1890 0ab4 01       		.uleb128 0x1
 1891 0ab5 50       		.byte	0x50
 1892 0ab6 00       		.byte	0
 1893 0ab7 23       		.uleb128 0x23
 1894 0ab8 34020000 		.4byte	.LASF127
 1895 0abc 01       		.byte	0x1
 1896 0abd 0301     		.2byte	0x103
 1897 0abf 00000000 		.4byte	.LFB123
 1898 0ac3 FC000000 		.4byte	.LFE123-.LFB123
 1899 0ac7 01       		.uleb128 0x1
 1900 0ac8 9C       		.byte	0x9c
 1901 0ac9 C00C0000 		.4byte	0xcc0
 1902 0acd 24       		.uleb128 0x24
 1903 0ace CF090000 		.4byte	0x9cf
 1904 0ad2 02000000 		.4byte	.LBB32
 1905 0ad6 00000000 		.4byte	.Ldebug_ranges0+0
 1906 0ada 01       		.byte	0x1
 1907 0adb 0701     		.2byte	0x107
 1908 0add B60C0000 		.4byte	0xcb6
 1909 0ae1 25       		.uleb128 0x25
 1910 0ae2 DB090000 		.4byte	0x9db
 1911 0ae6 06       		.uleb128 0x6
 1912 0ae7 03       		.byte	0x3
 1913 0ae8 00000000 		.4byte	SD1
 1914 0aec 9F       		.byte	0x9f
 1915 0aed 26       		.uleb128 0x26
 1916 0aee 00000000 		.4byte	.Ldebug_ranges0+0
 1917 0af2 27       		.uleb128 0x27
 1918 0af3 E6090000 		.4byte	0x9e6
 1919 0af7 00000000 		.4byte	.LLST0
 1920 0afb 27       		.uleb128 0x27
 1921 0afc EF090000 		.4byte	0x9ef
 1922 0b00 1E000000 		.4byte	.LLST1
 1923 0b04 27       		.uleb128 0x27
 1924 0b05 FA090000 		.4byte	0x9fa
 1925 0b09 3C000000 		.4byte	.LLST2
 1926 0b0d 28       		.uleb128 0x28
 1927 0b0e 24000000 		.4byte	.LBB34
 1928 0b12 06000000 		.4byte	.LBE34-.LBB34
 1929 0b16 220B0000 		.4byte	0xb22
 1930 0b1a 29       		.uleb128 0x29
 1931 0b1b 7B0A0000 		.4byte	0xa7b
ARM GAS  /tmp/ccxqjOgZ.s 			page 35


 1932 0b1f 01       		.uleb128 0x1
 1933 0b20 53       		.byte	0x53
 1934 0b21 00       		.byte	0
 1935 0b22 28       		.uleb128 0x28
 1936 0b23 3A000000 		.4byte	.LBB35
 1937 0b27 06000000 		.4byte	.LBE35-.LBB35
 1938 0b2b 370B0000 		.4byte	0xb37
 1939 0b2f 29       		.uleb128 0x29
 1940 0b30 880A0000 		.4byte	0xa88
 1941 0b34 01       		.uleb128 0x1
 1942 0b35 53       		.byte	0x53
 1943 0b36 00       		.byte	0
 1944 0b37 28       		.uleb128 0x28
 1945 0b38 48000000 		.4byte	.LBB36
 1946 0b3c 06000000 		.4byte	.LBE36-.LBB36
 1947 0b40 4C0B0000 		.4byte	0xb4c
 1948 0b44 29       		.uleb128 0x29
 1949 0b45 2C0A0000 		.4byte	0xa2c
 1950 0b49 01       		.uleb128 0x1
 1951 0b4a 53       		.byte	0x53
 1952 0b4b 00       		.byte	0
 1953 0b4c 28       		.uleb128 0x28
 1954 0b4d 58000000 		.4byte	.LBB37
 1955 0b51 08000000 		.4byte	.LBE37-.LBB37
 1956 0b55 610B0000 		.4byte	0xb61
 1957 0b59 29       		.uleb128 0x29
 1958 0b5a 3D0A0000 		.4byte	0xa3d
 1959 0b5e 01       		.uleb128 0x1
 1960 0b5f 53       		.byte	0x53
 1961 0b60 00       		.byte	0
 1962 0b61 28       		.uleb128 0x28
 1963 0b62 60000000 		.4byte	.LBB38
 1964 0b66 06000000 		.4byte	.LBE38-.LBB38
 1965 0b6a 760B0000 		.4byte	0xb76
 1966 0b6e 29       		.uleb128 0x29
 1967 0b6f 0A0A0000 		.4byte	0xa0a
 1968 0b73 01       		.uleb128 0x1
 1969 0b74 53       		.byte	0x53
 1970 0b75 00       		.byte	0
 1971 0b76 28       		.uleb128 0x28
 1972 0b77 70000000 		.4byte	.LBB39
 1973 0b7b 08000000 		.4byte	.LBE39-.LBB39
 1974 0b7f 8B0B0000 		.4byte	0xb8b
 1975 0b83 29       		.uleb128 0x29
 1976 0b84 1B0A0000 		.4byte	0xa1b
 1977 0b88 01       		.uleb128 0x1
 1978 0b89 53       		.byte	0x53
 1979 0b8a 00       		.byte	0
 1980 0b8b 2A       		.uleb128 0x2a
 1981 0b8c 83090000 		.4byte	0x983
 1982 0b90 78000000 		.4byte	.LBB40
 1983 0b94 36000000 		.4byte	.LBE40-.LBB40
 1984 0b98 01       		.byte	0x1
 1985 0b99 9E       		.byte	0x9e
 1986 0b9a 010C0000 		.4byte	0xc01
 1987 0b9e 2B       		.uleb128 0x2b
 1988 0b9f 8F090000 		.4byte	0x98f
ARM GAS  /tmp/ccxqjOgZ.s 			page 36


 1989 0ba3 5A000000 		.4byte	.LLST3
 1990 0ba7 2B       		.uleb128 0x2b
 1991 0ba8 9A090000 		.4byte	0x99a
 1992 0bac 72000000 		.4byte	.LLST4
 1993 0bb0 2C       		.uleb128 0x2c
 1994 0bb1 78000000 		.4byte	.LBB41
 1995 0bb5 36000000 		.4byte	.LBE41-.LBB41
 1996 0bb9 27       		.uleb128 0x27
 1997 0bba A5090000 		.4byte	0x9a5
 1998 0bbe 85000000 		.4byte	.LLST5
 1999 0bc2 28       		.uleb128 0x28
 2000 0bc3 9A000000 		.4byte	.LBB42
 2001 0bc7 06000000 		.4byte	.LBE42-.LBB42
 2002 0bcb D70B0000 		.4byte	0xbd7
 2003 0bcf 29       		.uleb128 0x29
 2004 0bd0 B5090000 		.4byte	0x9b5
 2005 0bd4 01       		.uleb128 0x1
 2006 0bd5 53       		.byte	0x53
 2007 0bd6 00       		.byte	0
 2008 0bd7 28       		.uleb128 0x28
 2009 0bd8 A6000000 		.4byte	.LBB43
 2010 0bdc 08000000 		.4byte	.LBE43-.LBB43
 2011 0be0 EC0B0000 		.4byte	0xbec
 2012 0be4 29       		.uleb128 0x29
 2013 0be5 C2090000 		.4byte	0x9c2
 2014 0be9 01       		.uleb128 0x1
 2015 0bea 53       		.byte	0x53
 2016 0beb 00       		.byte	0
 2017 0bec 2D       		.uleb128 0x2d
 2018 0bed A6000000 		.4byte	.LVL15
 2019 0bf1 080E0000 		.4byte	0xe08
 2020 0bf5 2E       		.uleb128 0x2e
 2021 0bf6 01       		.uleb128 0x1
 2022 0bf7 50       		.byte	0x50
 2023 0bf8 05       		.uleb128 0x5
 2024 0bf9 03       		.byte	0x3
 2025 0bfa 04000000 		.4byte	.LANCHOR0+4
 2026 0bfe 00       		.byte	0
 2027 0bff 00       		.byte	0
 2028 0c00 00       		.byte	0
 2029 0c01 2F       		.uleb128 0x2f
 2030 0c02 18000000 		.4byte	.Ldebug_ranges0+0x18
 2031 0c06 6D0C0000 		.4byte	0xc6d
 2032 0c0a 27       		.uleb128 0x27
 2033 0c0b 4E0A0000 		.4byte	0xa4e
 2034 0c0f A4000000 		.4byte	.LLST6
 2035 0c13 28       		.uleb128 0x28
 2036 0c14 AE000000 		.4byte	.LBB45
 2037 0c18 06000000 		.4byte	.LBE45-.LBB45
 2038 0c1c 280C0000 		.4byte	0xc28
 2039 0c20 29       		.uleb128 0x29
 2040 0c21 5C0A0000 		.4byte	0xa5c
 2041 0c25 01       		.uleb128 0x1
 2042 0c26 53       		.byte	0x53
 2043 0c27 00       		.byte	0
 2044 0c28 28       		.uleb128 0x28
 2045 0c29 C2000000 		.4byte	.LBB46
ARM GAS  /tmp/ccxqjOgZ.s 			page 37


 2046 0c2d 08000000 		.4byte	.LBE46-.LBB46
 2047 0c31 3D0C0000 		.4byte	0xc3d
 2048 0c35 29       		.uleb128 0x29
 2049 0c36 690A0000 		.4byte	0xa69
 2050 0c3a 01       		.uleb128 0x1
 2051 0c3b 53       		.byte	0x53
 2052 0c3c 00       		.byte	0
 2053 0c3d 30       		.uleb128 0x30
 2054 0c3e BA000000 		.4byte	.LVL17
 2055 0c42 240E0000 		.4byte	0xe24
 2056 0c46 540C0000 		.4byte	0xc54
 2057 0c4a 2E       		.uleb128 0x2e
 2058 0c4b 01       		.uleb128 0x1
 2059 0c4c 50       		.byte	0x50
 2060 0c4d 05       		.uleb128 0x5
 2061 0c4e 03       		.byte	0x3
 2062 0c4f 30000000 		.4byte	.LANCHOR0+48
 2063 0c53 00       		.byte	0
 2064 0c54 2D       		.uleb128 0x2d
 2065 0c55 E2000000 		.4byte	.LVL22
 2066 0c59 080E0000 		.4byte	0xe08
 2067 0c5d 2E       		.uleb128 0x2e
 2068 0c5e 01       		.uleb128 0x1
 2069 0c5f 51       		.byte	0x51
 2070 0c60 01       		.uleb128 0x1
 2071 0c61 38       		.byte	0x38
 2072 0c62 2E       		.uleb128 0x2e
 2073 0c63 01       		.uleb128 0x1
 2074 0c64 50       		.byte	0x50
 2075 0c65 05       		.uleb128 0x5
 2076 0c66 03       		.byte	0x3
 2077 0c67 04000000 		.4byte	.LANCHOR0+4
 2078 0c6b 00       		.byte	0
 2079 0c6c 00       		.byte	0
 2080 0c6d 30       		.uleb128 0x30
 2081 0c6e 58000000 		.4byte	.LVL8
 2082 0c72 400E0000 		.4byte	0xe40
 2083 0c76 810C0000 		.4byte	0xc81
 2084 0c7a 2E       		.uleb128 0x2e
 2085 0c7b 01       		.uleb128 0x1
 2086 0c7c 50       		.byte	0x50
 2087 0c7d 02       		.uleb128 0x2
 2088 0c7e 77       		.byte	0x77
 2089 0c7f 00       		.sleb128 0
 2090 0c80 00       		.byte	0
 2091 0c81 30       		.uleb128 0x30
 2092 0c82 70000000 		.4byte	.LVL9
 2093 0c86 080E0000 		.4byte	0xe08
 2094 0c8a 9F0C0000 		.4byte	0xc9f
 2095 0c8e 2E       		.uleb128 0x2e
 2096 0c8f 01       		.uleb128 0x1
 2097 0c90 51       		.byte	0x51
 2098 0c91 03       		.uleb128 0x3
 2099 0c92 0A       		.byte	0xa
 2100 0c93 0002     		.2byte	0x200
 2101 0c95 2E       		.uleb128 0x2e
 2102 0c96 01       		.uleb128 0x1
ARM GAS  /tmp/ccxqjOgZ.s 			page 38


 2103 0c97 50       		.byte	0x50
 2104 0c98 05       		.uleb128 0x5
 2105 0c99 03       		.byte	0x3
 2106 0c9a 04000000 		.4byte	.LANCHOR0+4
 2107 0c9e 00       		.byte	0
 2108 0c9f 2D       		.uleb128 0x2d
 2109 0ca0 D8000000 		.4byte	.LVL19
 2110 0ca4 080E0000 		.4byte	0xe08
 2111 0ca8 2E       		.uleb128 0x2e
 2112 0ca9 01       		.uleb128 0x1
 2113 0caa 51       		.byte	0x51
 2114 0cab 01       		.uleb128 0x1
 2115 0cac 40       		.byte	0x40
 2116 0cad 2E       		.uleb128 0x2e
 2117 0cae 01       		.uleb128 0x1
 2118 0caf 50       		.byte	0x50
 2119 0cb0 02       		.uleb128 0x2
 2120 0cb1 77       		.byte	0x77
 2121 0cb2 04       		.sleb128 4
 2122 0cb3 00       		.byte	0
 2123 0cb4 00       		.byte	0
 2124 0cb5 00       		.byte	0
 2125 0cb6 31       		.uleb128 0x31
 2126 0cb7 48000000 		.4byte	.LVL7
 2127 0cbb 570E0000 		.4byte	0xe57
 2128 0cbf 00       		.byte	0
 2129 0cc0 23       		.uleb128 0x23
 2130 0cc1 B5010000 		.4byte	.LASF128
 2131 0cc5 01       		.byte	0x1
 2132 0cc6 7501     		.2byte	0x175
 2133 0cc8 00000000 		.4byte	.LFB124
 2134 0ccc 28000000 		.4byte	.LFE124-.LFB124
 2135 0cd0 01       		.uleb128 0x1
 2136 0cd1 9C       		.byte	0x9c
 2137 0cd2 F50C0000 		.4byte	0xcf5
 2138 0cd6 2D       		.uleb128 0x2d
 2139 0cd7 0E000000 		.4byte	.LVL23
 2140 0cdb 5F0E0000 		.4byte	0xe5f
 2141 0cdf 2E       		.uleb128 0x2e
 2142 0ce0 01       		.uleb128 0x1
 2143 0ce1 52       		.byte	0x52
 2144 0ce2 05       		.uleb128 0x5
 2145 0ce3 03       		.byte	0x3
 2146 0ce4 00000000 		.4byte	notify1
 2147 0ce8 2E       		.uleb128 0x2e
 2148 0ce9 01       		.uleb128 0x1
 2149 0cea 51       		.byte	0x51
 2150 0ceb 01       		.uleb128 0x1
 2151 0cec 30       		.byte	0x30
 2152 0ced 2E       		.uleb128 0x2e
 2153 0cee 01       		.uleb128 0x1
 2154 0cef 50       		.byte	0x50
 2155 0cf0 02       		.uleb128 0x2
 2156 0cf1 74       		.byte	0x74
 2157 0cf2 00       		.sleb128 0
 2158 0cf3 00       		.byte	0
 2159 0cf4 00       		.byte	0
ARM GAS  /tmp/ccxqjOgZ.s 			page 39


 2160 0cf5 23       		.uleb128 0x23
 2161 0cf6 68040000 		.4byte	.LASF129
 2162 0cfa 01       		.byte	0x1
 2163 0cfb A601     		.2byte	0x1a6
 2164 0cfd 00000000 		.4byte	.LFB125
 2165 0d01 6C000000 		.4byte	.LFE125-.LFB125
 2166 0d05 01       		.uleb128 0x1
 2167 0d06 9C       		.byte	0x9c
 2168 0d07 850D0000 		.4byte	0xd85
 2169 0d0b 32       		.uleb128 0x32
 2170 0d0c 73647000 		.ascii	"sdp\000"
 2171 0d10 01       		.byte	0x1
 2172 0d11 A601     		.2byte	0x1a6
 2173 0d13 5C090000 		.4byte	0x95c
 2174 0d17 C2000000 		.4byte	.LLST7
 2175 0d1b 33       		.uleb128 0x33
 2176 0d1c 6B050000 		.4byte	.LASF122
 2177 0d20 01       		.byte	0x1
 2178 0d21 A601     		.2byte	0x1a6
 2179 0d23 62090000 		.4byte	0x962
 2180 0d27 F6000000 		.4byte	.LLST8
 2181 0d2b 34       		.uleb128 0x34
 2182 0d2c 30090000 		.4byte	0x930
 2183 0d30 12000000 		.4byte	.LBB50
 2184 0d34 32000000 		.4byte	.LBE50-.LBB50
 2185 0d38 01       		.byte	0x1
 2186 0d39 D701     		.2byte	0x1d7
 2187 0d3b 6E0D0000 		.4byte	0xd6e
 2188 0d3f 2B       		.uleb128 0x2b
 2189 0d40 3C090000 		.4byte	0x93c
 2190 0d44 3C010000 		.4byte	.LLST9
 2191 0d48 2B       		.uleb128 0x2b
 2192 0d49 3C090000 		.4byte	0x93c
 2193 0d4d 3C010000 		.4byte	.LLST9
 2194 0d51 2B       		.uleb128 0x2b
 2195 0d52 47090000 		.4byte	0x947
 2196 0d56 4F010000 		.4byte	.LLST11
 2197 0d5a 2C       		.uleb128 0x2c
 2198 0d5b 12000000 		.4byte	.LBB51
 2199 0d5f 32000000 		.4byte	.LBE51-.LBB51
 2200 0d63 27       		.uleb128 0x27
 2201 0d64 52090000 		.4byte	0x952
 2202 0d68 7F010000 		.4byte	.LLST12
 2203 0d6c 00       		.byte	0
 2204 0d6d 00       		.byte	0
 2205 0d6e 2D       		.uleb128 0x2d
 2206 0d6f 5C000000 		.4byte	.LVL31
 2207 0d73 7B0E0000 		.4byte	0xe7b
 2208 0d77 2E       		.uleb128 0x2e
 2209 0d78 01       		.uleb128 0x1
 2210 0d79 51       		.byte	0x51
 2211 0d7a 02       		.uleb128 0x2
 2212 0d7b 08       		.byte	0x8
 2213 0d7c C0       		.byte	0xc0
 2214 0d7d 2E       		.uleb128 0x2e
 2215 0d7e 01       		.uleb128 0x1
 2216 0d7f 50       		.byte	0x50
ARM GAS  /tmp/ccxqjOgZ.s 			page 40


 2217 0d80 02       		.uleb128 0x2
 2218 0d81 08       		.byte	0x8
 2219 0d82 25       		.byte	0x25
 2220 0d83 00       		.byte	0
 2221 0d84 00       		.byte	0
 2222 0d85 23       		.uleb128 0x23
 2223 0d86 75060000 		.4byte	.LASF130
 2224 0d8a 01       		.byte	0x1
 2225 0d8b E301     		.2byte	0x1e3
 2226 0d8d 00000000 		.4byte	.LFB126
 2227 0d91 34000000 		.4byte	.LFE126-.LFB126
 2228 0d95 01       		.uleb128 0x1
 2229 0d96 9C       		.byte	0x9c
 2230 0d97 DA0D0000 		.4byte	0xdda
 2231 0d9b 32       		.uleb128 0x32
 2232 0d9c 73647000 		.ascii	"sdp\000"
 2233 0da0 01       		.byte	0x1
 2234 0da1 E301     		.2byte	0x1e3
 2235 0da3 5C090000 		.4byte	0x95c
 2236 0da7 92010000 		.4byte	.LLST13
 2237 0dab 24       		.uleb128 0x24
 2238 0dac 6D090000 		.4byte	0x96d
 2239 0db0 0C000000 		.4byte	.LBB52
 2240 0db4 30000000 		.4byte	.Ldebug_ranges0+0x30
 2241 0db8 01       		.byte	0x1
 2242 0db9 E601     		.2byte	0x1e6
 2243 0dbb C90D0000 		.4byte	0xdc9
 2244 0dbf 2B       		.uleb128 0x2b
 2245 0dc0 79090000 		.4byte	0x979
 2246 0dc4 B3010000 		.4byte	.LLST14
 2247 0dc8 00       		.byte	0
 2248 0dc9 35       		.uleb128 0x35
 2249 0dca 2E000000 		.4byte	.LVL36
 2250 0dce 920E0000 		.4byte	0xe92
 2251 0dd2 2E       		.uleb128 0x2e
 2252 0dd3 01       		.uleb128 0x1
 2253 0dd4 50       		.byte	0x50
 2254 0dd5 02       		.uleb128 0x2
 2255 0dd6 08       		.byte	0x8
 2256 0dd7 25       		.byte	0x25
 2257 0dd8 00       		.byte	0
 2258 0dd9 00       		.byte	0
 2259 0dda 36       		.uleb128 0x36
 2260 0ddb D5000000 		.4byte	.LASF140
 2261 0ddf 01       		.byte	0x1
 2262 0de0 49       		.byte	0x49
 2263 0de1 68090000 		.4byte	0x968
 2264 0de5 05       		.uleb128 0x5
 2265 0de6 03       		.byte	0x3
 2266 0de7 00000000 		.4byte	default_config
 2267 0deb 37       		.uleb128 0x37
 2268 0dec 5F000000 		.4byte	.LASF131
 2269 0df0 10       		.byte	0x10
 2270 0df1 9806     		.2byte	0x698
 2271 0df3 8C050000 		.4byte	0x58c
 2272 0df7 38       		.uleb128 0x38
 2273 0df8 53443100 		.ascii	"SD1\000"
ARM GAS  /tmp/ccxqjOgZ.s 			page 41


 2274 0dfc 01       		.byte	0x1
 2275 0dfd 28       		.byte	0x28
 2276 0dfe DC070000 		.4byte	0x7dc
 2277 0e02 05       		.uleb128 0x5
 2278 0e03 03       		.byte	0x3
 2279 0e04 00000000 		.4byte	SD1
 2280 0e08 39       		.uleb128 0x39
 2281 0e09 2D010000 		.4byte	.LASF132
 2282 0e0d 0A       		.byte	0xa
 2283 0e0e BA       		.byte	0xba
 2284 0e0f 1E0E0000 		.4byte	0xe1e
 2285 0e13 12       		.uleb128 0x12
 2286 0e14 1E0E0000 		.4byte	0xe1e
 2287 0e18 12       		.uleb128 0x12
 2288 0e19 2D010000 		.4byte	0x12d
 2289 0e1d 00       		.byte	0
 2290 0e1e 09       		.uleb128 0x9
 2291 0e1f 04       		.byte	0x4
 2292 0e20 01040000 		.4byte	0x401
 2293 0e24 3A       		.uleb128 0x3a
 2294 0e25 05010000 		.4byte	.LASF141
 2295 0e29 0B       		.byte	0xb
 2296 0e2a 6E01     		.2byte	0x16e
 2297 0e2c 17010000 		.4byte	0x117
 2298 0e30 3A0E0000 		.4byte	0xe3a
 2299 0e34 12       		.uleb128 0x12
 2300 0e35 3A0E0000 		.4byte	0xe3a
 2301 0e39 00       		.byte	0
 2302 0e3a 09       		.uleb128 0x9
 2303 0e3b 04       		.byte	0x4
 2304 0e3c 19050000 		.4byte	0x519
 2305 0e40 3B       		.uleb128 0x3b
 2306 0e41 5B050000 		.4byte	.LASF133
 2307 0e45 0D       		.byte	0xd
 2308 0e46 3901     		.2byte	0x139
 2309 0e48 570E0000 		.4byte	0xe57
 2310 0e4c 12       		.uleb128 0x12
 2311 0e4d 5C090000 		.4byte	0x95c
 2312 0e51 12       		.uleb128 0x12
 2313 0e52 A2000000 		.4byte	0xa2
 2314 0e56 00       		.byte	0
 2315 0e57 3C       		.uleb128 0x3c
 2316 0e58 EC010000 		.4byte	.LASF142
 2317 0e5c 08       		.byte	0x8
 2318 0e5d 0302     		.2byte	0x203
 2319 0e5f 3B       		.uleb128 0x3b
 2320 0e60 6C000000 		.4byte	.LASF134
 2321 0e64 0D       		.byte	0xd
 2322 0e65 3601     		.2byte	0x136
 2323 0e67 7B0E0000 		.4byte	0xe7b
 2324 0e6b 12       		.uleb128 0x12
 2325 0e6c 5C090000 		.4byte	0x95c
 2326 0e70 12       		.uleb128 0x12
 2327 0e71 E6040000 		.4byte	0x4e6
 2328 0e75 12       		.uleb128 0x12
 2329 0e76 E6040000 		.4byte	0x4e6
 2330 0e7a 00       		.byte	0
ARM GAS  /tmp/ccxqjOgZ.s 			page 42


 2331 0e7b 3B       		.uleb128 0x3b
 2332 0e7c 2E000000 		.4byte	.LASF135
 2333 0e80 0F       		.byte	0xf
 2334 0e81 2301     		.2byte	0x123
 2335 0e83 920E0000 		.4byte	0xe92
 2336 0e87 12       		.uleb128 0x12
 2337 0e88 C3000000 		.4byte	0xc3
 2338 0e8c 12       		.uleb128 0x12
 2339 0e8d C3000000 		.4byte	0xc3
 2340 0e91 00       		.byte	0
 2341 0e92 3D       		.uleb128 0x3d
 2342 0e93 2D050000 		.4byte	.LASF143
 2343 0e97 0F       		.byte	0xf
 2344 0e98 2401     		.2byte	0x124
 2345 0e9a 12       		.uleb128 0x12
 2346 0e9b C3000000 		.4byte	0xc3
 2347 0e9f 00       		.byte	0
 2348 0ea0 00       		.byte	0
 2349              		.section	.debug_abbrev,"",%progbits
 2350              	.Ldebug_abbrev0:
 2351 0000 01       		.uleb128 0x1
 2352 0001 11       		.uleb128 0x11
 2353 0002 01       		.byte	0x1
 2354 0003 25       		.uleb128 0x25
 2355 0004 0E       		.uleb128 0xe
 2356 0005 13       		.uleb128 0x13
 2357 0006 0B       		.uleb128 0xb
 2358 0007 03       		.uleb128 0x3
 2359 0008 0E       		.uleb128 0xe
 2360 0009 1B       		.uleb128 0x1b
 2361 000a 0E       		.uleb128 0xe
 2362 000b 55       		.uleb128 0x55
 2363 000c 17       		.uleb128 0x17
 2364 000d 11       		.uleb128 0x11
 2365 000e 01       		.uleb128 0x1
 2366 000f 10       		.uleb128 0x10
 2367 0010 17       		.uleb128 0x17
 2368 0011 00       		.byte	0
 2369 0012 00       		.byte	0
 2370 0013 02       		.uleb128 0x2
 2371 0014 24       		.uleb128 0x24
 2372 0015 00       		.byte	0
 2373 0016 0B       		.uleb128 0xb
 2374 0017 0B       		.uleb128 0xb
 2375 0018 3E       		.uleb128 0x3e
 2376 0019 0B       		.uleb128 0xb
 2377 001a 03       		.uleb128 0x3
 2378 001b 08       		.uleb128 0x8
 2379 001c 00       		.byte	0
 2380 001d 00       		.byte	0
 2381 001e 03       		.uleb128 0x3
 2382 001f 16       		.uleb128 0x16
 2383 0020 00       		.byte	0
 2384 0021 03       		.uleb128 0x3
 2385 0022 0E       		.uleb128 0xe
 2386 0023 3A       		.uleb128 0x3a
 2387 0024 0B       		.uleb128 0xb
ARM GAS  /tmp/ccxqjOgZ.s 			page 43


 2388 0025 3B       		.uleb128 0x3b
 2389 0026 0B       		.uleb128 0xb
 2390 0027 49       		.uleb128 0x49
 2391 0028 13       		.uleb128 0x13
 2392 0029 00       		.byte	0
 2393 002a 00       		.byte	0
 2394 002b 04       		.uleb128 0x4
 2395 002c 24       		.uleb128 0x24
 2396 002d 00       		.byte	0
 2397 002e 0B       		.uleb128 0xb
 2398 002f 0B       		.uleb128 0xb
 2399 0030 3E       		.uleb128 0x3e
 2400 0031 0B       		.uleb128 0xb
 2401 0032 03       		.uleb128 0x3
 2402 0033 0E       		.uleb128 0xe
 2403 0034 00       		.byte	0
 2404 0035 00       		.byte	0
 2405 0036 05       		.uleb128 0x5
 2406 0037 13       		.uleb128 0x13
 2407 0038 01       		.byte	0x1
 2408 0039 03       		.uleb128 0x3
 2409 003a 0E       		.uleb128 0xe
 2410 003b 0B       		.uleb128 0xb
 2411 003c 0B       		.uleb128 0xb
 2412 003d 3A       		.uleb128 0x3a
 2413 003e 0B       		.uleb128 0xb
 2414 003f 3B       		.uleb128 0x3b
 2415 0040 0B       		.uleb128 0xb
 2416 0041 01       		.uleb128 0x1
 2417 0042 13       		.uleb128 0x13
 2418 0043 00       		.byte	0
 2419 0044 00       		.byte	0
 2420 0045 06       		.uleb128 0x6
 2421 0046 0D       		.uleb128 0xd
 2422 0047 00       		.byte	0
 2423 0048 03       		.uleb128 0x3
 2424 0049 0E       		.uleb128 0xe
 2425 004a 3A       		.uleb128 0x3a
 2426 004b 0B       		.uleb128 0xb
 2427 004c 3B       		.uleb128 0x3b
 2428 004d 0B       		.uleb128 0xb
 2429 004e 49       		.uleb128 0x49
 2430 004f 13       		.uleb128 0x13
 2431 0050 38       		.uleb128 0x38
 2432 0051 0B       		.uleb128 0xb
 2433 0052 00       		.byte	0
 2434 0053 00       		.byte	0
 2435 0054 07       		.uleb128 0x7
 2436 0055 0D       		.uleb128 0xd
 2437 0056 00       		.byte	0
 2438 0057 03       		.uleb128 0x3
 2439 0058 08       		.uleb128 0x8
 2440 0059 3A       		.uleb128 0x3a
 2441 005a 0B       		.uleb128 0xb
 2442 005b 3B       		.uleb128 0x3b
 2443 005c 0B       		.uleb128 0xb
 2444 005d 49       		.uleb128 0x49
ARM GAS  /tmp/ccxqjOgZ.s 			page 44


 2445 005e 13       		.uleb128 0x13
 2446 005f 38       		.uleb128 0x38
 2447 0060 0B       		.uleb128 0xb
 2448 0061 00       		.byte	0
 2449 0062 00       		.byte	0
 2450 0063 08       		.uleb128 0x8
 2451 0064 13       		.uleb128 0x13
 2452 0065 01       		.byte	0x1
 2453 0066 0B       		.uleb128 0xb
 2454 0067 0B       		.uleb128 0xb
 2455 0068 3A       		.uleb128 0x3a
 2456 0069 0B       		.uleb128 0xb
 2457 006a 3B       		.uleb128 0x3b
 2458 006b 0B       		.uleb128 0xb
 2459 006c 01       		.uleb128 0x1
 2460 006d 13       		.uleb128 0x13
 2461 006e 00       		.byte	0
 2462 006f 00       		.byte	0
 2463 0070 09       		.uleb128 0x9
 2464 0071 0F       		.uleb128 0xf
 2465 0072 00       		.byte	0
 2466 0073 0B       		.uleb128 0xb
 2467 0074 0B       		.uleb128 0xb
 2468 0075 49       		.uleb128 0x49
 2469 0076 13       		.uleb128 0x13
 2470 0077 00       		.byte	0
 2471 0078 00       		.byte	0
 2472 0079 0A       		.uleb128 0xa
 2473 007a 0F       		.uleb128 0xf
 2474 007b 00       		.byte	0
 2475 007c 0B       		.uleb128 0xb
 2476 007d 0B       		.uleb128 0xb
 2477 007e 00       		.byte	0
 2478 007f 00       		.byte	0
 2479 0080 0B       		.uleb128 0xb
 2480 0081 13       		.uleb128 0x13
 2481 0082 01       		.byte	0x1
 2482 0083 03       		.uleb128 0x3
 2483 0084 0E       		.uleb128 0xe
 2484 0085 0B       		.uleb128 0xb
 2485 0086 0B       		.uleb128 0xb
 2486 0087 3A       		.uleb128 0x3a
 2487 0088 0B       		.uleb128 0xb
 2488 0089 3B       		.uleb128 0x3b
 2489 008a 05       		.uleb128 0x5
 2490 008b 01       		.uleb128 0x1
 2491 008c 13       		.uleb128 0x13
 2492 008d 00       		.byte	0
 2493 008e 00       		.byte	0
 2494 008f 0C       		.uleb128 0xc
 2495 0090 0D       		.uleb128 0xd
 2496 0091 00       		.byte	0
 2497 0092 03       		.uleb128 0x3
 2498 0093 08       		.uleb128 0x8
 2499 0094 3A       		.uleb128 0x3a
 2500 0095 0B       		.uleb128 0xb
 2501 0096 3B       		.uleb128 0x3b
ARM GAS  /tmp/ccxqjOgZ.s 			page 45


 2502 0097 05       		.uleb128 0x5
 2503 0098 49       		.uleb128 0x49
 2504 0099 13       		.uleb128 0x13
 2505 009a 38       		.uleb128 0x38
 2506 009b 0B       		.uleb128 0xb
 2507 009c 00       		.byte	0
 2508 009d 00       		.byte	0
 2509 009e 0D       		.uleb128 0xd
 2510 009f 35       		.uleb128 0x35
 2511 00a0 00       		.byte	0
 2512 00a1 49       		.uleb128 0x49
 2513 00a2 13       		.uleb128 0x13
 2514 00a3 00       		.byte	0
 2515 00a4 00       		.byte	0
 2516 00a5 0E       		.uleb128 0xe
 2517 00a6 17       		.uleb128 0x17
 2518 00a7 01       		.byte	0x1
 2519 00a8 0B       		.uleb128 0xb
 2520 00a9 0B       		.uleb128 0xb
 2521 00aa 3A       		.uleb128 0x3a
 2522 00ab 0B       		.uleb128 0xb
 2523 00ac 3B       		.uleb128 0x3b
 2524 00ad 0B       		.uleb128 0xb
 2525 00ae 01       		.uleb128 0x1
 2526 00af 13       		.uleb128 0x13
 2527 00b0 00       		.byte	0
 2528 00b1 00       		.byte	0
 2529 00b2 0F       		.uleb128 0xf
 2530 00b3 0D       		.uleb128 0xd
 2531 00b4 00       		.byte	0
 2532 00b5 03       		.uleb128 0x3
 2533 00b6 0E       		.uleb128 0xe
 2534 00b7 3A       		.uleb128 0x3a
 2535 00b8 0B       		.uleb128 0xb
 2536 00b9 3B       		.uleb128 0x3b
 2537 00ba 0B       		.uleb128 0xb
 2538 00bb 49       		.uleb128 0x49
 2539 00bc 13       		.uleb128 0x13
 2540 00bd 00       		.byte	0
 2541 00be 00       		.byte	0
 2542 00bf 10       		.uleb128 0x10
 2543 00c0 26       		.uleb128 0x26
 2544 00c1 00       		.byte	0
 2545 00c2 49       		.uleb128 0x49
 2546 00c3 13       		.uleb128 0x13
 2547 00c4 00       		.byte	0
 2548 00c5 00       		.byte	0
 2549 00c6 11       		.uleb128 0x11
 2550 00c7 15       		.uleb128 0x15
 2551 00c8 01       		.byte	0x1
 2552 00c9 27       		.uleb128 0x27
 2553 00ca 19       		.uleb128 0x19
 2554 00cb 49       		.uleb128 0x49
 2555 00cc 13       		.uleb128 0x13
 2556 00cd 01       		.uleb128 0x1
 2557 00ce 13       		.uleb128 0x13
 2558 00cf 00       		.byte	0
ARM GAS  /tmp/ccxqjOgZ.s 			page 46


 2559 00d0 00       		.byte	0
 2560 00d1 12       		.uleb128 0x12
 2561 00d2 05       		.uleb128 0x5
 2562 00d3 00       		.byte	0
 2563 00d4 49       		.uleb128 0x49
 2564 00d5 13       		.uleb128 0x13
 2565 00d6 00       		.byte	0
 2566 00d7 00       		.byte	0
 2567 00d8 13       		.uleb128 0x13
 2568 00d9 15       		.uleb128 0x15
 2569 00da 01       		.byte	0x1
 2570 00db 27       		.uleb128 0x27
 2571 00dc 19       		.uleb128 0x19
 2572 00dd 01       		.uleb128 0x1
 2573 00de 13       		.uleb128 0x13
 2574 00df 00       		.byte	0
 2575 00e0 00       		.byte	0
 2576 00e1 14       		.uleb128 0x14
 2577 00e2 13       		.uleb128 0x13
 2578 00e3 01       		.byte	0x1
 2579 00e4 0B       		.uleb128 0xb
 2580 00e5 0B       		.uleb128 0xb
 2581 00e6 3A       		.uleb128 0x3a
 2582 00e7 0B       		.uleb128 0xb
 2583 00e8 3B       		.uleb128 0x3b
 2584 00e9 05       		.uleb128 0x5
 2585 00ea 01       		.uleb128 0x1
 2586 00eb 13       		.uleb128 0x13
 2587 00ec 00       		.byte	0
 2588 00ed 00       		.byte	0
 2589 00ee 15       		.uleb128 0x15
 2590 00ef 0D       		.uleb128 0xd
 2591 00f0 00       		.byte	0
 2592 00f1 03       		.uleb128 0x3
 2593 00f2 0E       		.uleb128 0xe
 2594 00f3 3A       		.uleb128 0x3a
 2595 00f4 0B       		.uleb128 0xb
 2596 00f5 3B       		.uleb128 0x3b
 2597 00f6 05       		.uleb128 0x5
 2598 00f7 49       		.uleb128 0x49
 2599 00f8 13       		.uleb128 0x13
 2600 00f9 38       		.uleb128 0x38
 2601 00fa 0B       		.uleb128 0xb
 2602 00fb 00       		.byte	0
 2603 00fc 00       		.byte	0
 2604 00fd 16       		.uleb128 0x16
 2605 00fe 16       		.uleb128 0x16
 2606 00ff 00       		.byte	0
 2607 0100 03       		.uleb128 0x3
 2608 0101 0E       		.uleb128 0xe
 2609 0102 3A       		.uleb128 0x3a
 2610 0103 0B       		.uleb128 0xb
 2611 0104 3B       		.uleb128 0x3b
 2612 0105 05       		.uleb128 0x5
 2613 0106 49       		.uleb128 0x49
 2614 0107 13       		.uleb128 0x13
 2615 0108 00       		.byte	0
ARM GAS  /tmp/ccxqjOgZ.s 			page 47


 2616 0109 00       		.byte	0
 2617 010a 17       		.uleb128 0x17
 2618 010b 04       		.uleb128 0x4
 2619 010c 01       		.byte	0x1
 2620 010d 0B       		.uleb128 0xb
 2621 010e 0B       		.uleb128 0xb
 2622 010f 3A       		.uleb128 0x3a
 2623 0110 0B       		.uleb128 0xb
 2624 0111 3B       		.uleb128 0x3b
 2625 0112 0B       		.uleb128 0xb
 2626 0113 01       		.uleb128 0x1
 2627 0114 13       		.uleb128 0x13
 2628 0115 00       		.byte	0
 2629 0116 00       		.byte	0
 2630 0117 18       		.uleb128 0x18
 2631 0118 28       		.uleb128 0x28
 2632 0119 00       		.byte	0
 2633 011a 03       		.uleb128 0x3
 2634 011b 0E       		.uleb128 0xe
 2635 011c 1C       		.uleb128 0x1c
 2636 011d 0D       		.uleb128 0xd
 2637 011e 00       		.byte	0
 2638 011f 00       		.byte	0
 2639 0120 19       		.uleb128 0x19
 2640 0121 01       		.uleb128 0x1
 2641 0122 01       		.byte	0x1
 2642 0123 49       		.uleb128 0x49
 2643 0124 13       		.uleb128 0x13
 2644 0125 01       		.uleb128 0x1
 2645 0126 13       		.uleb128 0x13
 2646 0127 00       		.byte	0
 2647 0128 00       		.byte	0
 2648 0129 1A       		.uleb128 0x1a
 2649 012a 21       		.uleb128 0x21
 2650 012b 00       		.byte	0
 2651 012c 49       		.uleb128 0x49
 2652 012d 13       		.uleb128 0x13
 2653 012e 2F       		.uleb128 0x2f
 2654 012f 0B       		.uleb128 0xb
 2655 0130 00       		.byte	0
 2656 0131 00       		.byte	0
 2657 0132 1B       		.uleb128 0x1b
 2658 0133 2E       		.uleb128 0x2e
 2659 0134 01       		.byte	0x1
 2660 0135 03       		.uleb128 0x3
 2661 0136 0E       		.uleb128 0xe
 2662 0137 3A       		.uleb128 0x3a
 2663 0138 0B       		.uleb128 0xb
 2664 0139 3B       		.uleb128 0x3b
 2665 013a 0B       		.uleb128 0xb
 2666 013b 27       		.uleb128 0x27
 2667 013c 19       		.uleb128 0x19
 2668 013d 20       		.uleb128 0x20
 2669 013e 0B       		.uleb128 0xb
 2670 013f 01       		.uleb128 0x1
 2671 0140 13       		.uleb128 0x13
 2672 0141 00       		.byte	0
ARM GAS  /tmp/ccxqjOgZ.s 			page 48


 2673 0142 00       		.byte	0
 2674 0143 1C       		.uleb128 0x1c
 2675 0144 05       		.uleb128 0x5
 2676 0145 00       		.byte	0
 2677 0146 03       		.uleb128 0x3
 2678 0147 08       		.uleb128 0x8
 2679 0148 3A       		.uleb128 0x3a
 2680 0149 0B       		.uleb128 0xb
 2681 014a 3B       		.uleb128 0x3b
 2682 014b 0B       		.uleb128 0xb
 2683 014c 49       		.uleb128 0x49
 2684 014d 13       		.uleb128 0x13
 2685 014e 00       		.byte	0
 2686 014f 00       		.byte	0
 2687 0150 1D       		.uleb128 0x1d
 2688 0151 05       		.uleb128 0x5
 2689 0152 00       		.byte	0
 2690 0153 03       		.uleb128 0x3
 2691 0154 0E       		.uleb128 0xe
 2692 0155 3A       		.uleb128 0x3a
 2693 0156 0B       		.uleb128 0xb
 2694 0157 3B       		.uleb128 0x3b
 2695 0158 0B       		.uleb128 0xb
 2696 0159 49       		.uleb128 0x49
 2697 015a 13       		.uleb128 0x13
 2698 015b 00       		.byte	0
 2699 015c 00       		.byte	0
 2700 015d 1E       		.uleb128 0x1e
 2701 015e 34       		.uleb128 0x34
 2702 015f 00       		.byte	0
 2703 0160 03       		.uleb128 0x3
 2704 0161 08       		.uleb128 0x8
 2705 0162 3A       		.uleb128 0x3a
 2706 0163 0B       		.uleb128 0xb
 2707 0164 3B       		.uleb128 0x3b
 2708 0165 0B       		.uleb128 0xb
 2709 0166 49       		.uleb128 0x49
 2710 0167 13       		.uleb128 0x13
 2711 0168 00       		.byte	0
 2712 0169 00       		.byte	0
 2713 016a 1F       		.uleb128 0x1f
 2714 016b 0B       		.uleb128 0xb
 2715 016c 01       		.byte	0x1
 2716 016d 01       		.uleb128 0x1
 2717 016e 13       		.uleb128 0x13
 2718 016f 00       		.byte	0
 2719 0170 00       		.byte	0
 2720 0171 20       		.uleb128 0x20
 2721 0172 0B       		.uleb128 0xb
 2722 0173 01       		.byte	0x1
 2723 0174 00       		.byte	0
 2724 0175 00       		.byte	0
 2725 0176 21       		.uleb128 0x21
 2726 0177 2E       		.uleb128 0x2e
 2727 0178 01       		.byte	0x1
 2728 0179 03       		.uleb128 0x3
 2729 017a 0E       		.uleb128 0xe
ARM GAS  /tmp/ccxqjOgZ.s 			page 49


 2730 017b 3A       		.uleb128 0x3a
 2731 017c 0B       		.uleb128 0xb
 2732 017d 3B       		.uleb128 0x3b
 2733 017e 0B       		.uleb128 0xb
 2734 017f 27       		.uleb128 0x27
 2735 0180 19       		.uleb128 0x19
 2736 0181 11       		.uleb128 0x11
 2737 0182 01       		.uleb128 0x1
 2738 0183 12       		.uleb128 0x12
 2739 0184 06       		.uleb128 0x6
 2740 0185 40       		.uleb128 0x40
 2741 0186 18       		.uleb128 0x18
 2742 0187 9742     		.uleb128 0x2117
 2743 0189 19       		.uleb128 0x19
 2744 018a 01       		.uleb128 0x1
 2745 018b 13       		.uleb128 0x13
 2746 018c 00       		.byte	0
 2747 018d 00       		.byte	0
 2748 018e 22       		.uleb128 0x22
 2749 018f 05       		.uleb128 0x5
 2750 0190 00       		.byte	0
 2751 0191 03       		.uleb128 0x3
 2752 0192 08       		.uleb128 0x8
 2753 0193 3A       		.uleb128 0x3a
 2754 0194 0B       		.uleb128 0xb
 2755 0195 3B       		.uleb128 0x3b
 2756 0196 0B       		.uleb128 0xb
 2757 0197 49       		.uleb128 0x49
 2758 0198 13       		.uleb128 0x13
 2759 0199 02       		.uleb128 0x2
 2760 019a 18       		.uleb128 0x18
 2761 019b 00       		.byte	0
 2762 019c 00       		.byte	0
 2763 019d 23       		.uleb128 0x23
 2764 019e 2E       		.uleb128 0x2e
 2765 019f 01       		.byte	0x1
 2766 01a0 3F       		.uleb128 0x3f
 2767 01a1 19       		.uleb128 0x19
 2768 01a2 03       		.uleb128 0x3
 2769 01a3 0E       		.uleb128 0xe
 2770 01a4 3A       		.uleb128 0x3a
 2771 01a5 0B       		.uleb128 0xb
 2772 01a6 3B       		.uleb128 0x3b
 2773 01a7 05       		.uleb128 0x5
 2774 01a8 27       		.uleb128 0x27
 2775 01a9 19       		.uleb128 0x19
 2776 01aa 11       		.uleb128 0x11
 2777 01ab 01       		.uleb128 0x1
 2778 01ac 12       		.uleb128 0x12
 2779 01ad 06       		.uleb128 0x6
 2780 01ae 40       		.uleb128 0x40
 2781 01af 18       		.uleb128 0x18
 2782 01b0 9742     		.uleb128 0x2117
 2783 01b2 19       		.uleb128 0x19
 2784 01b3 01       		.uleb128 0x1
 2785 01b4 13       		.uleb128 0x13
 2786 01b5 00       		.byte	0
ARM GAS  /tmp/ccxqjOgZ.s 			page 50


 2787 01b6 00       		.byte	0
 2788 01b7 24       		.uleb128 0x24
 2789 01b8 1D       		.uleb128 0x1d
 2790 01b9 01       		.byte	0x1
 2791 01ba 31       		.uleb128 0x31
 2792 01bb 13       		.uleb128 0x13
 2793 01bc 52       		.uleb128 0x52
 2794 01bd 01       		.uleb128 0x1
 2795 01be 55       		.uleb128 0x55
 2796 01bf 17       		.uleb128 0x17
 2797 01c0 58       		.uleb128 0x58
 2798 01c1 0B       		.uleb128 0xb
 2799 01c2 59       		.uleb128 0x59
 2800 01c3 05       		.uleb128 0x5
 2801 01c4 01       		.uleb128 0x1
 2802 01c5 13       		.uleb128 0x13
 2803 01c6 00       		.byte	0
 2804 01c7 00       		.byte	0
 2805 01c8 25       		.uleb128 0x25
 2806 01c9 05       		.uleb128 0x5
 2807 01ca 00       		.byte	0
 2808 01cb 31       		.uleb128 0x31
 2809 01cc 13       		.uleb128 0x13
 2810 01cd 02       		.uleb128 0x2
 2811 01ce 18       		.uleb128 0x18
 2812 01cf 00       		.byte	0
 2813 01d0 00       		.byte	0
 2814 01d1 26       		.uleb128 0x26
 2815 01d2 0B       		.uleb128 0xb
 2816 01d3 01       		.byte	0x1
 2817 01d4 55       		.uleb128 0x55
 2818 01d5 17       		.uleb128 0x17
 2819 01d6 00       		.byte	0
 2820 01d7 00       		.byte	0
 2821 01d8 27       		.uleb128 0x27
 2822 01d9 34       		.uleb128 0x34
 2823 01da 00       		.byte	0
 2824 01db 31       		.uleb128 0x31
 2825 01dc 13       		.uleb128 0x13
 2826 01dd 02       		.uleb128 0x2
 2827 01de 17       		.uleb128 0x17
 2828 01df 00       		.byte	0
 2829 01e0 00       		.byte	0
 2830 01e1 28       		.uleb128 0x28
 2831 01e2 0B       		.uleb128 0xb
 2832 01e3 01       		.byte	0x1
 2833 01e4 11       		.uleb128 0x11
 2834 01e5 01       		.uleb128 0x1
 2835 01e6 12       		.uleb128 0x12
 2836 01e7 06       		.uleb128 0x6
 2837 01e8 01       		.uleb128 0x1
 2838 01e9 13       		.uleb128 0x13
 2839 01ea 00       		.byte	0
 2840 01eb 00       		.byte	0
 2841 01ec 29       		.uleb128 0x29
 2842 01ed 34       		.uleb128 0x34
 2843 01ee 00       		.byte	0
ARM GAS  /tmp/ccxqjOgZ.s 			page 51


 2844 01ef 31       		.uleb128 0x31
 2845 01f0 13       		.uleb128 0x13
 2846 01f1 02       		.uleb128 0x2
 2847 01f2 18       		.uleb128 0x18
 2848 01f3 00       		.byte	0
 2849 01f4 00       		.byte	0
 2850 01f5 2A       		.uleb128 0x2a
 2851 01f6 1D       		.uleb128 0x1d
 2852 01f7 01       		.byte	0x1
 2853 01f8 31       		.uleb128 0x31
 2854 01f9 13       		.uleb128 0x13
 2855 01fa 11       		.uleb128 0x11
 2856 01fb 01       		.uleb128 0x1
 2857 01fc 12       		.uleb128 0x12
 2858 01fd 06       		.uleb128 0x6
 2859 01fe 58       		.uleb128 0x58
 2860 01ff 0B       		.uleb128 0xb
 2861 0200 59       		.uleb128 0x59
 2862 0201 0B       		.uleb128 0xb
 2863 0202 01       		.uleb128 0x1
 2864 0203 13       		.uleb128 0x13
 2865 0204 00       		.byte	0
 2866 0205 00       		.byte	0
 2867 0206 2B       		.uleb128 0x2b
 2868 0207 05       		.uleb128 0x5
 2869 0208 00       		.byte	0
 2870 0209 31       		.uleb128 0x31
 2871 020a 13       		.uleb128 0x13
 2872 020b 02       		.uleb128 0x2
 2873 020c 17       		.uleb128 0x17
 2874 020d 00       		.byte	0
 2875 020e 00       		.byte	0
 2876 020f 2C       		.uleb128 0x2c
 2877 0210 0B       		.uleb128 0xb
 2878 0211 01       		.byte	0x1
 2879 0212 11       		.uleb128 0x11
 2880 0213 01       		.uleb128 0x1
 2881 0214 12       		.uleb128 0x12
 2882 0215 06       		.uleb128 0x6
 2883 0216 00       		.byte	0
 2884 0217 00       		.byte	0
 2885 0218 2D       		.uleb128 0x2d
 2886 0219 898201   		.uleb128 0x4109
 2887 021c 01       		.byte	0x1
 2888 021d 11       		.uleb128 0x11
 2889 021e 01       		.uleb128 0x1
 2890 021f 31       		.uleb128 0x31
 2891 0220 13       		.uleb128 0x13
 2892 0221 00       		.byte	0
 2893 0222 00       		.byte	0
 2894 0223 2E       		.uleb128 0x2e
 2895 0224 8A8201   		.uleb128 0x410a
 2896 0227 00       		.byte	0
 2897 0228 02       		.uleb128 0x2
 2898 0229 18       		.uleb128 0x18
 2899 022a 9142     		.uleb128 0x2111
 2900 022c 18       		.uleb128 0x18
ARM GAS  /tmp/ccxqjOgZ.s 			page 52


 2901 022d 00       		.byte	0
 2902 022e 00       		.byte	0
 2903 022f 2F       		.uleb128 0x2f
 2904 0230 0B       		.uleb128 0xb
 2905 0231 01       		.byte	0x1
 2906 0232 55       		.uleb128 0x55
 2907 0233 17       		.uleb128 0x17
 2908 0234 01       		.uleb128 0x1
 2909 0235 13       		.uleb128 0x13
 2910 0236 00       		.byte	0
 2911 0237 00       		.byte	0
 2912 0238 30       		.uleb128 0x30
 2913 0239 898201   		.uleb128 0x4109
 2914 023c 01       		.byte	0x1
 2915 023d 11       		.uleb128 0x11
 2916 023e 01       		.uleb128 0x1
 2917 023f 31       		.uleb128 0x31
 2918 0240 13       		.uleb128 0x13
 2919 0241 01       		.uleb128 0x1
 2920 0242 13       		.uleb128 0x13
 2921 0243 00       		.byte	0
 2922 0244 00       		.byte	0
 2923 0245 31       		.uleb128 0x31
 2924 0246 898201   		.uleb128 0x4109
 2925 0249 00       		.byte	0
 2926 024a 11       		.uleb128 0x11
 2927 024b 01       		.uleb128 0x1
 2928 024c 9542     		.uleb128 0x2115
 2929 024e 19       		.uleb128 0x19
 2930 024f 31       		.uleb128 0x31
 2931 0250 13       		.uleb128 0x13
 2932 0251 00       		.byte	0
 2933 0252 00       		.byte	0
 2934 0253 32       		.uleb128 0x32
 2935 0254 05       		.uleb128 0x5
 2936 0255 00       		.byte	0
 2937 0256 03       		.uleb128 0x3
 2938 0257 08       		.uleb128 0x8
 2939 0258 3A       		.uleb128 0x3a
 2940 0259 0B       		.uleb128 0xb
 2941 025a 3B       		.uleb128 0x3b
 2942 025b 05       		.uleb128 0x5
 2943 025c 49       		.uleb128 0x49
 2944 025d 13       		.uleb128 0x13
 2945 025e 02       		.uleb128 0x2
 2946 025f 17       		.uleb128 0x17
 2947 0260 00       		.byte	0
 2948 0261 00       		.byte	0
 2949 0262 33       		.uleb128 0x33
 2950 0263 05       		.uleb128 0x5
 2951 0264 00       		.byte	0
 2952 0265 03       		.uleb128 0x3
 2953 0266 0E       		.uleb128 0xe
 2954 0267 3A       		.uleb128 0x3a
 2955 0268 0B       		.uleb128 0xb
 2956 0269 3B       		.uleb128 0x3b
 2957 026a 05       		.uleb128 0x5
ARM GAS  /tmp/ccxqjOgZ.s 			page 53


 2958 026b 49       		.uleb128 0x49
 2959 026c 13       		.uleb128 0x13
 2960 026d 02       		.uleb128 0x2
 2961 026e 17       		.uleb128 0x17
 2962 026f 00       		.byte	0
 2963 0270 00       		.byte	0
 2964 0271 34       		.uleb128 0x34
 2965 0272 1D       		.uleb128 0x1d
 2966 0273 01       		.byte	0x1
 2967 0274 31       		.uleb128 0x31
 2968 0275 13       		.uleb128 0x13
 2969 0276 11       		.uleb128 0x11
 2970 0277 01       		.uleb128 0x1
 2971 0278 12       		.uleb128 0x12
 2972 0279 06       		.uleb128 0x6
 2973 027a 58       		.uleb128 0x58
 2974 027b 0B       		.uleb128 0xb
 2975 027c 59       		.uleb128 0x59
 2976 027d 05       		.uleb128 0x5
 2977 027e 01       		.uleb128 0x1
 2978 027f 13       		.uleb128 0x13
 2979 0280 00       		.byte	0
 2980 0281 00       		.byte	0
 2981 0282 35       		.uleb128 0x35
 2982 0283 898201   		.uleb128 0x4109
 2983 0286 01       		.byte	0x1
 2984 0287 11       		.uleb128 0x11
 2985 0288 01       		.uleb128 0x1
 2986 0289 9542     		.uleb128 0x2115
 2987 028b 19       		.uleb128 0x19
 2988 028c 31       		.uleb128 0x31
 2989 028d 13       		.uleb128 0x13
 2990 028e 00       		.byte	0
 2991 028f 00       		.byte	0
 2992 0290 36       		.uleb128 0x36
 2993 0291 34       		.uleb128 0x34
 2994 0292 00       		.byte	0
 2995 0293 03       		.uleb128 0x3
 2996 0294 0E       		.uleb128 0xe
 2997 0295 3A       		.uleb128 0x3a
 2998 0296 0B       		.uleb128 0xb
 2999 0297 3B       		.uleb128 0x3b
 3000 0298 0B       		.uleb128 0xb
 3001 0299 49       		.uleb128 0x49
 3002 029a 13       		.uleb128 0x13
 3003 029b 02       		.uleb128 0x2
 3004 029c 18       		.uleb128 0x18
 3005 029d 00       		.byte	0
 3006 029e 00       		.byte	0
 3007 029f 37       		.uleb128 0x37
 3008 02a0 34       		.uleb128 0x34
 3009 02a1 00       		.byte	0
 3010 02a2 03       		.uleb128 0x3
 3011 02a3 0E       		.uleb128 0xe
 3012 02a4 3A       		.uleb128 0x3a
 3013 02a5 0B       		.uleb128 0xb
 3014 02a6 3B       		.uleb128 0x3b
ARM GAS  /tmp/ccxqjOgZ.s 			page 54


 3015 02a7 05       		.uleb128 0x5
 3016 02a8 49       		.uleb128 0x49
 3017 02a9 13       		.uleb128 0x13
 3018 02aa 3F       		.uleb128 0x3f
 3019 02ab 19       		.uleb128 0x19
 3020 02ac 3C       		.uleb128 0x3c
 3021 02ad 19       		.uleb128 0x19
 3022 02ae 00       		.byte	0
 3023 02af 00       		.byte	0
 3024 02b0 38       		.uleb128 0x38
 3025 02b1 34       		.uleb128 0x34
 3026 02b2 00       		.byte	0
 3027 02b3 03       		.uleb128 0x3
 3028 02b4 08       		.uleb128 0x8
 3029 02b5 3A       		.uleb128 0x3a
 3030 02b6 0B       		.uleb128 0xb
 3031 02b7 3B       		.uleb128 0x3b
 3032 02b8 0B       		.uleb128 0xb
 3033 02b9 49       		.uleb128 0x49
 3034 02ba 13       		.uleb128 0x13
 3035 02bb 3F       		.uleb128 0x3f
 3036 02bc 19       		.uleb128 0x19
 3037 02bd 02       		.uleb128 0x2
 3038 02be 18       		.uleb128 0x18
 3039 02bf 00       		.byte	0
 3040 02c0 00       		.byte	0
 3041 02c1 39       		.uleb128 0x39
 3042 02c2 2E       		.uleb128 0x2e
 3043 02c3 01       		.byte	0x1
 3044 02c4 3F       		.uleb128 0x3f
 3045 02c5 19       		.uleb128 0x19
 3046 02c6 03       		.uleb128 0x3
 3047 02c7 0E       		.uleb128 0xe
 3048 02c8 3A       		.uleb128 0x3a
 3049 02c9 0B       		.uleb128 0xb
 3050 02ca 3B       		.uleb128 0x3b
 3051 02cb 0B       		.uleb128 0xb
 3052 02cc 27       		.uleb128 0x27
 3053 02cd 19       		.uleb128 0x19
 3054 02ce 3C       		.uleb128 0x3c
 3055 02cf 19       		.uleb128 0x19
 3056 02d0 01       		.uleb128 0x1
 3057 02d1 13       		.uleb128 0x13
 3058 02d2 00       		.byte	0
 3059 02d3 00       		.byte	0
 3060 02d4 3A       		.uleb128 0x3a
 3061 02d5 2E       		.uleb128 0x2e
 3062 02d6 01       		.byte	0x1
 3063 02d7 3F       		.uleb128 0x3f
 3064 02d8 19       		.uleb128 0x19
 3065 02d9 03       		.uleb128 0x3
 3066 02da 0E       		.uleb128 0xe
 3067 02db 3A       		.uleb128 0x3a
 3068 02dc 0B       		.uleb128 0xb
 3069 02dd 3B       		.uleb128 0x3b
 3070 02de 05       		.uleb128 0x5
 3071 02df 27       		.uleb128 0x27
ARM GAS  /tmp/ccxqjOgZ.s 			page 55


 3072 02e0 19       		.uleb128 0x19
 3073 02e1 49       		.uleb128 0x49
 3074 02e2 13       		.uleb128 0x13
 3075 02e3 3C       		.uleb128 0x3c
 3076 02e4 19       		.uleb128 0x19
 3077 02e5 01       		.uleb128 0x1
 3078 02e6 13       		.uleb128 0x13
 3079 02e7 00       		.byte	0
 3080 02e8 00       		.byte	0
 3081 02e9 3B       		.uleb128 0x3b
 3082 02ea 2E       		.uleb128 0x2e
 3083 02eb 01       		.byte	0x1
 3084 02ec 3F       		.uleb128 0x3f
 3085 02ed 19       		.uleb128 0x19
 3086 02ee 03       		.uleb128 0x3
 3087 02ef 0E       		.uleb128 0xe
 3088 02f0 3A       		.uleb128 0x3a
 3089 02f1 0B       		.uleb128 0xb
 3090 02f2 3B       		.uleb128 0x3b
 3091 02f3 05       		.uleb128 0x5
 3092 02f4 27       		.uleb128 0x27
 3093 02f5 19       		.uleb128 0x19
 3094 02f6 3C       		.uleb128 0x3c
 3095 02f7 19       		.uleb128 0x19
 3096 02f8 01       		.uleb128 0x1
 3097 02f9 13       		.uleb128 0x13
 3098 02fa 00       		.byte	0
 3099 02fb 00       		.byte	0
 3100 02fc 3C       		.uleb128 0x3c
 3101 02fd 2E       		.uleb128 0x2e
 3102 02fe 00       		.byte	0
 3103 02ff 3F       		.uleb128 0x3f
 3104 0300 19       		.uleb128 0x19
 3105 0301 03       		.uleb128 0x3
 3106 0302 0E       		.uleb128 0xe
 3107 0303 3A       		.uleb128 0x3a
 3108 0304 0B       		.uleb128 0xb
 3109 0305 3B       		.uleb128 0x3b
 3110 0306 05       		.uleb128 0x5
 3111 0307 27       		.uleb128 0x27
 3112 0308 19       		.uleb128 0x19
 3113 0309 3C       		.uleb128 0x3c
 3114 030a 19       		.uleb128 0x19
 3115 030b 00       		.byte	0
 3116 030c 00       		.byte	0
 3117 030d 3D       		.uleb128 0x3d
 3118 030e 2E       		.uleb128 0x2e
 3119 030f 01       		.byte	0x1
 3120 0310 3F       		.uleb128 0x3f
 3121 0311 19       		.uleb128 0x19
 3122 0312 03       		.uleb128 0x3
 3123 0313 0E       		.uleb128 0xe
 3124 0314 3A       		.uleb128 0x3a
 3125 0315 0B       		.uleb128 0xb
 3126 0316 3B       		.uleb128 0x3b
 3127 0317 05       		.uleb128 0x5
 3128 0318 27       		.uleb128 0x27
ARM GAS  /tmp/ccxqjOgZ.s 			page 56


 3129 0319 19       		.uleb128 0x19
 3130 031a 3C       		.uleb128 0x3c
 3131 031b 19       		.uleb128 0x19
 3132 031c 00       		.byte	0
 3133 031d 00       		.byte	0
 3134 031e 00       		.byte	0
 3135              		.section	.debug_loc,"",%progbits
 3136              	.Ldebug_loc0:
 3137              	.LLST0:
 3138 0000 06000000 		.4byte	.LVL2
 3139 0004 44000000 		.4byte	.LVL6
 3140 0008 0100     		.2byte	0x1
 3141 000a 55       		.byte	0x55
 3142 000b 48000000 		.4byte	.LVL7
 3143 000f FC000000 		.4byte	.LFE123
 3144 0013 0100     		.2byte	0x1
 3145 0015 55       		.byte	0x55
 3146 0016 00000000 		.4byte	0
 3147 001a 00000000 		.4byte	0
 3148              	.LLST1:
 3149 001e 08000000 		.4byte	.LVL3
 3150 0022 38000000 		.4byte	.LVL5
 3151 0026 0100     		.2byte	0x1
 3152 0028 56       		.byte	0x56
 3153 0029 48000000 		.4byte	.LVL7
 3154 002d FC000000 		.4byte	.LFE123
 3155 0031 0100     		.2byte	0x1
 3156 0033 56       		.byte	0x56
 3157 0034 00000000 		.4byte	0
 3158 0038 00000000 		.4byte	0
 3159              	.LLST2:
 3160 003c 0A000000 		.4byte	.LVL4
 3161 0040 44000000 		.4byte	.LVL6
 3162 0044 0100     		.2byte	0x1
 3163 0046 54       		.byte	0x54
 3164 0047 48000000 		.4byte	.LVL7
 3165 004b FC000000 		.4byte	.LFE123
 3166 004f 0100     		.2byte	0x1
 3167 0051 54       		.byte	0x54
 3168 0052 00000000 		.4byte	0
 3169 0056 00000000 		.4byte	0
 3170              	.LLST3:
 3171 005a 78000000 		.4byte	.LVL10
 3172 005e AE000000 		.4byte	.LVL16
 3173 0062 0600     		.2byte	0x6
 3174 0064 03       		.byte	0x3
 3175 0065 00000000 		.4byte	SD1
 3176 0069 9F       		.byte	0x9f
 3177 006a 00000000 		.4byte	0
 3178 006e 00000000 		.4byte	0
 3179              	.LLST4:
 3180 0072 78000000 		.4byte	.LVL10
 3181 0076 AE000000 		.4byte	.LVL16
 3182 007a 0100     		.2byte	0x1
 3183 007c 54       		.byte	0x54
 3184 007d 00000000 		.4byte	0
 3185 0081 00000000 		.4byte	0
ARM GAS  /tmp/ccxqjOgZ.s 			page 57


 3186              	.LLST5:
 3187 0085 78000000 		.4byte	.LVL10
 3188 0089 82000000 		.4byte	.LVL11
 3189 008d 0200     		.2byte	0x2
 3190 008f 30       		.byte	0x30
 3191 0090 9F       		.byte	0x9f
 3192 0091 82000000 		.4byte	.LVL11
 3193 0095 A5000000 		.4byte	.LVL15-1
 3194 0099 0100     		.2byte	0x1
 3195 009b 51       		.byte	0x51
 3196 009c 00000000 		.4byte	0
 3197 00a0 00000000 		.4byte	0
 3198              	.LLST6:
 3199 00a4 BA000000 		.4byte	.LVL17
 3200 00a8 C0000000 		.4byte	.LVL18
 3201 00ac 0100     		.2byte	0x1
 3202 00ae 50       		.byte	0x50
 3203 00af DA000000 		.4byte	.LVL20
 3204 00b3 DC000000 		.4byte	.LVL21
 3205 00b7 0100     		.2byte	0x1
 3206 00b9 50       		.byte	0x50
 3207 00ba 00000000 		.4byte	0
 3208 00be 00000000 		.4byte	0
 3209              	.LLST7:
 3210 00c2 00000000 		.4byte	.LVL24
 3211 00c6 12000000 		.4byte	.LVL26
 3212 00ca 0100     		.2byte	0x1
 3213 00cc 50       		.byte	0x50
 3214 00cd 12000000 		.4byte	.LVL26
 3215 00d1 44000000 		.4byte	.LVL29
 3216 00d5 0100     		.2byte	0x1
 3217 00d7 56       		.byte	0x56
 3218 00d8 44000000 		.4byte	.LVL29
 3219 00dc 56000000 		.4byte	.LVL30
 3220 00e0 0100     		.2byte	0x1
 3221 00e2 50       		.byte	0x50
 3222 00e3 56000000 		.4byte	.LVL30
 3223 00e7 6C000000 		.4byte	.LFE125
 3224 00eb 0100     		.2byte	0x1
 3225 00ed 56       		.byte	0x56
 3226 00ee 00000000 		.4byte	0
 3227 00f2 00000000 		.4byte	0
 3228              	.LLST8:
 3229 00f6 00000000 		.4byte	.LVL24
 3230 00fa 0C000000 		.4byte	.LVL25
 3231 00fe 0100     		.2byte	0x1
 3232 0100 51       		.byte	0x51
 3233 0101 0C000000 		.4byte	.LVL25
 3234 0105 1C000000 		.4byte	.LVL28
 3235 0109 0100     		.2byte	0x1
 3236 010b 54       		.byte	0x54
 3237 010c 1C000000 		.4byte	.LVL28
 3238 0110 44000000 		.4byte	.LVL29
 3239 0114 1300     		.2byte	0x13
 3240 0116 F3       		.byte	0xf3
 3241 0117 01       		.uleb128 0x1
 3242 0118 51       		.byte	0x51
ARM GAS  /tmp/ccxqjOgZ.s 			page 58


 3243 0119 03       		.byte	0x3
 3244 011a 00000000 		.4byte	.LANCHOR1
 3245 011e F3       		.byte	0xf3
 3246 011f 01       		.uleb128 0x1
 3247 0120 51       		.byte	0x51
 3248 0121 30       		.byte	0x30
 3249 0122 2E       		.byte	0x2e
 3250 0123 28       		.byte	0x28
 3251 0124 0100     		.2byte	0x1
 3252 0126 16       		.byte	0x16
 3253 0127 13       		.byte	0x13
 3254 0128 9F       		.byte	0x9f
 3255 0129 44000000 		.4byte	.LVL29
 3256 012d 6C000000 		.4byte	.LFE125
 3257 0131 0100     		.2byte	0x1
 3258 0133 54       		.byte	0x54
 3259 0134 00000000 		.4byte	0
 3260 0138 00000000 		.4byte	0
 3261              	.LLST9:
 3262 013c 1A000000 		.4byte	.LVL27
 3263 0140 44000000 		.4byte	.LVL29
 3264 0144 0100     		.2byte	0x1
 3265 0146 56       		.byte	0x56
 3266 0147 00000000 		.4byte	0
 3267 014b 00000000 		.4byte	0
 3268              	.LLST11:
 3269 014f 1A000000 		.4byte	.LVL27
 3270 0153 1C000000 		.4byte	.LVL28
 3271 0157 0100     		.2byte	0x1
 3272 0159 54       		.byte	0x54
 3273 015a 1C000000 		.4byte	.LVL28
 3274 015e 44000000 		.4byte	.LVL29
 3275 0162 1300     		.2byte	0x13
 3276 0164 F3       		.byte	0xf3
 3277 0165 01       		.uleb128 0x1
 3278 0166 51       		.byte	0x51
 3279 0167 03       		.byte	0x3
 3280 0168 00000000 		.4byte	.LANCHOR1
 3281 016c F3       		.byte	0xf3
 3282 016d 01       		.uleb128 0x1
 3283 016e 51       		.byte	0x51
 3284 016f 30       		.byte	0x30
 3285 0170 2E       		.byte	0x2e
 3286 0171 28       		.byte	0x28
 3287 0172 0100     		.2byte	0x1
 3288 0174 16       		.byte	0x16
 3289 0175 13       		.byte	0x13
 3290 0176 9F       		.byte	0x9f
 3291 0177 00000000 		.4byte	0
 3292 017b 00000000 		.4byte	0
 3293              	.LLST12:
 3294 017f 1A000000 		.4byte	.LVL27
 3295 0183 44000000 		.4byte	.LVL29
 3296 0187 0100     		.2byte	0x1
 3297 0189 53       		.byte	0x53
 3298 018a 00000000 		.4byte	0
 3299 018e 00000000 		.4byte	0
ARM GAS  /tmp/ccxqjOgZ.s 			page 59


 3300              	.LLST13:
 3301 0192 00000000 		.4byte	.LVL32
 3302 0196 22000000 		.4byte	.LVL34
 3303 019a 0100     		.2byte	0x1
 3304 019c 50       		.byte	0x50
 3305 019d 22000000 		.4byte	.LVL34
 3306 01a1 34000000 		.4byte	.LFE126
 3307 01a5 0400     		.2byte	0x4
 3308 01a7 F3       		.byte	0xf3
 3309 01a8 01       		.uleb128 0x1
 3310 01a9 50       		.byte	0x50
 3311 01aa 9F       		.byte	0x9f
 3312 01ab 00000000 		.4byte	0
 3313 01af 00000000 		.4byte	0
 3314              	.LLST14:
 3315 01b3 0C000000 		.4byte	.LVL33
 3316 01b7 24000000 		.4byte	.LVL35
 3317 01bb 0100     		.2byte	0x1
 3318 01bd 53       		.byte	0x53
 3319 01be 24000000 		.4byte	.LVL35
 3320 01c2 2D000000 		.4byte	.LVL36-1
 3321 01c6 0500     		.2byte	0x5
 3322 01c8 F3       		.byte	0xf3
 3323 01c9 01       		.uleb128 0x1
 3324 01ca 50       		.byte	0x50
 3325 01cb 23       		.byte	0x23
 3326 01cc 74       		.uleb128 0x74
 3327 01cd 00000000 		.4byte	0
 3328 01d1 00000000 		.4byte	0
 3329              		.section	.debug_aranges,"",%progbits
 3330 0000 3C000000 		.4byte	0x3c
 3331 0004 0200     		.2byte	0x2
 3332 0006 00000000 		.4byte	.Ldebug_info0
 3333 000a 04       		.byte	0x4
 3334 000b 00       		.byte	0
 3335 000c 0000     		.2byte	0
 3336 000e 0000     		.2byte	0
 3337 0010 00000000 		.4byte	.LFB122
 3338 0014 10000000 		.4byte	.LFE122-.LFB122
 3339 0018 00000000 		.4byte	.LFB123
 3340 001c FC000000 		.4byte	.LFE123-.LFB123
 3341 0020 00000000 		.4byte	.LFB124
 3342 0024 28000000 		.4byte	.LFE124-.LFB124
 3343 0028 00000000 		.4byte	.LFB125
 3344 002c 6C000000 		.4byte	.LFE125-.LFB125
 3345 0030 00000000 		.4byte	.LFB126
 3346 0034 34000000 		.4byte	.LFE126-.LFB126
 3347 0038 00000000 		.4byte	0
 3348 003c 00000000 		.4byte	0
 3349              		.section	.debug_ranges,"",%progbits
 3350              	.Ldebug_ranges0:
 3351 0000 02000000 		.4byte	.LBB32
 3352 0004 40000000 		.4byte	.LBE32
 3353 0008 48000000 		.4byte	.LBB49
 3354 000c FC000000 		.4byte	.LBE49
 3355 0010 00000000 		.4byte	0
 3356 0014 00000000 		.4byte	0
ARM GAS  /tmp/ccxqjOgZ.s 			page 60


 3357 0018 AE000000 		.4byte	.LBB44
 3358 001c CA000000 		.4byte	.LBE44
 3359 0020 DA000000 		.4byte	.LBB47
 3360 0024 FC000000 		.4byte	.LBE47
 3361 0028 00000000 		.4byte	0
 3362 002c 00000000 		.4byte	0
 3363 0030 0C000000 		.4byte	.LBB52
 3364 0034 0E000000 		.4byte	.LBE52
 3365 0038 10000000 		.4byte	.LBB55
 3366 003c 16000000 		.4byte	.LBE55
 3367 0040 00000000 		.4byte	0
 3368 0044 00000000 		.4byte	0
 3369 0048 00000000 		.4byte	.LFB122
 3370 004c 10000000 		.4byte	.LFE122
 3371 0050 00000000 		.4byte	.LFB123
 3372 0054 FC000000 		.4byte	.LFE123
 3373 0058 00000000 		.4byte	.LFB124
 3374 005c 28000000 		.4byte	.LFE124
 3375 0060 00000000 		.4byte	.LFB125
 3376 0064 6C000000 		.4byte	.LFE125
 3377 0068 00000000 		.4byte	.LFB126
 3378 006c 34000000 		.4byte	.LFE126
 3379 0070 00000000 		.4byte	0
 3380 0074 00000000 		.4byte	0
 3381              		.section	.debug_line,"",%progbits
 3382              	.Ldebug_line0:
 3383 0000 FD020000 		.section	.debug_str,"MS",%progbits,1
 3383      02002E02 
 3383      00000201 
 3383      FB0E0D00 
 3383      01010101 
 3384              	.LASF2:
 3385 0000 73697A65 		.ascii	"size_t\000"
 3385      5F7400
 3386              	.LASF66:
 3387 0007 7264796D 		.ascii	"rdymsg\000"
 3387      736700
 3388              	.LASF82:
 3389 000e 4F757470 		.ascii	"OutputQueue\000"
 3389      75745175 
 3389      65756500 
 3390              	.LASF3:
 3391 001a 5F5F7569 		.ascii	"__uint8_t\000"
 3391      6E74385F 
 3391      7400
 3392              	.LASF125:
 3393 0024 7365745F 		.ascii	"set_error\000"
 3393      6572726F 
 3393      7200
 3394              	.LASF135:
 3395 002e 6E766963 		.ascii	"nvicEnableVector\000"
 3395      456E6162 
 3395      6C655665 
 3395      63746F72 
 3395      00
 3396              	.LASF13:
 3397 003f 6C6F6E67 		.ascii	"long long unsigned int\000"
ARM GAS  /tmp/ccxqjOgZ.s 			page 61


 3397      206C6F6E 
 3397      6720756E 
 3397      7369676E 
 3397      65642069 
 3398              	.LASF67:
 3399 0056 65786974 		.ascii	"exitcode\000"
 3399      636F6465 
 3399      00
 3400              	.LASF131:
 3401 005f 49544D5F 		.ascii	"ITM_RxBuffer\000"
 3401      52784275 
 3401      66666572 
 3401      00
 3402              	.LASF134:
 3403 006c 73644F62 		.ascii	"sdObjectInit\000"
 3403      6A656374 
 3403      496E6974 
 3403      00
 3404              	.LASF121:
 3405 0079 72656164 		.ascii	"readt\000"
 3405      7400
 3406              	.LASF72:
 3407 007f 715F7761 		.ascii	"q_waiting\000"
 3407      6974696E 
 3407      6700
 3408              	.LASF12:
 3409 0089 6C6F6E67 		.ascii	"long long int\000"
 3409      206C6F6E 
 3409      6720696E 
 3409      7400
 3410              	.LASF1:
 3411 0097 7369676E 		.ascii	"signed char\000"
 3411      65642063 
 3411      68617200 
 3412              	.LASF95:
 3413 00a3 47545052 		.ascii	"GTPR\000"
 3413      00
 3414              	.LASF48:
 3415 00a8 705F6D70 		.ascii	"p_mpool\000"
 3415      6F6F6C00 
 3416              	.LASF18:
 3417 00b0 626F6F6C 		.ascii	"bool_t\000"
 3417      5F7400
 3418              	.LASF56:
 3419 00b7 6D5F7175 		.ascii	"m_queue\000"
 3419      65756500 
 3420              	.LASF23:
 3421 00bf 74736C69 		.ascii	"tslices_t\000"
 3421      6365735F 
 3421      7400
 3422              	.LASF93:
 3423 00c9 5243435F 		.ascii	"RCC_TypeDef\000"
 3423      54797065 
 3423      44656600 
 3424              	.LASF140:
 3425 00d5 64656661 		.ascii	"default_config\000"
 3425      756C745F 
ARM GAS  /tmp/ccxqjOgZ.s 			page 62


 3425      636F6E66 
 3425      696700
 3426              	.LASF108:
 3427 00e4 73746174 		.ascii	"state\000"
 3427      6500
 3428              	.LASF9:
 3429 00ea 6C6F6E67 		.ascii	"long int\000"
 3429      20696E74 
 3429      00
 3430              	.LASF84:
 3431 00f3 41504232 		.ascii	"APB2RSTR\000"
 3431      52535452 
 3431      00
 3432              	.LASF21:
 3433 00fc 74737461 		.ascii	"tstate_t\000"
 3433      74655F74 
 3433      00
 3434              	.LASF141:
 3435 0105 63684F51 		.ascii	"chOQGetI\000"
 3435      47657449 
 3435      00
 3436              	.LASF39:
 3437 010e 705F7265 		.ascii	"p_refs\000"
 3437      667300
 3438              	.LASF74:
 3439 0115 715F6275 		.ascii	"q_buffer\000"
 3439      66666572 
 3439      00
 3440              	.LASF76:
 3441 011e 715F7772 		.ascii	"q_wrptr\000"
 3441      70747200 
 3442              	.LASF41:
 3443 0126 705F7469 		.ascii	"p_time\000"
 3443      6D6500
 3444              	.LASF132:
 3445 012d 63684576 		.ascii	"chEvtBroadcastFlagsI\000"
 3445      7442726F 
 3445      61646361 
 3445      7374466C 
 3445      61677349 
 3446              	.LASF34:
 3447 0142 705F6E65 		.ascii	"p_newer\000"
 3447      77657200 
 3448              	.LASF10:
 3449 014a 5F5F7569 		.ascii	"__uint32_t\000"
 3449      6E743332 
 3449      5F7400
 3450              	.LASF51:
 3451 0155 72656761 		.ascii	"regarm_t\000"
 3451      726D5F74 
 3451      00
 3452              	.LASF124:
 3453 015e 75736172 		.ascii	"usart_deinit\000"
 3453      745F6465 
 3453      696E6974 
 3453      00
 3454              	.LASF64:
ARM GAS  /tmp/ccxqjOgZ.s 			page 63


 3455 016b 4576656E 		.ascii	"EventSource\000"
 3455      74536F75 
 3455      72636500 
 3456              	.LASF111:
 3457 0177 75736172 		.ascii	"usart\000"
 3457      7400
 3458              	.LASF0:
 3459 017d 756E7369 		.ascii	"unsigned int\000"
 3459      676E6564 
 3459      20696E74 
 3459      00
 3460              	.LASF15:
 3461 018a 75696E74 		.ascii	"uint16_t\000"
 3461      31365F74 
 3461      00
 3462              	.LASF115:
 3463 0193 53657269 		.ascii	"SerialDriverVMT\000"
 3463      616C4472 
 3463      69766572 
 3463      564D5400 
 3464              	.LASF109:
 3465 01a3 69717565 		.ascii	"iqueue\000"
 3465      756500
 3466              	.LASF43:
 3467 01aa 705F6D73 		.ascii	"p_msgqueue\000"
 3467      67717565 
 3467      756500
 3468              	.LASF128:
 3469 01b5 73645F6C 		.ascii	"sd_lld_init\000"
 3469      6C645F69 
 3469      6E697400 
 3470              	.LASF119:
 3471 01c1 67657474 		.ascii	"gett\000"
 3471      00
 3472              	.LASF107:
 3473 01c6 6576656E 		.ascii	"event\000"
 3473      7400
 3474              	.LASF7:
 3475 01cc 73686F72 		.ascii	"short unsigned int\000"
 3475      7420756E 
 3475      7369676E 
 3475      65642069 
 3475      6E7400
 3476              	.LASF25:
 3477 01df 6D73675F 		.ascii	"msg_t\000"
 3477      7400
 3478              	.LASF110:
 3479 01e5 6F717565 		.ascii	"oqueue\000"
 3479      756500
 3480              	.LASF142:
 3481 01ec 5F706F72 		.ascii	"_port_irq_epilogue\000"
 3481      745F6972 
 3481      715F6570 
 3481      696C6F67 
 3481      756500
 3482              	.LASF101:
 3483 01ff 55534152 		.ascii	"USART_TypeDef\000"
ARM GAS  /tmp/ccxqjOgZ.s 			page 64


 3483      545F5479 
 3483      70654465 
 3483      6600
 3484              	.LASF120:
 3485 020d 77726974 		.ascii	"writet\000"
 3485      657400
 3486              	.LASF20:
 3487 0214 746D6F64 		.ascii	"tmode_t\000"
 3487      655F7400 
 3488              	.LASF50:
 3489 021c 54687265 		.ascii	"ThreadsList\000"
 3489      6164734C 
 3489      69737400 
 3490              	.LASF26:
 3491 0228 6576656E 		.ascii	"eventmask_t\000"
 3491      746D6173 
 3491      6B5F7400 
 3492              	.LASF127:
 3493 0234 56656374 		.ascii	"VectorD4\000"
 3493      6F724434 
 3493      00
 3494              	.LASF113:
 3495 023d 73706565 		.ascii	"speed\000"
 3495      6400
 3496              	.LASF80:
 3497 0243 716E6F74 		.ascii	"qnotify_t\000"
 3497      6966795F 
 3497      7400
 3498              	.LASF71:
 3499 024d 47656E65 		.ascii	"GenericQueue\000"
 3499      72696351 
 3499      75657565 
 3499      00
 3500              	.LASF138:
 3501 025a 2F686F6D 		.ascii	"/home/austin/git/personal/school/motor_control/chib"
 3501      652F6175 
 3501      7374696E 
 3501      2F676974 
 3501      2F706572 
 3502 028d 696F732F 		.ascii	"ios/demos/ARMCM4-STM32F303-DISCOVERY\000"
 3502      64656D6F 
 3502      732F4152 
 3502      4D434D34 
 3502      2D53544D 
 3503              	.LASF116:
 3504 02b2 77726974 		.ascii	"write\000"
 3504      6500
 3505              	.LASF118:
 3506 02b8 70757474 		.ascii	"putt\000"
 3506      00
 3507              	.LASF123:
 3508 02bd 75736172 		.ascii	"usart_init\000"
 3508      745F696E 
 3508      697400
 3509              	.LASF136:
 3510 02c8 474E5520 		.ascii	"GNU C 4.9.3 20141119 (release) [ARM/embedded-4_9-br"
 3510      4320342E 
ARM GAS  /tmp/ccxqjOgZ.s 			page 65


 3510      392E3320 
 3510      32303134 
 3510      31313139 
 3511 02fb 616E6368 		.ascii	"anch revision 218278] -mcpu=cortex-m4 -mno-thumb-in"
 3511      20726576 
 3511      6973696F 
 3511      6E203231 
 3511      38323738 
 3512 032e 74657277 		.ascii	"terwork -mthumb -ggdb -O2 -fomit-frame-pointer -fal"
 3512      6F726B20 
 3512      2D6D7468 
 3512      756D6220 
 3512      2D676764 
 3513 0361 69676E2D 		.ascii	"ign-functions=16 -ffunction-sections -fdata-section"
 3513      66756E63 
 3513      74696F6E 
 3513      733D3136 
 3513      202D6666 
 3514 0394 73202D66 		.ascii	"s -fno-common\000"
 3514      6E6F2D63 
 3514      6F6D6D6F 
 3514      6E00
 3515              	.LASF54:
 3516 03a2 73697A65 		.ascii	"sizetype\000"
 3516      74797065 
 3516      00
 3517              	.LASF73:
 3518 03ab 715F636F 		.ascii	"q_counter\000"
 3518      756E7465 
 3518      7200
 3519              	.LASF55:
 3520 03b5 4D757465 		.ascii	"Mutex\000"
 3520      7800
 3521              	.LASF30:
 3522 03bb 705F6E65 		.ascii	"p_next\000"
 3522      787400
 3523              	.LASF35:
 3524 03c2 705F6F6C 		.ascii	"p_older\000"
 3524      64657200 
 3525              	.LASF49:
 3526 03ca 54687265 		.ascii	"ThreadsQueue\000"
 3526      61647351 
 3526      75657565 
 3526      00
 3527              	.LASF90:
 3528 03d7 41484252 		.ascii	"AHBRSTR\000"
 3528      53545200 
 3529              	.LASF85:
 3530 03df 41504231 		.ascii	"APB1RSTR\000"
 3530      52535452 
 3530      00
 3531              	.LASF62:
 3532 03e8 656C5F6D 		.ascii	"el_mask\000"
 3532      61736B00 
 3533              	.LASF114:
 3534 03f0 53657269 		.ascii	"SerialConfig\000"
 3534      616C436F 
ARM GAS  /tmp/ccxqjOgZ.s 			page 66


 3534      6E666967 
 3534      00
 3535              	.LASF139:
 3536 03fd 6E6F7469 		.ascii	"notify1\000"
 3536      66793100 
 3537              	.LASF22:
 3538 0405 74726566 		.ascii	"trefs_t\000"
 3538      735F7400 
 3539              	.LASF94:
 3540 040d 52455345 		.ascii	"RESERVED1\000"
 3540      52564544 
 3540      3100
 3541              	.LASF96:
 3542 0417 52455345 		.ascii	"RESERVED2\000"
 3542      52564544 
 3542      3200
 3543              	.LASF98:
 3544 0421 52455345 		.ascii	"RESERVED3\000"
 3544      52564544 
 3544      3300
 3545              	.LASF99:
 3546 042b 52455345 		.ascii	"RESERVED4\000"
 3546      52564544 
 3546      3400
 3547              	.LASF31:
 3548 0435 705F7072 		.ascii	"p_prev\000"
 3548      657600
 3549              	.LASF24:
 3550 043c 74707269 		.ascii	"tprio_t\000"
 3550      6F5F7400 
 3551              	.LASF77:
 3552 0444 715F7264 		.ascii	"q_rdptr\000"
 3552      70747200 
 3553              	.LASF19:
 3554 044c 5F426F6F 		.ascii	"_Bool\000"
 3554      6C00
 3555              	.LASF16:
 3556 0452 696E7433 		.ascii	"int32_t\000"
 3556      325F7400 
 3557              	.LASF4:
 3558 045a 756E7369 		.ascii	"unsigned char\000"
 3558      676E6564 
 3558      20636861 
 3558      7200
 3559              	.LASF129:
 3560 0468 73645F6C 		.ascii	"sd_lld_start\000"
 3560      6C645F73 
 3560      74617274 
 3560      00
 3561              	.LASF61:
 3562 0475 656C5F6C 		.ascii	"el_listener\000"
 3562      69737465 
 3562      6E657200 
 3563              	.LASF63:
 3564 0481 656C5F66 		.ascii	"el_flags\000"
 3564      6C616773 
 3564      00
ARM GAS  /tmp/ccxqjOgZ.s 			page 67


 3565              	.LASF37:
 3566 048a 705F7374 		.ascii	"p_state\000"
 3566      61746500 
 3567              	.LASF46:
 3568 0492 705F6D74 		.ascii	"p_mtxlist\000"
 3568      786C6973 
 3568      7400
 3569              	.LASF5:
 3570 049c 73686F72 		.ascii	"short int\000"
 3570      7420696E 
 3570      7400
 3571              	.LASF40:
 3572 04a6 705F7072 		.ascii	"p_preempt\000"
 3572      65656D70 
 3572      7400
 3573              	.LASF69:
 3574 04b0 65776D61 		.ascii	"ewmask\000"
 3574      736B00
 3575              	.LASF38:
 3576 04b7 705F666C 		.ascii	"p_flags\000"
 3576      61677300 
 3577              	.LASF60:
 3578 04bf 656C5F6E 		.ascii	"el_next\000"
 3578      65787400 
 3579              	.LASF103:
 3580 04c7 53445F53 		.ascii	"SD_STOP\000"
 3580      544F5000 
 3581              	.LASF87:
 3582 04cf 41504232 		.ascii	"APB2ENR\000"
 3582      454E5200 
 3583              	.LASF29:
 3584 04d7 54687265 		.ascii	"Thread\000"
 3584      616400
 3585              	.LASF126:
 3586 04de 73657276 		.ascii	"serve_interrupt\000"
 3586      655F696E 
 3586      74657272 
 3586      75707400 
 3587              	.LASF45:
 3588 04ee 705F6570 		.ascii	"p_epending\000"
 3588      656E6469 
 3588      6E6700
 3589              	.LASF102:
 3590 04f9 53445F55 		.ascii	"SD_UNINIT\000"
 3590      4E494E49 
 3590      5400
 3591              	.LASF100:
 3592 0503 52455345 		.ascii	"RESERVED5\000"
 3592      52564544 
 3592      3500
 3593              	.LASF17:
 3594 050d 75696E74 		.ascii	"uint32_t\000"
 3594      33325F74 
 3594      00
 3595              	.LASF105:
 3596 0516 73647374 		.ascii	"sdstate_t\000"
 3596      6174655F 
ARM GAS  /tmp/ccxqjOgZ.s 			page 68


 3596      7400
 3597              	.LASF106:
 3598 0520 53657269 		.ascii	"SerialDriver\000"
 3598      616C4472 
 3598      69766572 
 3598      00
 3599              	.LASF143:
 3600 052d 6E766963 		.ascii	"nvicDisableVector\000"
 3600      44697361 
 3600      626C6556 
 3600      6563746F 
 3600      7200
 3601              	.LASF11:
 3602 053f 6C6F6E67 		.ascii	"long unsigned int\000"
 3602      20756E73 
 3602      69676E65 
 3602      6420696E 
 3602      7400
 3603              	.LASF117:
 3604 0551 72656164 		.ascii	"read\000"
 3604      00
 3605              	.LASF70:
 3606 0556 63686172 		.ascii	"char\000"
 3606      00
 3607              	.LASF133:
 3608 055b 7364496E 		.ascii	"sdIncomingDataI\000"
 3608      636F6D69 
 3608      6E674461 
 3608      74614900 
 3609              	.LASF122:
 3610 056b 636F6E66 		.ascii	"config\000"
 3610      696700
 3611              	.LASF6:
 3612 0572 5F5F7569 		.ascii	"__uint16_t\000"
 3612      6E743136 
 3612      5F7400
 3613              	.LASF58:
 3614 057d 6D5F6E65 		.ascii	"m_next\000"
 3614      787400
 3615              	.LASF28:
 3616 0584 73797374 		.ascii	"systime_t\000"
 3616      696D655F 
 3616      7400
 3617              	.LASF47:
 3618 058e 705F7265 		.ascii	"p_realprio\000"
 3618      616C7072 
 3618      696F00
 3619              	.LASF8:
 3620 0599 5F5F696E 		.ascii	"__int32_t\000"
 3620      7433325F 
 3620      7400
 3621              	.LASF137:
 3622 05a3 2E2E2F2E 		.ascii	"../../os/hal/platforms/STM32/USARTv2/serial_lld.c\000"
 3622      2E2F6F73 
 3622      2F68616C 
 3622      2F706C61 
 3622      74666F72 
ARM GAS  /tmp/ccxqjOgZ.s 			page 69


 3623              	.LASF97:
 3624 05d5 52544F52 		.ascii	"RTOR\000"
 3624      00
 3625              	.LASF88:
 3626 05da 41504231 		.ascii	"APB1ENR\000"
 3626      454E5200 
 3627              	.LASF53:
 3628 05e2 636F6E74 		.ascii	"context\000"
 3628      65787400 
 3629              	.LASF52:
 3630 05ea 696E7463 		.ascii	"intctx\000"
 3630      747800
 3631              	.LASF104:
 3632 05f1 53445F52 		.ascii	"SD_READY\000"
 3632      45414459 
 3632      00
 3633              	.LASF27:
 3634 05fa 666C6167 		.ascii	"flagsmask_t\000"
 3634      736D6173 
 3634      6B5F7400 
 3635              	.LASF75:
 3636 0606 715F746F 		.ascii	"q_top\000"
 3636      7000
 3637              	.LASF36:
 3638 060c 705F6E61 		.ascii	"p_name\000"
 3638      6D6500
 3639              	.LASF65:
 3640 0613 65735F6E 		.ascii	"es_next\000"
 3640      65787400 
 3641              	.LASF89:
 3642 061b 42444352 		.ascii	"BDCR\000"
 3642      00
 3643              	.LASF78:
 3644 0620 715F6E6F 		.ascii	"q_notify\000"
 3644      74696679 
 3644      00
 3645              	.LASF44:
 3646 0629 705F6D73 		.ascii	"p_msg\000"
 3646      6700
 3647              	.LASF91:
 3648 062f 43464752 		.ascii	"CFGR2\000"
 3648      3200
 3649              	.LASF92:
 3650 0635 43464752 		.ascii	"CFGR3\000"
 3650      3300
 3651              	.LASF14:
 3652 063b 75696E74 		.ascii	"uint8_t\000"
 3652      385F7400 
 3653              	.LASF81:
 3654 0643 496E7075 		.ascii	"InputQueue\000"
 3654      74517565 
 3654      756500
 3655              	.LASF32:
 3656 064e 705F7072 		.ascii	"p_prio\000"
 3656      696F00
 3657              	.LASF59:
 3658 0655 4576656E 		.ascii	"EventListener\000"
ARM GAS  /tmp/ccxqjOgZ.s 			page 70


 3658      744C6973 
 3658      74656E65 
 3658      7200
 3659              	.LASF68:
 3660 0663 77746F62 		.ascii	"wtobjp\000"
 3660      6A7000
 3661              	.LASF83:
 3662 066a 43464752 		.ascii	"CFGR\000"
 3662      00
 3663              	.LASF112:
 3664 066f 636C6F63 		.ascii	"clock\000"
 3664      6B00
 3665              	.LASF130:
 3666 0675 73645F6C 		.ascii	"sd_lld_stop\000"
 3666      6C645F73 
 3666      746F7000 
 3667              	.LASF79:
 3668 0681 715F6C69 		.ascii	"q_link\000"
 3668      6E6B00
 3669              	.LASF57:
 3670 0688 6D5F6F77 		.ascii	"m_owner\000"
 3670      6E657200 
 3671              	.LASF33:
 3672 0690 705F6374 		.ascii	"p_ctx\000"
 3672      7800
 3673              	.LASF42:
 3674 0696 705F7761 		.ascii	"p_waiting\000"
 3674      6974696E 
 3674      6700
 3675              	.LASF86:
 3676 06a0 41484245 		.ascii	"AHBENR\000"
 3676      4E5200
 3677              		.ident	"GCC: (GNU Tools for ARM Embedded Processors) 4.9.3 20141119 (release) [ARM/embedded-4_9-br
ARM GAS  /tmp/ccxqjOgZ.s 			page 71


DEFINED SYMBOLS
                            *ABS*:0000000000000000 serial_lld.c
     /tmp/ccxqjOgZ.s:19     .text.notify1:0000000000000000 $t
     /tmp/ccxqjOgZ.s:24     .text.notify1:0000000000000000 notify1
     /tmp/ccxqjOgZ.s:42     .text.notify1:000000000000000c $d
     /tmp/ccxqjOgZ.s:47     .text.VectorD4:0000000000000000 $t
     /tmp/ccxqjOgZ.s:53     .text.VectorD4:0000000000000000 VectorD4
     /tmp/ccxqjOgZ.s:309    .text.VectorD4:00000000000000f0 $d
     /tmp/ccxqjOgZ.s:319    .text.sd_lld_init:0000000000000000 $t
     /tmp/ccxqjOgZ.s:325    .text.sd_lld_init:0000000000000000 sd_lld_init
     /tmp/ccxqjOgZ.s:354    .text.sd_lld_init:0000000000000018 $d
     /tmp/ccxqjOgZ.s:362    .text.sd_lld_start:0000000000000000 $t
     /tmp/ccxqjOgZ.s:368    .text.sd_lld_start:0000000000000000 sd_lld_start
     /tmp/ccxqjOgZ.s:458    .text.sd_lld_start:0000000000000060 $d
     /tmp/ccxqjOgZ.s:465    .text.sd_lld_stop:0000000000000000 $t
     /tmp/ccxqjOgZ.s:471    .text.sd_lld_stop:0000000000000000 sd_lld_stop
     /tmp/ccxqjOgZ.s:528    .text.sd_lld_stop:0000000000000030 $d
     /tmp/ccxqjOgZ.s:548    .bss.SD1:0000000000000000 SD1
     /tmp/ccxqjOgZ.s:534    .rodata.default_config:0000000000000000 $d
     /tmp/ccxqjOgZ.s:538    .rodata.default_config:0000000000000000 default_config
     /tmp/ccxqjOgZ.s:544    .bss.SD1:0000000000000000 $d
                     .debug_frame:0000000000000010 $d
     /tmp/ccxqjOgZ.s:318    .text.VectorD4:00000000000000fc $t
     /tmp/ccxqjOgZ.s:361    .text.sd_lld_init:0000000000000028 $t
     /tmp/ccxqjOgZ.s:464    .text.sd_lld_start:000000000000006c $t
     /tmp/ccxqjOgZ.s:533    .text.sd_lld_stop:0000000000000034 $t

UNDEFINED SYMBOLS
_port_irq_epilogue
sdIncomingDataI
chEvtBroadcastFlagsI
chOQGetI
sdObjectInit
nvicEnableVector
nvicDisableVector
