ARM GAS  /tmp/ccqhqfCM.s 			page 1


   1              		.syntax unified
   2              		.cpu cortex-m4
   3              		.fpu softvfp
   4              		.eabi_attribute 20, 1
   5              		.eabi_attribute 21, 1
   6              		.eabi_attribute 23, 3
   7              		.eabi_attribute 24, 1
   8              		.eabi_attribute 25, 1
   9              		.eabi_attribute 26, 1
  10              		.eabi_attribute 30, 2
  11              		.eabi_attribute 34, 1
  12              		.eabi_attribute 18, 4
  13              		.thumb
  14              		.file	"chcond.c"
  15              		.text
  16              	.Ltext0:
  17              		.cfi_sections	.debug_frame
  18              		.section	.text.chCondInit,"ax",%progbits
  19              		.align	2
  20              		.p2align 4,,15
  21              		.global	chCondInit
  22              		.thumb
  23              		.thumb_func
  24              		.type	chCondInit, %function
  25              	chCondInit:
  26              	.LFB7:
  27              		.file 1 "/home/austin/git/personal/school/motor_control/chibios/os/kernel/src/chcond.c"
  28              		.loc 1 59 0
  29              		.cfi_startproc
  30              		@ args = 0, pretend = 0, frame = 0
  31              		@ frame_needed = 0, uses_anonymous_args = 0
  32              		@ link register save eliminated.
  33              	.LVL0:
  34              		.loc 1 63 0
  35 0000 4060     		str	r0, [r0, #4]
  36 0002 0060     		str	r0, [r0]
  37 0004 7047     		bx	lr
  38              		.cfi_endproc
  39              	.LFE7:
  40              		.size	chCondInit, .-chCondInit
  41 0006 00BFAFF3 		.section	.text.chCondSignal,"ax",%progbits
  41      0080AFF3 
  41      0080
  42              		.align	2
  43              		.p2align 4,,15
  44              		.global	chCondSignal
  45              		.thumb
  46              		.thumb_func
  47              		.type	chCondSignal, %function
  48              	chCondSignal:
  49              	.LFB8:
  50              		.loc 1 73 0
  51              		.cfi_startproc
  52              		@ args = 0, pretend = 0, frame = 0
  53              		@ frame_needed = 0, uses_anonymous_args = 0
  54              	.LVL1:
  55 0000 08B5     		push	{r3, lr}
ARM GAS  /tmp/ccqhqfCM.s 			page 2


  56              		.cfi_def_cfa_offset 8
  57              		.cfi_offset 3, -8
  58              		.cfi_offset 14, -4
  59              	.LBB14:
  60              		.loc 1 77 0
  61 0002 2023     		movs	r3, #32
  62              	@ 77 "/home/austin/git/personal/school/motor_control/chibios/os/kernel/src/chcond.c" 1
  63 0004 83F31188 		msr     BASEPRI, r3
  64              	@ 0 "" 2
  65              		.thumb
  66              	.LBE14:
  67              		.loc 1 78 0
  68 0008 0268     		ldr	r2, [r0]
  69 000a 8242     		cmp	r2, r0
  70 000c 07D0     		beq	.L3
  71              	.LBB15:
  72              	.LBB16:
  73              		.file 2 "/home/austin/git/personal/school/motor_control/chibios/os/kernel/include/chinline.h"
  74              		.loc 2 62 0
  75 000e 1168     		ldr	r1, [r2]
  76 0010 0160     		str	r1, [r0]
  77 0012 0346     		mov	r3, r0
  78              	.LVL2:
  79 0014 4B60     		str	r3, [r1, #4]
  80              	.LBE16:
  81              	.LBE15:
  82              		.loc 1 79 0
  83 0016 1046     		mov	r0, r2
  84              	.LVL3:
  85 0018 0021     		movs	r1, #0
  86 001a FFF7FEFF 		bl	chSchWakeupS
  87              	.LVL4:
  88              	.L3:
  89              	.LBB17:
  90              		.loc 1 80 0
  91 001e 0023     		movs	r3, #0
  92              	@ 80 "/home/austin/git/personal/school/motor_control/chibios/os/kernel/src/chcond.c" 1
  93 0020 83F31188 		msr     BASEPRI, r3
  94              	@ 0 "" 2
  95              		.thumb
  96 0024 08BD     		pop	{r3, pc}
  97              	.LBE17:
  98              		.cfi_endproc
  99              	.LFE8:
 100              		.size	chCondSignal, .-chCondSignal
 101 0026 00BFAFF3 		.section	.text.chCondSignalI,"ax",%progbits
 101      0080AFF3 
 101      0080
 102              		.align	2
 103              		.p2align 4,,15
 104              		.global	chCondSignalI
 105              		.thumb
 106              		.thumb_func
 107              		.type	chCondSignalI, %function
 108              	chCondSignalI:
 109              	.LFB9:
 110              		.loc 1 94 0
ARM GAS  /tmp/ccqhqfCM.s 			page 3


 111              		.cfi_startproc
 112              		@ args = 0, pretend = 0, frame = 0
 113              		@ frame_needed = 0, uses_anonymous_args = 0
 114              	.LVL5:
 115              		.loc 1 99 0
 116 0000 0268     		ldr	r2, [r0]
 117 0002 8242     		cmp	r2, r0
 118 0004 0AD0     		beq	.L9
 119              	.LBB18:
 120              	.LBB19:
 121              		.loc 2 62 0
 122 0006 1168     		ldr	r1, [r2]
 123              	.LBE19:
 124              	.LBE18:
 125              		.loc 1 94 0
 126 0008 08B5     		push	{r3, lr}
 127              		.cfi_def_cfa_offset 8
 128              		.cfi_offset 3, -8
 129              		.cfi_offset 14, -4
 130 000a 0346     		mov	r3, r0
 131              	.LVL6:
 132              	.LBB21:
 133              	.LBB20:
 134              		.loc 2 62 0
 135 000c 0160     		str	r1, [r0]
 136 000e 4B60     		str	r3, [r1, #4]
 137              	.LBE20:
 138              	.LBE21:
 139              		.loc 1 100 0
 140 0010 1046     		mov	r0, r2
 141              	.LVL7:
 142 0012 FFF7FEFF 		bl	chSchReadyI
 143              	.LVL8:
 144 0016 0023     		movs	r3, #0
 145 0018 4362     		str	r3, [r0, #36]
 146 001a 08BD     		pop	{r3, pc}
 147              	.LVL9:
 148              	.L9:
 149              		.cfi_def_cfa_offset 0
 150              		.cfi_restore 3
 151              		.cfi_restore 14
 152 001c 7047     		bx	lr
 153              		.cfi_endproc
 154              	.LFE9:
 155              		.size	chCondSignalI, .-chCondSignalI
 156 001e 00BF     		.section	.text.chCondBroadcastI,"ax",%progbits
 157              		.align	2
 158              		.p2align 4,,15
 159              		.global	chCondBroadcastI
 160              		.thumb
 161              		.thumb_func
 162              		.type	chCondBroadcastI, %function
 163              	chCondBroadcastI:
 164              	.LFB11:
 165              		.loc 1 129 0
 166              		.cfi_startproc
 167              		@ args = 0, pretend = 0, frame = 0
ARM GAS  /tmp/ccqhqfCM.s 			page 4


 168              		@ frame_needed = 0, uses_anonymous_args = 0
 169              	.LVL10:
 170 0000 38B5     		push	{r3, r4, r5, lr}
 171              		.cfi_def_cfa_offset 16
 172              		.cfi_offset 3, -16
 173              		.cfi_offset 4, -12
 174              		.cfi_offset 5, -8
 175              		.cfi_offset 14, -4
 176              		.loc 1 129 0
 177 0002 0446     		mov	r4, r0
 178              		.loc 1 137 0
 179 0004 0068     		ldr	r0, [r0]
 180              	.LVL11:
 181 0006 A042     		cmp	r0, r4
 182 0008 0AD0     		beq	.L10
 183              		.loc 1 138 0
 184 000a 6FF00105 		mvn	r5, #1
 185              	.L12:
 186              	.LVL12:
 187              	.LBB22:
 188              	.LBB23:
 189              		.loc 2 62 0
 190 000e 0368     		ldr	r3, [r0]
 191 0010 2360     		str	r3, [r4]
 192 0012 5C60     		str	r4, [r3, #4]
 193              	.LBE23:
 194              	.LBE22:
 195              		.loc 1 138 0
 196 0014 FFF7FEFF 		bl	chSchReadyI
 197              	.LVL13:
 198 0018 4562     		str	r5, [r0, #36]
 199              		.loc 1 137 0
 200 001a 2068     		ldr	r0, [r4]
 201 001c A042     		cmp	r0, r4
 202 001e F6D1     		bne	.L12
 203              	.LVL14:
 204              	.L10:
 205 0020 38BD     		pop	{r3, r4, r5, pc}
 206              		.cfi_endproc
 207              	.LFE11:
 208              		.size	chCondBroadcastI, .-chCondBroadcastI
 209 0022 00BFAFF3 		.section	.text.chCondBroadcast,"ax",%progbits
 209      0080AFF3 
 209      0080AFF3 
 209      0080
 210              		.align	2
 211              		.p2align 4,,15
 212              		.global	chCondBroadcast
 213              		.thumb
 214              		.thumb_func
 215              		.type	chCondBroadcast, %function
 216              	chCondBroadcast:
 217              	.LFB10:
 218              		.loc 1 110 0
 219              		.cfi_startproc
 220              		@ args = 0, pretend = 0, frame = 0
 221              		@ frame_needed = 0, uses_anonymous_args = 0
ARM GAS  /tmp/ccqhqfCM.s 			page 5


 222              	.LVL15:
 223 0000 08B5     		push	{r3, lr}
 224              		.cfi_def_cfa_offset 8
 225              		.cfi_offset 3, -8
 226              		.cfi_offset 14, -4
 227              	.LBB24:
 228              		.loc 1 112 0
 229 0002 2023     		movs	r3, #32
 230              	@ 112 "/home/austin/git/personal/school/motor_control/chibios/os/kernel/src/chcond.c" 1
 231 0004 83F31188 		msr     BASEPRI, r3
 232              	@ 0 "" 2
 233              		.thumb
 234              	.LBE24:
 235              		.loc 1 113 0
 236 0008 FFF7FEFF 		bl	chCondBroadcastI
 237              	.LVL16:
 238              		.loc 1 114 0
 239 000c FFF7FEFF 		bl	chSchRescheduleS
 240              	.LVL17:
 241              	.LBB25:
 242              		.loc 1 115 0
 243 0010 0023     		movs	r3, #0
 244              	@ 115 "/home/austin/git/personal/school/motor_control/chibios/os/kernel/src/chcond.c" 1
 245 0012 83F31188 		msr     BASEPRI, r3
 246              	@ 0 "" 2
 247              		.thumb
 248 0016 08BD     		pop	{r3, pc}
 249              	.LBE25:
 250              		.cfi_endproc
 251              	.LFE10:
 252              		.size	chCondBroadcast, .-chCondBroadcast
 253 0018 AFF30080 		.section	.text.chCondWaitS,"ax",%progbits
 253      AFF30080 
 254              		.align	2
 255              		.p2align 4,,15
 256              		.global	chCondWaitS
 257              		.thumb
 258              		.thumb_func
 259              		.type	chCondWaitS, %function
 260              	chCondWaitS:
 261              	.LFB13:
 262              		.loc 1 184 0
 263              		.cfi_startproc
 264              		@ args = 0, pretend = 0, frame = 0
 265              		@ frame_needed = 0, uses_anonymous_args = 0
 266              	.LVL18:
 267              		.loc 1 185 0
 268 0000 0F4B     		ldr	r3, .L26
 269              		.loc 1 184 0
 270 0002 70B5     		push	{r4, r5, r6, lr}
 271              		.cfi_def_cfa_offset 16
 272              		.cfi_offset 4, -16
 273              		.cfi_offset 5, -12
 274              		.cfi_offset 6, -8
 275              		.cfi_offset 14, -4
 276              		.loc 1 185 0
 277 0004 9C69     		ldr	r4, [r3, #24]
ARM GAS  /tmp/ccqhqfCM.s 			page 6


 278              	.LVL19:
 279              		.loc 1 184 0
 280 0006 0546     		mov	r5, r0
 281              		.loc 1 195 0
 282 0008 FFF7FEFF 		bl	chMtxUnlockS
 283              	.LVL20:
 284              		.loc 1 196 0
 285 000c 6562     		str	r5, [r4, #36]
 286              		.loc 1 195 0
 287 000e 0646     		mov	r6, r0
 288              	.LVL21:
 289              	.LBB26:
 290              	.LBB27:
 291              		.loc 2 43 0
 292 0010 2B46     		mov	r3, r5
 293 0012 03E0     		b	.L20
 294              	.LVL22:
 295              	.L25:
 296              		.loc 2 46 0
 297 0014 9968     		ldr	r1, [r3, #8]
 298 0016 A268     		ldr	r2, [r4, #8]
 299 0018 9142     		cmp	r1, r2
 300 001a 02D3     		bcc	.L21
 301              	.L20:
 302              		.loc 2 45 0
 303 001c 1B68     		ldr	r3, [r3]
 304              	.LVL23:
 305              		.loc 2 46 0
 306 001e 9D42     		cmp	r5, r3
 307 0020 F8D1     		bne	.L25
 308              	.L21:
 309              		.loc 2 48 0
 310 0022 5A68     		ldr	r2, [r3, #4]
 311 0024 6260     		str	r2, [r4, #4]
 312              		.loc 2 47 0
 313 0026 2360     		str	r3, [r4]
 314              	.LBE27:
 315              	.LBE26:
 316              		.loc 1 198 0
 317 0028 0520     		movs	r0, #5
 318              	.LVL24:
 319              	.LBB29:
 320              	.LBB28:
 321              		.loc 2 49 0
 322 002a 5C60     		str	r4, [r3, #4]
 323 002c 1460     		str	r4, [r2]
 324              	.LBE28:
 325              	.LBE29:
 326              		.loc 1 198 0
 327 002e FFF7FEFF 		bl	chSchGoSleepS
 328              	.LVL25:
 329              		.loc 1 199 0
 330 0032 646A     		ldr	r4, [r4, #36]
 331              	.LVL26:
 332              		.loc 1 200 0
 333 0034 3046     		mov	r0, r6
 334 0036 FFF7FEFF 		bl	chMtxLockS
ARM GAS  /tmp/ccqhqfCM.s 			page 7


 335              	.LVL27:
 336              		.loc 1 202 0
 337 003a 2046     		mov	r0, r4
 338 003c 70BD     		pop	{r4, r5, r6, pc}
 339              	.LVL28:
 340              	.L27:
 341 003e 00BF     		.align	2
 342              	.L26:
 343 0040 00000000 		.word	rlist
 344              		.cfi_endproc
 345              	.LFE13:
 346              		.size	chCondWaitS, .-chCondWaitS
 347 0044 AFF30080 		.section	.text.chCondWait,"ax",%progbits
 347      AFF30080 
 347      AFF30080 
 348              		.align	2
 349              		.p2align 4,,15
 350              		.global	chCondWait
 351              		.thumb
 352              		.thumb_func
 353              		.type	chCondWait, %function
 354              	chCondWait:
 355              	.LFB12:
 356              		.loc 1 158 0
 357              		.cfi_startproc
 358              		@ args = 0, pretend = 0, frame = 0
 359              		@ frame_needed = 0, uses_anonymous_args = 0
 360              	.LVL29:
 361 0000 08B5     		push	{r3, lr}
 362              		.cfi_def_cfa_offset 8
 363              		.cfi_offset 3, -8
 364              		.cfi_offset 14, -4
 365              	.LBB30:
 366              		.loc 1 161 0
 367 0002 2023     		movs	r3, #32
 368              	@ 161 "/home/austin/git/personal/school/motor_control/chibios/os/kernel/src/chcond.c" 1
 369 0004 83F31188 		msr     BASEPRI, r3
 370              	@ 0 "" 2
 371              		.thumb
 372              	.LBE30:
 373              		.loc 1 162 0
 374 0008 FFF7FEFF 		bl	chCondWaitS
 375              	.LVL30:
 376              	.LBB31:
 377              		.loc 1 163 0
 378 000c 0023     		movs	r3, #0
 379              	@ 163 "/home/austin/git/personal/school/motor_control/chibios/os/kernel/src/chcond.c" 1
 380 000e 83F31188 		msr     BASEPRI, r3
 381              	@ 0 "" 2
 382              		.thumb
 383              	.LBE31:
 384              		.loc 1 165 0
 385 0012 08BD     		pop	{r3, pc}
 386              		.cfi_endproc
 387              	.LFE12:
 388              		.size	chCondWait, .-chCondWait
 389 0014 AFF30080 		.section	.text.chCondWaitTimeoutS,"ax",%progbits
ARM GAS  /tmp/ccqhqfCM.s 			page 8


 389      AFF30080 
 389      AFF30080 
 390              		.align	2
 391              		.p2align 4,,15
 392              		.global	chCondWaitTimeoutS
 393              		.thumb
 394              		.thumb_func
 395              		.type	chCondWaitTimeoutS, %function
 396              	chCondWaitTimeoutS:
 397              	.LFB15:
 398              		.loc 1 270 0
 399              		.cfi_startproc
 400              		@ args = 0, pretend = 0, frame = 0
 401              		@ frame_needed = 0, uses_anonymous_args = 0
 402              	.LVL31:
 403 0000 F8B5     		push	{r3, r4, r5, r6, r7, lr}
 404              		.cfi_def_cfa_offset 24
 405              		.cfi_offset 3, -24
 406              		.cfi_offset 4, -20
 407              		.cfi_offset 5, -16
 408              		.cfi_offset 6, -12
 409              		.cfi_offset 7, -8
 410              		.cfi_offset 14, -4
 411              		.loc 1 270 0
 412 0002 0546     		mov	r5, r0
 413 0004 0F46     		mov	r7, r1
 414              		.loc 1 280 0
 415 0006 FFF7FEFF 		bl	chMtxUnlockS
 416              	.LVL32:
 417              		.loc 1 281 0
 418 000a 0F4B     		ldr	r3, .L38
 419 000c 9C69     		ldr	r4, [r3, #24]
 420              		.loc 1 280 0
 421 000e 0646     		mov	r6, r0
 422              	.LVL33:
 423              	.LBB32:
 424              	.LBB33:
 425              		.loc 2 43 0
 426 0010 2B46     		mov	r3, r5
 427              	.LBE33:
 428              	.LBE32:
 429              		.loc 1 281 0
 430 0012 6562     		str	r5, [r4, #36]
 431              	.LVL34:
 432 0014 03E0     		b	.L34
 433              	.LVL35:
 434              	.L31:
 435              	.LBB37:
 436              	.LBB34:
 437              		.loc 2 46 0
 438 0016 9868     		ldr	r0, [r3, #8]
 439 0018 A268     		ldr	r2, [r4, #8]
 440 001a 9042     		cmp	r0, r2
 441 001c 02D3     		bcc	.L35
 442              	.L34:
 443              		.loc 2 45 0
 444 001e 1B68     		ldr	r3, [r3]
ARM GAS  /tmp/ccqhqfCM.s 			page 9


 445              	.LVL36:
 446              		.loc 2 46 0
 447 0020 9D42     		cmp	r5, r3
 448 0022 F8D1     		bne	.L31
 449              	.L35:
 450              		.loc 2 48 0
 451 0024 5A68     		ldr	r2, [r3, #4]
 452 0026 6260     		str	r2, [r4, #4]
 453              		.loc 2 47 0
 454 0028 2360     		str	r3, [r4]
 455              	.LBE34:
 456              	.LBE37:
 457              		.loc 1 283 0
 458 002a 3946     		mov	r1, r7
 459              	.LBB38:
 460              	.LBB35:
 461              		.loc 2 49 0
 462 002c 5C60     		str	r4, [r3, #4]
 463              	.LBE35:
 464              	.LBE38:
 465              		.loc 1 283 0
 466 002e 0520     		movs	r0, #5
 467              	.LBB39:
 468              	.LBB36:
 469              		.loc 2 49 0
 470 0030 1460     		str	r4, [r2]
 471              	.LBE36:
 472              	.LBE39:
 473              		.loc 1 283 0
 474 0032 FFF7FEFF 		bl	chSchGoSleepTimeoutS
 475              	.LVL37:
 476              		.loc 1 284 0
 477 0036 431C     		adds	r3, r0, #1
 478              		.loc 1 283 0
 479 0038 0446     		mov	r4, r0
 480              	.LVL38:
 481              		.loc 1 284 0
 482 003a 02D0     		beq	.L33
 483              		.loc 1 285 0
 484 003c 3046     		mov	r0, r6
 485              	.LVL39:
 486 003e FFF7FEFF 		bl	chMtxLockS
 487              	.LVL40:
 488              	.L33:
 489              		.loc 1 287 0
 490 0042 2046     		mov	r0, r4
 491 0044 F8BD     		pop	{r3, r4, r5, r6, r7, pc}
 492              	.LVL41:
 493              	.L39:
 494 0046 00BF     		.align	2
 495              	.L38:
 496 0048 00000000 		.word	rlist
 497              		.cfi_endproc
 498              	.LFE15:
 499              		.size	chCondWaitTimeoutS, .-chCondWaitTimeoutS
 500 004c AFF30080 		.section	.text.chCondWaitTimeout,"ax",%progbits
 501              		.align	2
ARM GAS  /tmp/ccqhqfCM.s 			page 10


 502              		.p2align 4,,15
 503              		.global	chCondWaitTimeout
 504              		.thumb
 505              		.thumb_func
 506              		.type	chCondWaitTimeout, %function
 507              	chCondWaitTimeout:
 508              	.LFB14:
 509              		.loc 1 233 0
 510              		.cfi_startproc
 511              		@ args = 0, pretend = 0, frame = 0
 512              		@ frame_needed = 0, uses_anonymous_args = 0
 513              	.LVL42:
 514 0000 08B5     		push	{r3, lr}
 515              		.cfi_def_cfa_offset 8
 516              		.cfi_offset 3, -8
 517              		.cfi_offset 14, -4
 518              	.LBB40:
 519              		.loc 1 236 0
 520 0002 2023     		movs	r3, #32
 521              	@ 236 "/home/austin/git/personal/school/motor_control/chibios/os/kernel/src/chcond.c" 1
 522 0004 83F31188 		msr     BASEPRI, r3
 523              	@ 0 "" 2
 524              		.thumb
 525              	.LBE40:
 526              		.loc 1 237 0
 527 0008 FFF7FEFF 		bl	chCondWaitTimeoutS
 528              	.LVL43:
 529              	.LBB41:
 530              		.loc 1 238 0
 531 000c 0023     		movs	r3, #0
 532              	@ 238 "/home/austin/git/personal/school/motor_control/chibios/os/kernel/src/chcond.c" 1
 533 000e 83F31188 		msr     BASEPRI, r3
 534              	@ 0 "" 2
 535              		.thumb
 536              	.LBE41:
 537              		.loc 1 240 0
 538 0012 08BD     		pop	{r3, pc}
 539              		.cfi_endproc
 540              	.LFE14:
 541              		.size	chCondWaitTimeout, .-chCondWaitTimeout
 542 0014 AFF30080 		.text
 542      AFF30080 
 542      AFF30080 
 543              	.Letext0:
 544              		.file 3 "/usr/arm-none-eabi/include/machine/_default_types.h"
 545              		.file 4 "/usr/arm-none-eabi/include/stdint.h"
 546              		.file 5 "/home/austin/git/personal/school/motor_control/chibios/os/ports/GCC/ARMCMx/chtypes.h"
 547              		.file 6 "/home/austin/git/personal/school/motor_control/chibios/os/kernel/include/chlists.h"
 548              		.file 7 "/home/austin/git/personal/school/motor_control/chibios/os/kernel/include/chthreads.h"
 549              		.file 8 "/home/austin/git/personal/school/motor_control/chibios/os/ports/GCC/ARMCMx/chcore_v7m.h"
 550              		.file 9 "/home/austin/git/personal/school/motor_control/chibios/os/kernel/include/chschd.h"
 551              		.file 10 "/home/austin/git/personal/school/motor_control/chibios/os/kernel/include/chmtx.h"
 552              		.file 11 "/home/austin/git/personal/school/motor_control/chibios/os/kernel/include/chcond.h"