ARM GAS  /tmp/ccxaNphW.s 			page 1


   1              		.syntax unified
   2              		.cpu cortex-m4
   3              		.fpu softvfp
   4              		.eabi_attribute 20, 1
   5              		.eabi_attribute 21, 1
   6              		.eabi_attribute 23, 3
   7              		.eabi_attribute 24, 1
   8              		.eabi_attribute 25, 1
   9              		.eabi_attribute 26, 1
  10              		.eabi_attribute 30, 2
  11              		.eabi_attribute 34, 1
  12              		.eabi_attribute 18, 4
  13              		.thumb
  14              		.file	"chmemcore.c"
  15              		.text
  16              	.Ltext0:
  17              		.cfi_sections	.debug_frame
  18              		.section	.text._core_init,"ax",%progbits
  19              		.align	2
  20              		.p2align 4,,15
  21              		.global	_core_init
  22              		.thumb
  23              		.thumb_func
  24              		.type	_core_init, %function
  25              	_core_init:
  26              	.LFB7:
  27              		.file 1 "/home/austin/git/personal/school/motor_control/chibios/os/kernel/src/chmemcore.c"
  28              		.loc 1 66 0
  29              		.cfi_startproc
  30              		@ args = 0, pretend = 0, frame = 0
  31              		@ frame_needed = 0, uses_anonymous_args = 0
  32              		@ link register save eliminated.
  33              		.loc 1 70 0
  34 0000 054A     		ldr	r2, .L2
  35              		.loc 1 71 0
  36 0002 064B     		ldr	r3, .L2+4
  37              		.loc 1 70 0
  38 0004 0648     		ldr	r0, .L2+8
  39              		.loc 1 71 0
  40 0006 0749     		ldr	r1, .L2+12
  41              		.loc 1 70 0
  42 0008 22F00702 		bic	r2, r2, #7
  43              		.loc 1 71 0
  44 000c 23F00703 		bic	r3, r3, #7
  45              		.loc 1 70 0
  46 0010 0260     		str	r2, [r0]
  47              		.loc 1 71 0
  48 0012 0B60     		str	r3, [r1]
  49 0014 7047     		bx	lr
  50              	.L3:
  51 0016 00BF     		.align	2
  52              	.L2:
  53 0018 07000000 		.word	__heap_base__+7
  54 001c 00000000 		.word	__heap_end__
  55 0020 00000000 		.word	.LANCHOR0
  56 0024 00000000 		.word	.LANCHOR1
  57              		.cfi_endproc
ARM GAS  /tmp/ccxaNphW.s 			page 2


  58              	.LFE7:
  59              		.size	_core_init, .-_core_init
  60 0028 AFF30080 		.section	.text.chCoreAlloc,"ax",%progbits
  60      AFF30080 
  61              		.align	2
  62              		.p2align 4,,15
  63              		.global	chCoreAlloc
  64              		.thumb
  65              		.thumb_func
  66              		.type	chCoreAlloc, %function
  67              	chCoreAlloc:
  68              	.LFB8:
  69              		.loc 1 91 0
  70              		.cfi_startproc
  71              		@ args = 0, pretend = 0, frame = 0
  72              		@ frame_needed = 0, uses_anonymous_args = 0
  73              		@ link register save eliminated.
  74              	.LVL0:
  75 0000 10B4     		push	{r4}
  76              		.cfi_def_cfa_offset 4
  77              		.cfi_offset 4, -4
  78              	.LBB6:
  79              		.loc 1 94 0
  80 0002 2023     		movs	r3, #32
  81              	@ 94 "/home/austin/git/personal/school/motor_control/chibios/os/kernel/src/chmemcore.c" 1
  82 0004 83F31188 		msr     BASEPRI, r3
  83              	@ 0 "" 2
  84              	.LVL1:
  85              		.thumb
  86              	.LBE6:
  87              	.LBB7:
  88              	.LBB8:
  89              		.loc 1 118 0
  90 0008 094C     		ldr	r4, .L8
  91 000a 0A4B     		ldr	r3, .L8+4
  92 000c 2268     		ldr	r2, [r4]
  93 000e 1968     		ldr	r1, [r3]
  94              		.loc 1 117 0
  95 0010 C31D     		adds	r3, r0, #7
  96 0012 23F00703 		bic	r3, r3, #7
  97              	.LVL2:
  98              		.loc 1 118 0
  99 0016 891A     		subs	r1, r1, r2
 100 0018 8B42     		cmp	r3, r1
 101              	.LVL3:
 102              		.loc 1 121 0
 103 001a 9DBF     		ittte	ls
 104 001c 9B18     		addls	r3, r3, r2
 105              	.LVL4:
 106 001e 2360     		strls	r3, [r4]
 107              		.loc 1 122 0
 108 0020 1046     		movls	r0, r2
 109              	.LVL5:
 110              		.loc 1 119 0
 111 0022 0020     		movhi	r0, #0
 112              	.LBE8:
 113              	.LBE7:
ARM GAS  /tmp/ccxaNphW.s 			page 3


 114              	.LBB9:
 115              		.loc 1 96 0
 116 0024 0023     		movs	r3, #0
 117              	@ 96 "/home/austin/git/personal/school/motor_control/chibios/os/kernel/src/chmemcore.c" 1
 118 0026 83F31188 		msr     BASEPRI, r3
 119              	@ 0 "" 2
 120              		.thumb
 121              	.LBE9:
 122              		.loc 1 98 0
 123 002a 5DF8044B 		ldr	r4, [sp], #4
 124              		.cfi_restore 4
 125              		.cfi_def_cfa_offset 0
 126 002e 7047     		bx	lr
 127              	.L9:
 128              		.align	2
 129              	.L8:
 130 0030 00000000 		.word	.LANCHOR0
 131 0034 00000000 		.word	.LANCHOR1
 132              		.cfi_endproc
 133              	.LFE8:
 134              		.size	chCoreAlloc, .-chCoreAlloc
 135 0038 AFF30080 		.section	.text.chCoreAllocI,"ax",%progbits
 135      AFF30080 
 136              		.align	2
 137              		.p2align 4,,15
 138              		.global	chCoreAllocI
 139              		.thumb
 140              		.thumb_func
 141              		.type	chCoreAllocI, %function
 142              	chCoreAllocI:
 143              	.LFB9:
 144              		.loc 1 112 0
 145              		.cfi_startproc
 146              		@ args = 0, pretend = 0, frame = 0
 147              		@ frame_needed = 0, uses_anonymous_args = 0
 148              		@ link register save eliminated.
 149              	.LVL6:
 150 0000 10B4     		push	{r4}
 151              		.cfi_def_cfa_offset 4
 152              		.cfi_offset 4, -4
 153              		.loc 1 118 0
 154 0002 084B     		ldr	r3, .L14
 155 0004 084C     		ldr	r4, .L14+4
 156 0006 1968     		ldr	r1, [r3]
 157 0008 2268     		ldr	r2, [r4]
 158              		.loc 1 117 0
 159 000a 0730     		adds	r0, r0, #7
 160              	.LVL7:
 161 000c 20F00703 		bic	r3, r0, #7
 162              	.LVL8:
 163              		.loc 1 118 0
 164 0010 891A     		subs	r1, r1, r2
 165 0012 8B42     		cmp	r3, r1
 166              	.LVL9:
 167              		.loc 1 121 0
 168 0014 9DBF     		ittte	ls
 169 0016 9B18     		addls	r3, r3, r2
ARM GAS  /tmp/ccxaNphW.s 			page 4


 170              	.LVL10:
 171 0018 2360     		strls	r3, [r4]
 172              		.loc 1 122 0
 173 001a 1046     		movls	r0, r2
 174              	.LVL11:
 175              		.loc 1 119 0
 176 001c 0020     		movhi	r0, #0
 177              		.loc 1 123 0
 178 001e 5DF8044B 		ldr	r4, [sp], #4
 179              		.cfi_restore 4
 180              		.cfi_def_cfa_offset 0
 181 0022 7047     		bx	lr
 182              	.L15:
 183              		.align	2
 184              	.L14:
 185 0024 00000000 		.word	.LANCHOR1
 186 0028 00000000 		.word	.LANCHOR0
 187              		.cfi_endproc
 188              	.LFE9:
 189              		.size	chCoreAllocI, .-chCoreAllocI
 190 002c AFF30080 		.section	.text.chCoreStatus,"ax",%progbits
 191              		.align	2
 192              		.p2align 4,,15
 193              		.global	chCoreStatus
 194              		.thumb
 195              		.thumb_func
 196              		.type	chCoreStatus, %function
 197              	chCoreStatus:
 198              	.LFB10:
 199              		.loc 1 132 0
 200              		.cfi_startproc
 201              		@ args = 0, pretend = 0, frame = 0
 202              		@ frame_needed = 0, uses_anonymous_args = 0
 203              		@ link register save eliminated.
 204              		.loc 1 134 0
 205 0000 024A     		ldr	r2, .L17
 206 0002 034B     		ldr	r3, .L17+4
 207 0004 1068     		ldr	r0, [r2]
 208 0006 1B68     		ldr	r3, [r3]
 209              		.loc 1 135 0
 210 0008 C01A     		subs	r0, r0, r3
 211 000a 7047     		bx	lr
 212              	.L18:
 213              		.align	2
 214              	.L17:
 215 000c 00000000 		.word	.LANCHOR1
 216 0010 00000000 		.word	.LANCHOR0
 217              		.cfi_endproc
 218              	.LFE10:
 219              		.size	chCoreStatus, .-chCoreStatus
 220 0014 AFF30080 		.section	.bss.endmem,"aw",%nobits
 220      AFF30080 
 220      AFF30080 
 221              		.align	2
 222              		.set	.LANCHOR1,. + 0
 223              		.type	endmem, %object
 224              		.size	endmem, 4
ARM GAS  /tmp/ccxaNphW.s 			page 5


 225              	endmem:
 226 0000 00000000 		.space	4
 227              		.section	.bss.nextmem,"aw",%nobits
 228              		.align	2
 229              		.set	.LANCHOR0,. + 0
 230              		.type	nextmem, %object
 231              		.size	nextmem, 4
 232              	nextmem:
 233 0000 00000000 		.space	4
 234              		.text
 235              	.Letext0:
 236              		.file 2 "/usr/lib/gcc/arm-none-eabi/4.9.3/include/stddef.h"
 237              		.file 3 "/usr/arm-none-eabi/include/machine/_default_types.h"
 238              		.file 4 "/usr/arm-none-eabi/include/stdint.h"