ARM GAS  /tmp/ccHhFFCZ.s 			page 1


   1              		.syntax unified
   2              		.cpu cortex-m4
   3              		.fpu softvfp
   4              		.eabi_attribute 20, 1
   5              		.eabi_attribute 21, 1
   6              		.eabi_attribute 23, 3
   7              		.eabi_attribute 24, 1
   8              		.eabi_attribute 25, 1
   9              		.eabi_attribute 26, 1
  10              		.eabi_attribute 30, 2
  11              		.eabi_attribute 34, 1
  12              		.eabi_attribute 18, 4
  13              		.thumb
  14              		.file	"chmempools.c"
  15              		.text
  16              	.Ltext0:
  17              		.cfi_sections	.debug_frame
  18              		.section	.text.chPoolInit,"ax",%progbits
  19              		.align	2
  20              		.p2align 4,,15
  21              		.global	chPoolInit
  22              		.thumb
  23              		.thumb_func
  24              		.type	chPoolInit, %function
  25              	chPoolInit:
  26              	.LFB7:
  27              		.file 1 "/home/austin/git/personal/school/motor_control/chibios/os/kernel/src/chmempools.c"
  28              		.loc 1 62 0
  29              		.cfi_startproc
  30              		@ args = 0, pretend = 0, frame = 0
  31              		@ frame_needed = 0, uses_anonymous_args = 0
  32              		@ link register save eliminated.
  33              	.LVL0:
  34              		.loc 1 66 0
  35 0000 0023     		movs	r3, #0
  36              		.loc 1 67 0
  37 0002 4160     		str	r1, [r0, #4]
  38              		.loc 1 68 0
  39 0004 8260     		str	r2, [r0, #8]
  40              		.loc 1 66 0
  41 0006 0360     		str	r3, [r0]
  42 0008 7047     		bx	lr
  43              		.cfi_endproc
  44              	.LFE7:
  45              		.size	chPoolInit, .-chPoolInit
  46 000a 00BFAFF3 		.section	.text.chPoolLoadArray,"ax",%progbits
  46      0080
  47              		.align	2
  48              		.p2align 4,,15
  49              		.global	chPoolLoadArray
  50              		.thumb
  51              		.thumb_func
  52              		.type	chPoolLoadArray, %function
  53              	chPoolLoadArray:
  54              	.LFB8:
  55              		.loc 1 84 0
  56              		.cfi_startproc
ARM GAS  /tmp/ccHhFFCZ.s 			page 2


  57              		@ args = 0, pretend = 0, frame = 0
  58              		@ frame_needed = 0, uses_anonymous_args = 0
  59              		@ link register save eliminated.
  60              	.LVL1:
  61              		.loc 1 88 0
  62 0000 62B1     		cbz	r2, .L2
  63              	.LVL2:
  64              	.L4:
  65              	.LBB16:
  66              	.LBB17:
  67              		.loc 1 173 0
  68 0002 2023     		movs	r3, #32
  69              	@ 173 "/home/austin/git/personal/school/motor_control/chibios/os/kernel/src/chmempools.c" 1
  70 0004 83F31188 		msr     BASEPRI, r3
  71              	@ 0 "" 2
  72              	.LVL3:
  73              		.thumb
  74              	.LBE17:
  75              	.LBB18:
  76              	.LBB19:
  77              		.loc 1 155 0
  78 0008 0368     		ldr	r3, [r0]
  79 000a 0B60     		str	r3, [r1]
  80              	.LBE19:
  81              	.LBE18:
  82              	.LBB21:
  83              		.loc 1 175 0
  84 000c 0023     		movs	r3, #0
  85              	.LBE21:
  86              	.LBB22:
  87              	.LBB20:
  88              		.loc 1 156 0
  89 000e 0160     		str	r1, [r0]
  90              	.LBE20:
  91              	.LBE22:
  92              	.LBB23:
  93              		.loc 1 175 0
  94              	@ 175 "/home/austin/git/personal/school/motor_control/chibios/os/kernel/src/chmempools.c" 1
  95 0010 83F31188 		msr     BASEPRI, r3
  96              	@ 0 "" 2
  97              		.thumb
  98              	.LBE23:
  99              	.LBE16:
 100              		.loc 1 90 0
 101 0014 4368     		ldr	r3, [r0, #4]
 102              		.loc 1 88 0
 103 0016 013A     		subs	r2, r2, #1
 104              	.LVL4:
 105              		.loc 1 90 0
 106 0018 1944     		add	r1, r1, r3
 107              	.LVL5:
 108              		.loc 1 88 0
 109 001a F2D1     		bne	.L4
 110              	.LVL6:
 111              	.L2:
 112 001c 7047     		bx	lr
 113              		.cfi_endproc
ARM GAS  /tmp/ccHhFFCZ.s 			page 3


 114              	.LFE8:
 115              		.size	chPoolLoadArray, .-chPoolLoadArray
 116 001e 00BF     		.section	.text.chPoolAllocI,"ax",%progbits
 117              		.align	2
 118              		.p2align 4,,15
 119              		.global	chPoolAllocI
 120              		.thumb
 121              		.thumb_func
 122              		.type	chPoolAllocI, %function
 123              	chPoolAllocI:
 124              	.LFB9:
 125              		.loc 1 105 0
 126              		.cfi_startproc
 127              		@ args = 0, pretend = 0, frame = 0
 128              		@ frame_needed = 0, uses_anonymous_args = 0
 129              		@ link register save eliminated.
 130              	.LVL7:
 131              		.loc 1 111 0
 132 0000 0368     		ldr	r3, [r0]
 133              	.LVL8:
 134 0002 1BB1     		cbz	r3, .L9
 135              		.loc 1 112 0
 136 0004 1A68     		ldr	r2, [r3]
 137 0006 0260     		str	r2, [r0]
 138              	.L10:
 139              		.loc 1 116 0
 140 0008 1846     		mov	r0, r3
 141              	.LVL9:
 142 000a 7047     		bx	lr
 143              	.LVL10:
 144              	.L9:
 145              		.loc 1 113 0
 146 000c 8268     		ldr	r2, [r0, #8]
 147 000e 002A     		cmp	r2, #0
 148 0010 FAD0     		beq	.L10
 149              		.loc 1 114 0
 150 0012 4068     		ldr	r0, [r0, #4]
 151              	.LVL11:
 152 0014 1047     		bx	r2
 153              	.LVL12:
 154              		.cfi_endproc
 155              	.LFE9:
 156              		.size	chPoolAllocI, .-chPoolAllocI
 157 0016 00BFAFF3 		.section	.text.chPoolAlloc,"ax",%progbits
 157      0080AFF3 
 157      0080
 158              		.align	2
 159              		.p2align 4,,15
 160              		.global	chPoolAlloc
 161              		.thumb
 162              		.thumb_func
 163              		.type	chPoolAlloc, %function
 164              	chPoolAlloc:
 165              	.LFB10:
 166              		.loc 1 128 0
 167              		.cfi_startproc
 168              		@ args = 0, pretend = 0, frame = 0
ARM GAS  /tmp/ccHhFFCZ.s 			page 4


 169              		@ frame_needed = 0, uses_anonymous_args = 0
 170              	.LVL13:
 171 0000 08B5     		push	{r3, lr}
 172              		.cfi_def_cfa_offset 8
 173              		.cfi_offset 3, -8
 174              		.cfi_offset 14, -4
 175              		.loc 1 128 0
 176 0002 0246     		mov	r2, r0
 177              	.LBB24:
 178              		.loc 1 131 0
 179 0004 2023     		movs	r3, #32
 180              	@ 131 "/home/austin/git/personal/school/motor_control/chibios/os/kernel/src/chmempools.c" 1
 181 0006 83F31188 		msr     BASEPRI, r3
 182              	@ 0 "" 2
 183              	.LVL14:
 184              		.thumb
 185              	.LBE24:
 186              	.LBB25:
 187              	.LBB26:
 188              		.loc 1 111 0
 189 000a 0068     		ldr	r0, [r0]
 190              	.LVL15:
 191 000c 28B1     		cbz	r0, .L15
 192              		.loc 1 112 0
 193 000e 0368     		ldr	r3, [r0]
 194 0010 1360     		str	r3, [r2]
 195              	.L16:
 196              	.LBE26:
 197              	.LBE25:
 198              	.LBB28:
 199              		.loc 1 133 0
 200 0012 0023     		movs	r3, #0
 201              	@ 133 "/home/austin/git/personal/school/motor_control/chibios/os/kernel/src/chmempools.c" 1
 202 0014 83F31188 		msr     BASEPRI, r3
 203              	@ 0 "" 2
 204              		.thumb
 205              	.LBE28:
 206              		.loc 1 135 0
 207 0018 08BD     		pop	{r3, pc}
 208              	.L15:
 209              	.LBB29:
 210              	.LBB27:
 211              		.loc 1 113 0
 212 001a 9368     		ldr	r3, [r2, #8]
 213 001c 002B     		cmp	r3, #0
 214 001e F8D0     		beq	.L16
 215              		.loc 1 114 0
 216 0020 5068     		ldr	r0, [r2, #4]
 217              	.LVL16:
 218 0022 9847     		blx	r3
 219              	.LVL17:
 220              	.LBE27:
 221              	.LBE29:
 222              	.LBB30:
 223              		.loc 1 133 0
 224 0024 0023     		movs	r3, #0
 225              	@ 133 "/home/austin/git/personal/school/motor_control/chibios/os/kernel/src/chmempools.c" 1
ARM GAS  /tmp/ccHhFFCZ.s 			page 5


 226 0026 83F31188 		msr     BASEPRI, r3
 227              	@ 0 "" 2
 228              		.thumb
 229              	.LBE30:
 230              		.loc 1 135 0
 231 002a 08BD     		pop	{r3, pc}
 232              		.cfi_endproc
 233              	.LFE10:
 234              		.size	chPoolAlloc, .-chPoolAlloc
 235 002c AFF30080 		.section	.text.chPoolFreeI,"ax",%progbits
 236              		.align	2
 237              		.p2align 4,,15
 238              		.global	chPoolFreeI
 239              		.thumb
 240              		.thumb_func
 241              		.type	chPoolFreeI, %function
 242              	chPoolFreeI:
 243              	.LFB11:
 244              		.loc 1 149 0
 245              		.cfi_startproc
 246              		@ args = 0, pretend = 0, frame = 0
 247              		@ frame_needed = 0, uses_anonymous_args = 0
 248              		@ link register save eliminated.
 249              	.LVL18:
 250              		.loc 1 155 0
 251 0000 0368     		ldr	r3, [r0]
 252 0002 0B60     		str	r3, [r1]
 253              		.loc 1 156 0
 254 0004 0160     		str	r1, [r0]
 255 0006 7047     		bx	lr
 256              		.cfi_endproc
 257              	.LFE11:
 258              		.size	chPoolFreeI, .-chPoolFreeI
 259 0008 AFF30080 		.section	.text.chPoolFree,"ax",%progbits
 259      AFF30080 
 260              		.align	2
 261              		.p2align 4,,15
 262              		.global	chPoolFree
 263              		.thumb
 264              		.thumb_func
 265              		.type	chPoolFree, %function
 266              	chPoolFree:
 267              	.LFB12:
 268              		.loc 1 171 0
 269              		.cfi_startproc
 270              		@ args = 0, pretend = 0, frame = 0
 271              		@ frame_needed = 0, uses_anonymous_args = 0
 272              		@ link register save eliminated.
 273              	.LVL19:
 274              	.LBB31:
 275              		.loc 1 173 0
 276 0000 2023     		movs	r3, #32
 277              	@ 173 "/home/austin/git/personal/school/motor_control/chibios/os/kernel/src/chmempools.c" 1
 278 0002 83F31188 		msr     BASEPRI, r3
 279              	@ 0 "" 2
 280              	.LVL20:
 281              		.thumb
ARM GAS  /tmp/ccHhFFCZ.s 			page 6


 282              	.LBE31:
 283              	.LBB32:
 284              	.LBB33:
 285              		.loc 1 155 0
 286 0006 0368     		ldr	r3, [r0]
 287 0008 0B60     		str	r3, [r1]
 288              	.LBE33:
 289              	.LBE32:
 290              	.LBB35:
 291              		.loc 1 175 0
 292 000a 0023     		movs	r3, #0
 293              	.LBE35:
 294              	.LBB36:
 295              	.LBB34:
 296              		.loc 1 156 0
 297 000c 0160     		str	r1, [r0]
 298              	.LBE34:
 299              	.LBE36:
 300              	.LBB37:
 301              		.loc 1 175 0
 302              	@ 175 "/home/austin/git/personal/school/motor_control/chibios/os/kernel/src/chmempools.c" 1
 303 000e 83F31188 		msr     BASEPRI, r3
 304              	@ 0 "" 2
 305              		.thumb
 306 0012 7047     		bx	lr
 307              	.LBE37:
 308              		.cfi_endproc
 309              	.LFE12:
 310              		.size	chPoolFree, .-chPoolFree
 311 0014 AFF30080 		.text
 311      AFF30080 
 311      AFF30080 
 312              	.Letext0:
 313              		.file 2 "/usr/lib/gcc/arm-none-eabi/4.9.3/include/stddef.h"
 314              		.file 3 "/usr/arm-none-eabi/include/machine/_default_types.h"
 315              		.file 4 "/usr/arm-none-eabi/include/stdint.h"
 316              		.file 5 "/home/austin/git/personal/school/motor_control/chibios/os/kernel/include/chmemcore.h"
 317              		.file 6 "/home/austin/git/personal/school/motor_control/chibios/os/kernel/include/chmempools.h"