ARM GAS  /tmp/cc3STF9C.s 			page 1


   1              		.syntax unified
   2              		.cpu cortex-m4
   3              		.fpu softvfp
   4              		.eabi_attribute 20, 1
   5              		.eabi_attribute 21, 1
   6              		.eabi_attribute 23, 3
   7              		.eabi_attribute 24, 1
   8              		.eabi_attribute 25, 1
   9              		.eabi_attribute 26, 1
  10              		.eabi_attribute 30, 2
  11              		.eabi_attribute 34, 1
  12              		.eabi_attribute 18, 4
  13              		.thumb
  14              		.file	"chsys.c"
  15              		.text
  16              	.Ltext0:
  17              		.cfi_sections	.debug_frame
  18              		.section	.text._idle_thread,"ax",%progbits
  19              		.align	2
  20              		.p2align 4,,15
  21              		.global	_idle_thread
  22              		.thumb
  23              		.thumb_func
  24              		.type	_idle_thread, %function
  25              	_idle_thread:
  26              	.LFB7:
  27              		.file 1 "/home/austin/git/personal/school/motor_control/chibios/os/kernel/src/chsys.c"
  28              		.loc 1 61 0
  29              		.cfi_startproc
  30              		@ Volatile: function does not return.
  31              		@ args = 0, pretend = 0, frame = 0
  32              		@ frame_needed = 0, uses_anonymous_args = 0
  33              		@ link register save eliminated.
  34              	.LVL0:
  35              		.loc 1 64 0
  36 0000 024B     		ldr	r3, .L4
  37 0002 034A     		ldr	r2, .L4+4
  38 0004 9B69     		ldr	r3, [r3, #24]
  39 0006 9A61     		str	r2, [r3, #24]
  40              	.L2:
  41              		.loc 1 68 0 discriminator 1
  42 0008 FEE7     		b	.L2
  43              	.L5:
  44 000a 00BF     		.align	2
  45              	.L4:
  46 000c 00000000 		.word	rlist
  47 0010 00000000 		.word	.LC0
  48              		.cfi_endproc
  49              	.LFE7:
  50              		.size	_idle_thread, .-_idle_thread
  51 0014 AFF30080 		.section	.text.chSysInit,"ax",%progbits
  51      AFF30080 
  51      AFF30080 
  52              		.align	2
  53              		.p2align 4,,15
  54              		.global	chSysInit
  55              		.thumb
ARM GAS  /tmp/cc3STF9C.s 			page 2


  56              		.thumb_func
  57              		.type	chSysInit, %function
  58              	chSysInit:
  59              	.LFB8:
  60              		.loc 1 84 0
  61              		.cfi_startproc
  62              		@ args = 0, pretend = 0, frame = 0
  63              		@ frame_needed = 0, uses_anonymous_args = 0
  64 0000 00B5     		push	{lr}
  65              		.cfi_def_cfa_offset 4
  66              		.cfi_offset 14, -4
  67 0002 83B0     		sub	sp, sp, #12
  68              		.cfi_def_cfa_offset 16
  69              		.loc 1 90 0
  70 0004 FFF7FEFF 		bl	_port_init
  71              	.LVL1:
  72              		.loc 1 91 0
  73 0008 FFF7FEFF 		bl	_scheduler_init
  74              	.LVL2:
  75              		.loc 1 92 0
  76 000c FFF7FEFF 		bl	_vt_init
  77              	.LVL3:
  78              		.loc 1 94 0
  79 0010 FFF7FEFF 		bl	_core_init
  80              	.LVL4:
  81              		.loc 1 97 0
  82 0014 FFF7FEFF 		bl	_heap_init
  83              	.LVL5:
  84              		.loc 1 104 0
  85 0018 4021     		movs	r1, #64
  86 001a 0B48     		ldr	r0, .L8
  87 001c FFF7FEFF 		bl	_thread_init
  88              	.LVL6:
  89 0020 0A49     		ldr	r1, .L8+4
  90              		.loc 1 105 0
  91 0022 0122     		movs	r2, #1
  92              		.loc 1 104 0
  93 0024 8861     		str	r0, [r1, #24]
  94              		.loc 1 105 0
  95 0026 0277     		strb	r2, [r0, #28]
  96              	.LBB2:
  97              		.loc 1 111 0
  98 0028 0023     		movs	r3, #0
  99              	@ 111 "/home/austin/git/personal/school/motor_control/chibios/os/kernel/src/chsys.c" 1
 100 002a 83F31188 		msr     BASEPRI, r3                    
 101 002e 62B6     		cpsie   i
 102              	@ 0 "" 2
 103              		.thumb
 104              	.LBE2:
 105              		.loc 1 115 0
 106 0030 8969     		ldr	r1, [r1, #24]
 107 0032 0748     		ldr	r0, .L8+8
 108 0034 8861     		str	r0, [r1, #24]
 109              		.loc 1 121 0
 110 0036 0093     		str	r3, [sp]
 111 0038 E021     		movs	r1, #224
 112 003a 064B     		ldr	r3, .L8+12
ARM GAS  /tmp/cc3STF9C.s 			page 3


 113 003c 0648     		ldr	r0, .L8+16
 114 003e FFF7FEFF 		bl	chThdCreateStatic
 115              	.LVL7:
 116              		.loc 1 124 0
 117 0042 03B0     		add	sp, sp, #12
 118              		.cfi_def_cfa_offset 4
 119              		@ sp needed
 120 0044 5DF804FB 		ldr	pc, [sp], #4
 121              	.L9:
 122              		.align	2
 123              	.L8:
 124 0048 00000000 		.word	.LANCHOR0
 125 004c 00000000 		.word	rlist
 126 0050 00000000 		.word	ch_debug
 127 0054 00000000 		.word	_idle_thread
 128 0058 00000000 		.word	.LANCHOR1
 129              		.cfi_endproc
 130              	.LFE8:
 131              		.size	chSysInit, .-chSysInit
 132 005c AFF30080 		.section	.text.chSysTimerHandlerI,"ax",%progbits
 133              		.align	2
 134              		.p2align 4,,15
 135              		.global	chSysTimerHandlerI
 136              		.thumb
 137              		.thumb_func
 138              		.type	chSysTimerHandlerI, %function
 139              	chSysTimerHandlerI:
 140              	.LFB9:
 141              		.loc 1 137 0
 142              		.cfi_startproc
 143              		@ args = 0, pretend = 0, frame = 0
 144              		@ frame_needed = 0, uses_anonymous_args = 0
 145 0000 70B5     		push	{r4, r5, r6, lr}
 146              		.cfi_def_cfa_offset 16
 147              		.cfi_offset 4, -16
 148              		.cfi_offset 5, -12
 149              		.cfi_offset 6, -8
 150              		.cfi_offset 14, -4
 151              		.loc 1 143 0
 152 0002 134B     		ldr	r3, .L21
 153 0004 9B69     		ldr	r3, [r3, #24]
 154 0006 DA7F     		ldrb	r2, [r3, #31]	@ zero_extendqisi2
 155 0008 0AB1     		cbz	r2, .L11
 156              		.loc 1 145 0
 157 000a 013A     		subs	r2, r2, #1
 158 000c DA77     		strb	r2, [r3, #31]
 159              	.L11:
 160              		.loc 1 148 0
 161 000e 1A6A     		ldr	r2, [r3, #32]
 162              		.loc 1 150 0
 163 0010 104C     		ldr	r4, .L21+4
 164              		.loc 1 148 0
 165 0012 0132     		adds	r2, r2, #1
 166 0014 1A62     		str	r2, [r3, #32]
 167              		.loc 1 150 0
 168 0016 E368     		ldr	r3, [r4, #12]
 169 0018 2268     		ldr	r2, [r4]
ARM GAS  /tmp/cc3STF9C.s 			page 4


 170 001a 0133     		adds	r3, r3, #1
 171 001c A242     		cmp	r2, r4
 172 001e E360     		str	r3, [r4, #12]
 173 0020 14D0     		beq	.L10
 174              	.LBB3:
 175              		.loc 1 150 0 is_stmt 0 discriminator 1
 176 0022 9668     		ldr	r6, [r2, #8]
 177 0024 013E     		subs	r6, r6, #1
 178 0026 9660     		str	r6, [r2, #8]
 179              	.LVL8:
 180 0028 86B9     		cbnz	r6, .L10
 181              	.L14:
 182              	.LBB4:
 183              		.loc 1 150 0 discriminator 4
 184 002a 1168     		ldr	r1, [r2]
 185 002c D568     		ldr	r5, [r2, #12]
 186              	.LVL9:
 187 002e 2160     		str	r1, [r4]
 188 0030 D660     		str	r6, [r2, #12]
 189              	.LBB5:
 190 0032 0023     		movs	r3, #0
 191              	.LBE5:
 192 0034 4C60     		str	r4, [r1, #4]
 193              	.LBB6:
 194              	@ 150 "/home/austin/git/personal/school/motor_control/chibios/os/kernel/src/chsys.c" 1
 195 0036 83F31188 		msr     BASEPRI, r3
 196              	@ 0 "" 2
 197              		.thumb
 198              	.LBE6:
 199 003a 1069     		ldr	r0, [r2, #16]
 200 003c A847     		blx	r5
 201              	.LVL10:
 202              	.LBB7:
 203 003e 2023     		movs	r3, #32
 204              	@ 150 "/home/austin/git/personal/school/motor_control/chibios/os/kernel/src/chsys.c" 1
 205 0040 83F31188 		msr     BASEPRI, r3
 206              	@ 0 "" 2
 207              		.thumb
 208              	.LBE7:
 209              	.LBE4:
 210 0044 2268     		ldr	r2, [r4]
 211              	.LVL11:
 212 0046 9368     		ldr	r3, [r2, #8]
 213 0048 002B     		cmp	r3, #0
 214 004a EED0     		beq	.L14
 215              	.LVL12:
 216              	.L10:
 217 004c 70BD     		pop	{r4, r5, r6, pc}
 218              	.L22:
 219 004e 00BF     		.align	2
 220              	.L21:
 221 0050 00000000 		.word	rlist
 222 0054 00000000 		.word	vtlist
 223              	.LBE3:
 224              		.cfi_endproc
 225              	.LFE9:
 226              		.size	chSysTimerHandlerI, .-chSysTimerHandlerI
ARM GAS  /tmp/cc3STF9C.s 			page 5


 227              		.global	_idle_thread_wa
 228 0058 AFF30080 		.section	.bss.mainthread.4812,"aw",%nobits
 228      AFF30080 
 229              		.align	2
 230              		.set	.LANCHOR0,. + 0
 231              		.type	mainthread.4812, %object
 232              		.size	mainthread.4812, 72
 233              	mainthread.4812:
 234 0000 00000000 		.space	72
 234      00000000 
 234      00000000 
 234      00000000 
 234      00000000 
 235              		.section	.rodata.str1.4,"aMS",%progbits,1
 236              		.align	2
 237              	.LC0:
 238 0000 69646C65 		.ascii	"idle\000"
 238      00
 239 0005 000000   		.section	.bss._idle_thread_wa,"aw",%nobits
 240              		.align	3
 241              		.set	.LANCHOR1,. + 0
 242              		.type	_idle_thread_wa, %object
 243              		.size	_idle_thread_wa, 224
 244              	_idle_thread_wa:
 245 0000 00000000 		.space	224
 245      00000000 
 245      00000000 
 245      00000000 
 245      00000000 
 246              		.text
 247              	.Letext0:
 248              		.file 2 "/usr/lib/gcc/arm-none-eabi/4.9.3/include/stddef.h"
 249              		.file 3 "/usr/arm-none-eabi/include/machine/_default_types.h"
 250              		.file 4 "/usr/arm-none-eabi/include/stdint.h"
 251              		.file 5 "/home/austin/git/personal/school/motor_control/chibios/os/ports/GCC/ARMCMx/chtypes.h"
 252              		.file 6 "/home/austin/git/personal/school/motor_control/chibios/os/kernel/include/chlists.h"
 253              		.file 7 "/home/austin/git/personal/school/motor_control/chibios/os/kernel/include/chthreads.h"
 254              		.file 8 "/home/austin/git/personal/school/motor_control/chibios/os/ports/GCC/ARMCMx/chcore_v7m.h"
 255              		.file 9 "/home/austin/git/personal/school/motor_control/chibios/os/kernel/include/chvt.h"
 256              		.file 10 "/home/austin/git/personal/school/motor_control/chibios/os/kernel/include/chschd.h"
 257              		.file 11 "/home/austin/git/personal/school/motor_control/chibios/os/kernel/include/chmtx.h"
 258              		.file 12 "/home/austin/git/personal/school/motor_control/chibios/os/kernel/include/chregistry.h"
 259              		.file 13 "/home/austin/git/personal/school/motor_control/chibios/os/kernel/include/chmemcore.h"
 260              		.file 14 "/home/austin/git/personal/school/motor_control/chibios/os/kernel/include/chheap.h"