ARM GAS  /tmp/cct2s0Xk.s 			page 1


   1              		.syntax unified
   2              		.cpu cortex-m4
   3              		.fpu softvfp
   4              		.eabi_attribute 20, 1
   5              		.eabi_attribute 21, 1
   6              		.eabi_attribute 23, 3
   7              		.eabi_attribute 24, 1
   8              		.eabi_attribute 25, 1
   9              		.eabi_attribute 26, 1
  10              		.eabi_attribute 30, 2
  11              		.eabi_attribute 34, 1
  12              		.eabi_attribute 18, 4
  13              		.thumb
  14              		.file	"hal.c"
  15              		.text
  16              	.Ltext0:
  17              		.cfi_sections	.debug_frame
  18              		.section	.text.halInit,"ax",%progbits
  19              		.align	2
  20              		.p2align 4,,15
  21              		.global	halInit
  22              		.thumb
  23              		.thumb_func
  24              		.type	halInit, %function
  25              	halInit:
  26              	.LFB118:
  27              		.file 1 "/home/austin/git/personal/school/motor_control/chibios/os/hal/src/hal.c"
  28              		.loc 1 68 0
  29              		.cfi_startproc
  30              		@ args = 0, pretend = 0, frame = 0
  31              		@ frame_needed = 0, uses_anonymous_args = 0
  32 0000 08B5     		push	{r3, lr}
  33              		.cfi_def_cfa_offset 8
  34              		.cfi_offset 3, -8
  35              		.cfi_offset 14, -4
  36              		.loc 1 70 0
  37 0002 FFF7FEFF 		bl	hal_lld_init
  38              	.LVL0:
  39              		.loc 1 76 0
  40 0006 0448     		ldr	r0, .L3
  41 0008 FFF7FEFF 		bl	_pal_lld_init
  42              	.LVL1:
  43              		.loc 1 103 0
  44 000c FFF7FEFF 		bl	sdInit
  45              	.LVL2:
  46              		.loc 1 128 0
  47 0010 BDE80840 		pop	{r3, lr}
  48              		.cfi_restore 14
  49              		.cfi_restore 3
  50              		.cfi_def_cfa_offset 0
  51              		.loc 1 127 0
  52 0014 FFF7FEBF 		b	boardInit
  53              	.LVL3:
  54              	.L4:
  55              		.align	2
  56              	.L3:
  57 0018 00000000 		.word	pal_default_config
ARM GAS  /tmp/cct2s0Xk.s 			page 2


  58              		.cfi_endproc
  59              	.LFE118:
  60              		.size	halInit, .-halInit
  61 001c AFF30080 		.section	.text.halIsCounterWithin,"ax",%progbits
  62              		.align	2
  63              		.p2align 4,,15
  64              		.global	halIsCounterWithin
  65              		.thumb
  66              		.thumb_func
  67              		.type	halIsCounterWithin, %function
  68              	halIsCounterWithin:
  69              	.LFB119:
  70              		.loc 1 174 0
  71              		.cfi_startproc
  72              		@ args = 0, pretend = 0, frame = 0
  73              		@ frame_needed = 0, uses_anonymous_args = 0
  74              		@ link register save eliminated.
  75              	.LVL4:
  76              		.loc 1 175 0
  77 0000 084B     		ldr	r3, .L15
  78              		.loc 1 177 0
  79 0002 8142     		cmp	r1, r0
  80              		.loc 1 175 0
  81 0004 5B68     		ldr	r3, [r3, #4]
  82              	.LVL5:
  83              		.loc 1 177 0
  84 0006 06D9     		bls	.L6
  85              		.loc 1 177 0 is_stmt 0 discriminator 1
  86 0008 8342     		cmp	r3, r0
  87 000a 08D3     		bcc	.L14
  88              	.L12:
  89 000c 8B42     		cmp	r3, r1
  90 000e 2CBF     		ite	cs
  91 0010 0020     		movcs	r0, #0
  92              	.LVL6:
  93 0012 0120     		movcc	r0, #1
  94 0014 7047     		bx	lr
  95              	.LVL7:
  96              	.L6:
  97              		.loc 1 178 0 is_stmt 1
  98 0016 8342     		cmp	r3, r0
  99 0018 F8D3     		bcc	.L12
 100 001a 0120     		movs	r0, #1
 101              	.LVL8:
 102              		.loc 1 179 0
 103 001c 7047     		bx	lr
 104              	.LVL9:
 105              	.L14:
 106 001e 0020     		movs	r0, #0
 107              	.LVL10:
 108 0020 7047     		bx	lr
 109              	.L16:
 110 0022 00BF     		.align	2
 111              	.L15:
 112 0024 001000E0 		.word	-536866816
 113              		.cfi_endproc
 114              	.LFE119:
ARM GAS  /tmp/cct2s0Xk.s 			page 3


 115              		.size	halIsCounterWithin, .-halIsCounterWithin
 116 0028 AFF30080 		.section	.text.halPolledDelay,"ax",%progbits
 116      AFF30080 
 117              		.align	2
 118              		.p2align 4,,15
 119              		.global	halPolledDelay
 120              		.thumb
 121              		.thumb_func
 122              		.type	halPolledDelay, %function
 123              	halPolledDelay:
 124              	.LFB120:
 125              		.loc 1 193 0
 126              		.cfi_startproc
 127              		@ args = 0, pretend = 0, frame = 0
 128              		@ frame_needed = 0, uses_anonymous_args = 0
 129              		@ link register save eliminated.
 130              	.LVL11:
 131              		.loc 1 194 0
 132 0000 0849     		ldr	r1, .L28
 133 0002 4A68     		ldr	r2, [r1, #4]
 134              	.LVL12:
 135              		.loc 1 195 0
 136 0004 1044     		add	r0, r0, r2
 137              	.LVL13:
 138              	.L26:
 139              	.LBB4:
 140              	.LBB5:
 141              		.loc 1 177 0 discriminator 1
 142 0006 8242     		cmp	r2, r0
 143              		.loc 1 175 0 discriminator 1
 144 0008 4B68     		ldr	r3, [r1, #4]
 145              	.LVL14:
 146              		.loc 1 177 0 discriminator 1
 147 000a 02D2     		bcs	.L18
 148              		.loc 1 177 0 is_stmt 0
 149 000c 9A42     		cmp	r2, r3
 150 000e 02D9     		bls	.L27
 151 0010 7047     		bx	lr
 152              	.L18:
 153              		.loc 1 178 0 is_stmt 1
 154 0012 9A42     		cmp	r2, r3
 155 0014 F7D9     		bls	.L26
 156              	.L27:
 157 0016 9842     		cmp	r0, r3
 158 0018 94BF     		ite	ls
 159 001a 0023     		movls	r3, #0
 160              	.LVL15:
 161 001c 0123     		movhi	r3, #1
 162              	.LBE5:
 163              	.LBE4:
 164              		.loc 1 196 0
 165 001e 002B     		cmp	r3, #0
 166 0020 F1D1     		bne	.L26
 167 0022 7047     		bx	lr
 168              	.L29:
 169              		.align	2
 170              	.L28:
ARM GAS  /tmp/cct2s0Xk.s 			page 4


 171 0024 001000E0 		.word	-536866816
 172              		.cfi_endproc
 173              	.LFE120:
 174              		.size	halPolledDelay, .-halPolledDelay
 175 0028 AFF30080 		.text
 175      AFF30080 
 176              	.Letext0:
 177              		.file 2 "/usr/arm-none-eabi/include/machine/_default_types.h"
 178              		.file 3 "/usr/arm-none-eabi/include/stdint.h"
 179              		.file 4 "/home/austin/git/personal/school/motor_control/chibios/os/ports/GCC/ARMCMx/chtypes.h"
 180              		.file 5 "/home/austin/git/personal/school/motor_control/chibios/os/ports/common/ARMCMx/nvic.h"
 181              		.file 6 "/home/austin/git/personal/school/motor_control/chibios/os/hal/platforms/STM32F30x/hal_lld
 182              		.file 7 "/home/austin/git/personal/school/motor_control/chibios/os/hal/platforms/STM32/GPIOv2/pal_
 183              		.file 8 "/home/austin/git/personal/school/motor_control/chibios/os/ports/common/ARMCMx/CMSIS/inclu
 184              		.file 9 "/home/austin/git/personal/school/motor_control/chibios/os/hal/include/serial.h"
 185              		.file 10 "/home/austin/git/personal/school/motor_control/chibios/boards/ST_STM32F3_DISCOVERY/board