ARM GAS  /tmp/ccyzIVnS.s 			page 1


   1              		.syntax unified
   2              		.cpu cortex-m4
   3              		.fpu softvfp
   4              		.eabi_attribute 20, 1
   5              		.eabi_attribute 21, 1
   6              		.eabi_attribute 23, 3
   7              		.eabi_attribute 24, 1
   8              		.eabi_attribute 25, 1
   9              		.eabi_attribute 26, 1
  10              		.eabi_attribute 30, 2
  11              		.eabi_attribute 34, 1
  12              		.eabi_attribute 18, 4
  13              		.thumb
  14              		.file	"main.c"
  15              		.text
  16              	.Ltext0:
  17              		.cfi_sections	.debug_frame
  18              		.section	.text.Thread1,"ax",%progbits
  19              		.align	2
  20              		.p2align 4,,15
  21              		.thumb
  22              		.thumb_func
  23              		.type	Thread1, %function
  24              	Thread1:
  25              	.LFB118:
  26              		.file 1 "main.c"
  27              		.loc 1 25 0
  28              		.cfi_startproc
  29              		@ Volatile: function does not return.
  30              		@ args = 0, pretend = 0, frame = 0
  31              		@ frame_needed = 0, uses_anonymous_args = 0
  32              	.LVL0:
  33              		.loc 1 28 0
  34 0000 204B     		ldr	r3, .L5
  35 0002 214A     		ldr	r2, .L5+4
  36 0004 9B69     		ldr	r3, [r3, #24]
  37              		.loc 1 30 0
  38 0006 214C     		ldr	r4, .L5+8
  39 0008 4FF40078 		mov	r8, #512
  40              		.loc 1 25 0
  41 000c 80B5     		push	{r7, lr}
  42              		.cfi_def_cfa_offset 8
  43              		.cfi_offset 7, -8
  44              		.cfi_offset 14, -4
  45              		.loc 1 30 0
  46 000e C146     		mov	r9, r8	@ movhi
  47              		.loc 1 28 0
  48 0010 9A61     		str	r2, [r3, #24]
  49              	.LVL1:
  50              	.L2:
  51              		.loc 1 33 0 discriminator 1
  52 0012 4FF48065 		mov	r5, #1024
  53              		.loc 1 31 0 discriminator 1
  54 0016 7D20     		movs	r0, #125
  55              		.loc 1 30 0 discriminator 1
  56 0018 A4F81890 		strh	r9, [r4, #24]	@ movhi
  57              		.loc 1 31 0 discriminator 1
ARM GAS  /tmp/ccyzIVnS.s 			page 2


  58 001c FFF7FEFF 		bl	chThdSleep
  59              	.LVL2:
  60              		.loc 1 36 0 discriminator 1
  61 0020 4FF40067 		mov	r7, #2048
  62              		.loc 1 32 0 discriminator 1
  63 0024 A4F81A80 		strh	r8, [r4, #26]	@ movhi
  64              		.loc 1 34 0 discriminator 1
  65 0028 7D20     		movs	r0, #125
  66              		.loc 1 33 0 discriminator 1
  67 002a 2583     		strh	r5, [r4, #24]	@ movhi
  68              		.loc 1 34 0 discriminator 1
  69 002c FFF7FEFF 		bl	chThdSleep
  70              	.LVL3:
  71              		.loc 1 39 0 discriminator 1
  72 0030 4FF48056 		mov	r6, #4096
  73              		.loc 1 35 0 discriminator 1
  74 0034 6583     		strh	r5, [r4, #26]	@ movhi
  75              		.loc 1 37 0 discriminator 1
  76 0036 7D20     		movs	r0, #125
  77              		.loc 1 36 0 discriminator 1
  78 0038 2783     		strh	r7, [r4, #24]	@ movhi
  79              		.loc 1 37 0 discriminator 1
  80 003a FFF7FEFF 		bl	chThdSleep
  81              	.LVL4:
  82              		.loc 1 42 0 discriminator 1
  83 003e 4FF40055 		mov	r5, #8192
  84              		.loc 1 38 0 discriminator 1
  85 0042 6783     		strh	r7, [r4, #26]	@ movhi
  86              		.loc 1 40 0 discriminator 1
  87 0044 7D20     		movs	r0, #125
  88              		.loc 1 39 0 discriminator 1
  89 0046 2683     		strh	r6, [r4, #24]	@ movhi
  90              		.loc 1 40 0 discriminator 1
  91 0048 FFF7FEFF 		bl	chThdSleep
  92              	.LVL5:
  93              		.loc 1 45 0 discriminator 1
  94 004c 4FF48047 		mov	r7, #16384
  95              		.loc 1 41 0 discriminator 1
  96 0050 6683     		strh	r6, [r4, #26]	@ movhi
  97              		.loc 1 43 0 discriminator 1
  98 0052 7D20     		movs	r0, #125
  99              		.loc 1 42 0 discriminator 1
 100 0054 2583     		strh	r5, [r4, #24]	@ movhi
 101              		.loc 1 43 0 discriminator 1
 102 0056 FFF7FEFF 		bl	chThdSleep
 103              	.LVL6:
 104              		.loc 1 48 0 discriminator 1
 105 005a 4FF40046 		mov	r6, #32768
 106              		.loc 1 44 0 discriminator 1
 107 005e 6583     		strh	r5, [r4, #26]	@ movhi
 108              		.loc 1 46 0 discriminator 1
 109 0060 7D20     		movs	r0, #125
 110              		.loc 1 45 0 discriminator 1
 111 0062 2783     		strh	r7, [r4, #24]	@ movhi
 112              		.loc 1 46 0 discriminator 1
 113 0064 FFF7FEFF 		bl	chThdSleep
 114              	.LVL7:
ARM GAS  /tmp/ccyzIVnS.s 			page 3


 115              		.loc 1 51 0 discriminator 1
 116 0068 4FF48075 		mov	r5, #256
 117              		.loc 1 47 0 discriminator 1
 118 006c 6783     		strh	r7, [r4, #26]	@ movhi
 119              		.loc 1 49 0 discriminator 1
 120 006e 7D20     		movs	r0, #125
 121              		.loc 1 48 0 discriminator 1
 122 0070 2683     		strh	r6, [r4, #24]	@ movhi
 123              		.loc 1 49 0 discriminator 1
 124 0072 FFF7FEFF 		bl	chThdSleep
 125              	.LVL8:
 126              		.loc 1 50 0 discriminator 1
 127 0076 6683     		strh	r6, [r4, #26]	@ movhi
 128              		.loc 1 52 0 discriminator 1
 129 0078 7D20     		movs	r0, #125
 130              		.loc 1 51 0 discriminator 1
 131 007a 2583     		strh	r5, [r4, #24]	@ movhi
 132              		.loc 1 52 0 discriminator 1
 133 007c FFF7FEFF 		bl	chThdSleep
 134              	.LVL9:
 135              		.loc 1 53 0 discriminator 1
 136 0080 6583     		strh	r5, [r4, #26]	@ movhi
 137              		.loc 1 54 0 discriminator 1
 138 0082 C6E7     		b	.L2
 139              	.L6:
 140              		.align	2
 141              	.L5:
 142 0084 00000000 		.word	rlist
 143 0088 00000000 		.word	.LC0
 144 008c 00100048 		.word	1207963648
 145              		.cfi_endproc
 146              	.LFE118:
 147              		.size	Thread1, .-Thread1
 148              		.section	.text.startup.main,"ax",%progbits
 149              		.align	2
 150              		.p2align 4,,15
 151              		.global	main
 152              		.thumb
 153              		.thumb_func
 154              		.type	main, %function
 155              	main:
 156              	.LFB119:
 157              		.loc 1 63 0
 158              		.cfi_startproc
 159              		@ Volatile: function does not return.
 160              		@ args = 0, pretend = 0, frame = 0
 161              		@ frame_needed = 0, uses_anonymous_args = 0
 162 0000 00B5     		push	{lr}
 163              		.cfi_def_cfa_offset 4
 164              		.cfi_offset 14, -4
 165 0002 83B0     		sub	sp, sp, #12
 166              		.cfi_def_cfa_offset 16
 167              		.loc 1 72 0
 168 0004 FFF7FEFF 		bl	halInit
 169              	.LVL10:
 170              		.loc 1 73 0
 171 0008 FFF7FEFF 		bl	chSysInit
ARM GAS  /tmp/ccyzIVnS.s 			page 4


 172              	.LVL11:
 173              		.loc 1 79 0
 174 000c 1548     		ldr	r0, .L14
 175 000e 0021     		movs	r1, #0
 176 0010 FFF7FEFF 		bl	sdStart
 177              	.LVL12:
 178              		.loc 1 80 0
 179 0014 4FF09040 		mov	r0, #1207959552
 180 0018 4FF40071 		mov	r1, #512
 181 001c 40F28232 		movw	r2, #898
 182 0020 FFF7FEFF 		bl	_pal_lld_setgroupmode
 183              	.LVL13:
 184              		.loc 1 81 0
 185 0024 4FF09040 		mov	r0, #1207959552
 186 0028 4FF48061 		mov	r1, #1024
 187 002c 40F28232 		movw	r2, #898
 188 0030 FFF7FEFF 		bl	_pal_lld_setgroupmode
 189              	.LVL14:
 190              		.loc 1 86 0
 191 0034 0023     		movs	r3, #0
 192 0036 0093     		str	r3, [sp]
 193 0038 0B48     		ldr	r0, .L14+4
 194 003a 0C4B     		ldr	r3, .L14+8
 195 003c 4FF4A871 		mov	r1, #336
 196 0040 4022     		movs	r2, #64
 197 0042 FFF7FEFF 		bl	chThdCreateStatic
 198              	.LVL15:
 199              		.loc 1 94 0
 200 0046 4FF09044 		mov	r4, #1207959552
 201 004a 03E0     		b	.L9
 202              	.L8:
 203              		.loc 1 96 0
 204 004c 4FF4FA70 		mov	r0, #500
 205 0050 FFF7FEFF 		bl	chThdSleep
 206              	.LVL16:
 207              	.L9:
 208              		.loc 1 94 0
 209 0054 2369     		ldr	r3, [r4, #16]
 210 0056 DB07     		lsls	r3, r3, #31
 211 0058 F8D5     		bpl	.L8
 212              		.loc 1 95 0
 213 005a 0248     		ldr	r0, .L14
 214 005c FFF7FEFF 		bl	TestThread
 215              	.LVL17:
 216 0060 F4E7     		b	.L8
 217              	.L15:
 218 0062 00BF     		.align	2
 219              	.L14:
 220 0064 00000000 		.word	SD1
 221 0068 00000000 		.word	.LANCHOR0
 222 006c 00000000 		.word	Thread1
 223              		.cfi_endproc
 224              	.LFE119:
 225              		.size	main, .-main
 226              		.section	.bss.waThread1,"aw",%nobits
 227              		.align	3
 228              		.set	.LANCHOR0,. + 0
ARM GAS  /tmp/ccyzIVnS.s 			page 5


 229              		.type	waThread1, %object
 230              		.size	waThread1, 336
 231              	waThread1:
 232 0000 00000000 		.space	336
 232      00000000 
 232      00000000 
 232      00000000 
 232      00000000 
 233              		.section	.rodata.str1.4,"aMS",%progbits,1
 234              		.align	2
 235              	.LC0:
 236 0000 626C696E 		.ascii	"blinker\000"
 236      6B657200 
 237              		.text
 238              	.Letext0:
 239              		.file 2 "/usr/lib/gcc/arm-none-eabi/4.9.3/include/stddef.h"
 240              		.file 3 "/usr/arm-none-eabi/include/machine/_default_types.h"
 241              		.file 4 "/usr/arm-none-eabi/include/stdint.h"
 242              		.file 5 "/home/austin/git/personal/school/motor_control/chibios/os/ports/GCC/ARMCMx/chtypes.h"
 243              		.file 6 "/home/austin/git/personal/school/motor_control/chibios/os/kernel/include/chlists.h"
 244              		.file 7 "/home/austin/git/personal/school/motor_control/chibios/os/kernel/include/chthreads.h"
 245              		.file 8 "/home/austin/git/personal/school/motor_control/chibios/os/ports/GCC/ARMCMx/chcore_v7m.h"
 246              		.file 9 "/home/austin/git/personal/school/motor_control/chibios/os/kernel/include/chschd.h"
 247              		.file 10 "/home/austin/git/personal/school/motor_control/chibios/os/kernel/include/chmtx.h"
 248              		.file 11 "/home/austin/git/personal/school/motor_control/chibios/os/kernel/include/chevents.h"
 249              		.file 12 "/home/austin/git/personal/school/motor_control/chibios/os/kernel/include/chqueues.h"
 250              		.file 13 "/home/austin/git/personal/school/motor_control/chibios/os/hal/platforms/STM32F30x/stm32f
 251              		.file 14 "/home/austin/git/personal/school/motor_control/chibios/os/hal/platforms/STM32/GPIOv2/pal
 252              		.file 15 "/home/austin/git/personal/school/motor_control/chibios/os/hal/include/serial.h"
 253              		.file 16 "/home/austin/git/personal/school/motor_control/chibios/os/hal/platforms/STM32/USARTv2/se
 254              		.file 17 "/home/austin/git/personal/school/motor_control/chibios/os/ports/common/ARMCMx/CMSIS/incl
 255              		.file 18 "/home/austin/git/personal/school/motor_control/chibios/os/hal/include/hal.h"
 256              		.file 19 "/home/austin/git/personal/school/motor_control/chibios/os/kernel/include/chsys.h"
 257              		.file 20 "/home/austin/git/personal/school/motor_control/chibios/test/test.h"
 258              		.section	.debug_info,"",%progbits
 259              	.Ldebug_info0:
 260 0000 5E0C0000 		.4byte	0xc5e
 261 0004 0400     		.2byte	0x4
 262 0006 00000000 		.4byte	.Ldebug_abbrev0
 263 000a 04       		.byte	0x4
 264 000b 01       		.uleb128 0x1
 265 000c 80020000 		.4byte	.LASF142
 266 0010 01       		.byte	0x1
 267 0011 95030000 		.4byte	.LASF143
 268 0015 F3010000 		.4byte	.LASF144
 269 0019 00000000 		.4byte	.Ldebug_ranges0+0
 270 001d 00000000 		.4byte	0
 271 0021 00000000 		.4byte	.Ldebug_line0
 272 0025 02       		.uleb128 0x2
 273 0026 04       		.byte	0x4
 274 0027 05       		.byte	0x5
 275 0028 696E7400 		.ascii	"int\000"
 276 002c 03       		.uleb128 0x3
 277 002d 08000000 		.4byte	.LASF2
 278 0031 02       		.byte	0x2
 279 0032 D4       		.byte	0xd4
 280 0033 37000000 		.4byte	0x37
ARM GAS  /tmp/ccyzIVnS.s 			page 6


 281 0037 04       		.uleb128 0x4
 282 0038 04       		.byte	0x4
 283 0039 07       		.byte	0x7
 284 003a 57010000 		.4byte	.LASF0
 285 003e 04       		.uleb128 0x4
 286 003f 01       		.byte	0x1
 287 0040 06       		.byte	0x6
 288 0041 B3000000 		.4byte	.LASF1
 289 0045 03       		.uleb128 0x3
 290 0046 37000000 		.4byte	.LASF3
 291 004a 03       		.byte	0x3
 292 004b 1D       		.byte	0x1d
 293 004c 50000000 		.4byte	0x50
 294 0050 04       		.uleb128 0x4
 295 0051 01       		.byte	0x1
 296 0052 08       		.byte	0x8
 297 0053 38040000 		.4byte	.LASF4
 298 0057 04       		.uleb128 0x4
 299 0058 02       		.byte	0x2
 300 0059 05       		.byte	0x5
 301 005a 70040000 		.4byte	.LASF5
 302 005e 03       		.uleb128 0x3
 303 005f 47050000 		.4byte	.LASF6
 304 0063 03       		.byte	0x3
 305 0064 2B       		.byte	0x2b
 306 0065 69000000 		.4byte	0x69
 307 0069 04       		.uleb128 0x4
 308 006a 02       		.byte	0x2
 309 006b 07       		.byte	0x7
 310 006c B6010000 		.4byte	.LASF7
 311 0070 03       		.uleb128 0x3
 312 0071 6E050000 		.4byte	.LASF8
 313 0075 03       		.byte	0x3
 314 0076 3F       		.byte	0x3f
 315 0077 7B000000 		.4byte	0x7b
 316 007b 04       		.uleb128 0x4
 317 007c 04       		.byte	0x4
 318 007d 05       		.byte	0x5
 319 007e F3000000 		.4byte	.LASF9
 320 0082 03       		.uleb128 0x3
 321 0083 78050000 		.4byte	.LASF10
 322 0087 03       		.byte	0x3
 323 0088 41       		.byte	0x41
 324 0089 8D000000 		.4byte	0x8d
 325 008d 04       		.uleb128 0x4
 326 008e 04       		.byte	0x4
 327 008f 07       		.byte	0x7
 328 0090 19050000 		.4byte	.LASF11
 329 0094 04       		.uleb128 0x4
 330 0095 08       		.byte	0x8
 331 0096 05       		.byte	0x5
 332 0097 A5000000 		.4byte	.LASF12
 333 009b 03       		.uleb128 0x3
 334 009c C4030000 		.4byte	.LASF13
 335 00a0 03       		.byte	0x3
 336 00a1 5B       		.byte	0x5b
 337 00a2 A6000000 		.4byte	0xa6
ARM GAS  /tmp/ccyzIVnS.s 			page 7


 338 00a6 04       		.uleb128 0x4
 339 00a7 08       		.byte	0x8
 340 00a8 07       		.byte	0x7
 341 00a9 5B000000 		.4byte	.LASF14
 342 00ad 03       		.uleb128 0x3
 343 00ae FE050000 		.4byte	.LASF15
 344 00b2 04       		.byte	0x4
 345 00b3 15       		.byte	0x15
 346 00b4 45000000 		.4byte	0x45
 347 00b8 03       		.uleb128 0x3
 348 00b9 64010000 		.4byte	.LASF16
 349 00bd 04       		.byte	0x4
 350 00be 21       		.byte	0x21
 351 00bf 5E000000 		.4byte	0x5e
 352 00c3 03       		.uleb128 0x3
 353 00c4 30040000 		.4byte	.LASF17
 354 00c8 04       		.byte	0x4
 355 00c9 2C       		.byte	0x2c
 356 00ca 70000000 		.4byte	0x70
 357 00ce 03       		.uleb128 0x3
 358 00cf C7050000 		.4byte	.LASF18
 359 00d3 04       		.byte	0x4
 360 00d4 2D       		.byte	0x2d
 361 00d5 82000000 		.4byte	0x82
 362 00d9 03       		.uleb128 0x3
 363 00da 22000000 		.4byte	.LASF19
 364 00de 04       		.byte	0x4
 365 00df 39       		.byte	0x39
 366 00e0 9B000000 		.4byte	0x9b
 367 00e4 04       		.uleb128 0x4
 368 00e5 01       		.byte	0x1
 369 00e6 02       		.byte	0x2
 370 00e7 2A040000 		.4byte	.LASF20
 371 00eb 03       		.uleb128 0x3
 372 00ec EB010000 		.4byte	.LASF21
 373 00f0 05       		.byte	0x5
 374 00f1 2C       		.byte	0x2c
 375 00f2 AD000000 		.4byte	0xad
 376 00f6 03       		.uleb128 0x3
 377 00f7 FC000000 		.4byte	.LASF22
 378 00fb 05       		.byte	0x5
 379 00fc 2D       		.byte	0x2d
 380 00fd AD000000 		.4byte	0xad
 381 0101 03       		.uleb128 0x3
 382 0102 E3030000 		.4byte	.LASF23
 383 0106 05       		.byte	0x5
 384 0107 2E       		.byte	0x2e
 385 0108 AD000000 		.4byte	0xad
 386 010c 03       		.uleb128 0x3
 387 010d E3000000 		.4byte	.LASF24
 388 0111 05       		.byte	0x5
 389 0112 2F       		.byte	0x2f
 390 0113 AD000000 		.4byte	0xad
 391 0117 03       		.uleb128 0x3
 392 0118 1A040000 		.4byte	.LASF25
 393 011c 05       		.byte	0x5
 394 011d 30       		.byte	0x30
ARM GAS  /tmp/ccyzIVnS.s 			page 8


 395 011e CE000000 		.4byte	0xce
 396 0122 03       		.uleb128 0x3
 397 0123 C9010000 		.4byte	.LASF26
 398 0127 05       		.byte	0x5
 399 0128 31       		.byte	0x31
 400 0129 C3000000 		.4byte	0xc3
 401 012d 03       		.uleb128 0x3
 402 012e 27020000 		.4byte	.LASF27
 403 0132 05       		.byte	0x5
 404 0133 33       		.byte	0x33
 405 0134 CE000000 		.4byte	0xce
 406 0138 03       		.uleb128 0x3
 407 0139 C5040000 		.4byte	.LASF28
 408 013d 05       		.byte	0x5
 409 013e 34       		.byte	0x34
 410 013f CE000000 		.4byte	0xce
 411 0143 03       		.uleb128 0x3
 412 0144 59050000 		.4byte	.LASF29
 413 0148 05       		.byte	0x5
 414 0149 35       		.byte	0x35
 415 014a CE000000 		.4byte	0xce
 416 014e 03       		.uleb128 0x3
 417 014f B9040000 		.4byte	.LASF30
 418 0153 06       		.byte	0x6
 419 0154 2A       		.byte	0x2a
 420 0155 59010000 		.4byte	0x159
 421 0159 05       		.uleb128 0x5
 422 015a B9040000 		.4byte	.LASF30
 423 015e 48       		.byte	0x48
 424 015f 07       		.byte	0x7
 425 0160 5E       		.byte	0x5e
 426 0161 56020000 		.4byte	0x256
 427 0165 06       		.uleb128 0x6
 428 0166 9A040000 		.4byte	.LASF31
 429 016a 07       		.byte	0x7
 430 016b 5F       		.byte	0x5f
 431 016c 77020000 		.4byte	0x277
 432 0170 00       		.byte	0
 433 0171 06       		.uleb128 0x6
 434 0172 13040000 		.4byte	.LASF32
 435 0176 07       		.byte	0x7
 436 0177 61       		.byte	0x61
 437 0178 77020000 		.4byte	0x277
 438 017c 04       		.byte	0x4
 439 017d 06       		.uleb128 0x6
 440 017e 8E000000 		.4byte	.LASF33
 441 0182 07       		.byte	0x7
 442 0183 63       		.byte	0x63
 443 0184 17010000 		.4byte	0x117
 444 0188 08       		.byte	0x8
 445 0189 06       		.uleb128 0x6
 446 018a 37060000 		.4byte	.LASF34
 447 018e 07       		.byte	0x7
 448 018f 64       		.byte	0x64
 449 0190 3C030000 		.4byte	0x33c
 450 0194 0C       		.byte	0xc
 451 0195 06       		.uleb128 0x6
ARM GAS  /tmp/ccyzIVnS.s 			page 9


 452 0196 24010000 		.4byte	.LASF35
 453 019a 07       		.byte	0x7
 454 019b 66       		.byte	0x66
 455 019c 77020000 		.4byte	0x277
 456 01a0 10       		.byte	0x10
 457 01a1 06       		.uleb128 0x6
 458 01a2 7A030000 		.4byte	.LASF36
 459 01a6 07       		.byte	0x7
 460 01a7 67       		.byte	0x67
 461 01a8 77020000 		.4byte	0x277
 462 01ac 14       		.byte	0x14
 463 01ad 06       		.uleb128 0x6
 464 01ae D6050000 		.4byte	.LASF37
 465 01b2 07       		.byte	0x7
 466 01b3 6E       		.byte	0x6e
 467 01b4 B3040000 		.4byte	0x4b3
 468 01b8 18       		.byte	0x18
 469 01b9 06       		.uleb128 0x6
 470 01ba 7A040000 		.4byte	.LASF38
 471 01be 07       		.byte	0x7
 472 01bf 79       		.byte	0x79
 473 01c0 F6000000 		.4byte	0xf6
 474 01c4 1C       		.byte	0x1c
 475 01c5 06       		.uleb128 0x6
 476 01c6 A1040000 		.4byte	.LASF39
 477 01ca 07       		.byte	0x7
 478 01cb 7D       		.byte	0x7d
 479 01cc EB000000 		.4byte	0xeb
 480 01d0 1D       		.byte	0x1d
 481 01d1 06       		.uleb128 0x6
 482 01d2 05010000 		.4byte	.LASF40
 483 01d6 07       		.byte	0x7
 484 01d7 82       		.byte	0x82
 485 01d8 01010000 		.4byte	0x101
 486 01dc 1E       		.byte	0x1e
 487 01dd 06       		.uleb128 0x6
 488 01de 82040000 		.4byte	.LASF41
 489 01e2 07       		.byte	0x7
 490 01e3 88       		.byte	0x88
 491 01e4 0C010000 		.4byte	0x10c
 492 01e8 1F       		.byte	0x1f
 493 01e9 06       		.uleb128 0x6
 494 01ea 7D010000 		.4byte	.LASF42
 495 01ee 07       		.byte	0x7
 496 01ef 8F       		.byte	0x8f
 497 01f0 69030000 		.4byte	0x369
 498 01f4 20       		.byte	0x20
 499 01f5 07       		.uleb128 0x7
 500 01f6 705F7500 		.ascii	"p_u\000"
 501 01fa 07       		.byte	0x7
 502 01fb B4       		.byte	0xb4
 503 01fc 7E040000 		.4byte	0x47e
 504 0200 24       		.byte	0x24
 505 0201 06       		.uleb128 0x6
 506 0202 3D060000 		.4byte	.LASF43
 507 0206 07       		.byte	0x7
 508 0207 B9       		.byte	0xb9
ARM GAS  /tmp/ccyzIVnS.s 			page 10


 509 0208 9D020000 		.4byte	0x29d
 510 020c 28       		.byte	0x28
 511 020d 06       		.uleb128 0x6
 512 020e 8B010000 		.4byte	.LASF44
 513 0212 07       		.byte	0x7
 514 0213 BF       		.byte	0xbf
 515 0214 7D020000 		.4byte	0x27d
 516 0218 2C       		.byte	0x2c
 517 0219 06       		.uleb128 0x6
 518 021a B1050000 		.4byte	.LASF45
 519 021e 07       		.byte	0x7
 520 021f C3       		.byte	0xc3
 521 0220 22010000 		.4byte	0x122
 522 0224 34       		.byte	0x34
 523 0225 06       		.uleb128 0x6
 524 0226 D1040000 		.4byte	.LASF46
 525 022a 07       		.byte	0x7
 526 022b C9       		.byte	0xc9
 527 022c 2D010000 		.4byte	0x12d
 528 0230 38       		.byte	0x38
 529 0231 06       		.uleb128 0x6
 530 0232 66040000 		.4byte	.LASF47
 531 0236 07       		.byte	0x7
 532 0237 D0       		.byte	0xd0
 533 0238 C5040000 		.4byte	0x4c5
 534 023c 3C       		.byte	0x3c
 535 023d 06       		.uleb128 0x6
 536 023e 63050000 		.4byte	.LASF48
 537 0242 07       		.byte	0x7
 538 0243 D4       		.byte	0xd4
 539 0244 17010000 		.4byte	0x117
 540 0248 40       		.byte	0x40
 541 0249 06       		.uleb128 0x6
 542 024a D3000000 		.4byte	.LASF49
 543 024e 07       		.byte	0x7
 544 024f DA       		.byte	0xda
 545 0250 B3020000 		.4byte	0x2b3
 546 0254 44       		.byte	0x44
 547 0255 00       		.byte	0
 548 0256 08       		.uleb128 0x8
 549 0257 08       		.byte	0x8
 550 0258 06       		.byte	0x6
 551 0259 61       		.byte	0x61
 552 025a 77020000 		.4byte	0x277
 553 025e 06       		.uleb128 0x6
 554 025f 9A040000 		.4byte	.LASF31
 555 0263 06       		.byte	0x6
 556 0264 62       		.byte	0x62
 557 0265 77020000 		.4byte	0x277
 558 0269 00       		.byte	0
 559 026a 06       		.uleb128 0x6
 560 026b 13040000 		.4byte	.LASF32
 561 026f 06       		.byte	0x6
 562 0270 64       		.byte	0x64
 563 0271 77020000 		.4byte	0x277
 564 0275 04       		.byte	0x4
 565 0276 00       		.byte	0
ARM GAS  /tmp/ccyzIVnS.s 			page 11


 566 0277 09       		.uleb128 0x9
 567 0278 04       		.byte	0x4
 568 0279 4E010000 		.4byte	0x14e
 569 027d 03       		.uleb128 0x3
 570 027e 88030000 		.4byte	.LASF50
 571 0282 06       		.byte	0x6
 572 0283 66       		.byte	0x66
 573 0284 56020000 		.4byte	0x256
 574 0288 08       		.uleb128 0x8
 575 0289 04       		.byte	0x4
 576 028a 06       		.byte	0x6
 577 028b 6B       		.byte	0x6b
 578 028c 9D020000 		.4byte	0x29d
 579 0290 06       		.uleb128 0x6
 580 0291 9A040000 		.4byte	.LASF31
 581 0295 06       		.byte	0x6
 582 0296 6D       		.byte	0x6d
 583 0297 77020000 		.4byte	0x277
 584 029b 00       		.byte	0
 585 029c 00       		.byte	0
 586 029d 03       		.uleb128 0x3
 587 029e 0F000000 		.4byte	.LASF51
 588 02a2 06       		.byte	0x6
 589 02a3 70       		.byte	0x70
 590 02a4 88020000 		.4byte	0x288
 591 02a8 03       		.uleb128 0x3
 592 02a9 3C010000 		.4byte	.LASF52
 593 02ad 08       		.byte	0x8
 594 02ae E5       		.byte	0xe5
 595 02af B3020000 		.4byte	0x2b3
 596 02b3 0A       		.uleb128 0xa
 597 02b4 04       		.byte	0x4
 598 02b5 03       		.uleb128 0x3
 599 02b6 5B020000 		.4byte	.LASF53
 600 02ba 08       		.byte	0x8
 601 02bb EB       		.byte	0xeb
 602 02bc D9000000 		.4byte	0xd9
 603 02c0 0B       		.uleb128 0xb
 604 02c1 B7050000 		.4byte	.LASF54
 605 02c5 24       		.byte	0x24
 606 02c6 08       		.byte	0x8
 607 02c7 0C01     		.2byte	0x10c
 608 02c9 3C030000 		.4byte	0x33c
 609 02cd 0C       		.uleb128 0xc
 610 02ce 723400   		.ascii	"r4\000"
 611 02d1 08       		.byte	0x8
 612 02d2 1F01     		.2byte	0x11f
 613 02d4 A8020000 		.4byte	0x2a8
 614 02d8 00       		.byte	0
 615 02d9 0C       		.uleb128 0xc
 616 02da 723500   		.ascii	"r5\000"
 617 02dd 08       		.byte	0x8
 618 02de 2001     		.2byte	0x120
 619 02e0 A8020000 		.4byte	0x2a8
 620 02e4 04       		.byte	0x4
 621 02e5 0C       		.uleb128 0xc
 622 02e6 723600   		.ascii	"r6\000"
ARM GAS  /tmp/ccyzIVnS.s 			page 12


 623 02e9 08       		.byte	0x8
 624 02ea 2101     		.2byte	0x121
 625 02ec A8020000 		.4byte	0x2a8
 626 02f0 08       		.byte	0x8
 627 02f1 0C       		.uleb128 0xc
 628 02f2 723700   		.ascii	"r7\000"
 629 02f5 08       		.byte	0x8
 630 02f6 2201     		.2byte	0x122
 631 02f8 A8020000 		.4byte	0x2a8
 632 02fc 0C       		.byte	0xc
 633 02fd 0C       		.uleb128 0xc
 634 02fe 723800   		.ascii	"r8\000"
 635 0301 08       		.byte	0x8
 636 0302 2301     		.2byte	0x123
 637 0304 A8020000 		.4byte	0x2a8
 638 0308 10       		.byte	0x10
 639 0309 0C       		.uleb128 0xc
 640 030a 723900   		.ascii	"r9\000"
 641 030d 08       		.byte	0x8
 642 030e 2401     		.2byte	0x124
 643 0310 A8020000 		.4byte	0x2a8
 644 0314 14       		.byte	0x14
 645 0315 0C       		.uleb128 0xc
 646 0316 72313000 		.ascii	"r10\000"
 647 031a 08       		.byte	0x8
 648 031b 2501     		.2byte	0x125
 649 031d A8020000 		.4byte	0x2a8
 650 0321 18       		.byte	0x18
 651 0322 0C       		.uleb128 0xc
 652 0323 72313100 		.ascii	"r11\000"
 653 0327 08       		.byte	0x8
 654 0328 2601     		.2byte	0x126
 655 032a A8020000 		.4byte	0x2a8
 656 032e 1C       		.byte	0x1c
 657 032f 0C       		.uleb128 0xc
 658 0330 6C7200   		.ascii	"lr\000"
 659 0333 08       		.byte	0x8
 660 0334 2701     		.2byte	0x127
 661 0336 A8020000 		.4byte	0x2a8
 662 033a 20       		.byte	0x20
 663 033b 00       		.byte	0
 664 033c 0B       		.uleb128 0xb
 665 033d 93050000 		.4byte	.LASF55
 666 0341 04       		.byte	0x4
 667 0342 08       		.byte	0x8
 668 0343 3101     		.2byte	0x131
 669 0345 57030000 		.4byte	0x357
 670 0349 0C       		.uleb128 0xc
 671 034a 72313300 		.ascii	"r13\000"
 672 034e 08       		.byte	0x8
 673 034f 3201     		.2byte	0x132
 674 0351 57030000 		.4byte	0x357
 675 0355 00       		.byte	0
 676 0356 00       		.byte	0
 677 0357 09       		.uleb128 0x9
 678 0358 04       		.byte	0x4
 679 0359 C0020000 		.4byte	0x2c0
ARM GAS  /tmp/ccyzIVnS.s 			page 13


 680 035d 0D       		.uleb128 0xd
 681 035e CE000000 		.4byte	0xce
 682 0362 04       		.uleb128 0x4
 683 0363 04       		.byte	0x4
 684 0364 07       		.byte	0x7
 685 0365 65030000 		.4byte	.LASF56
 686 0369 0D       		.uleb128 0xd
 687 036a 43010000 		.4byte	0x143
 688 036e 08       		.uleb128 0x8
 689 036f 1C       		.byte	0x1c
 690 0370 09       		.byte	0x9
 691 0371 5E       		.byte	0x5e
 692 0372 BF030000 		.4byte	0x3bf
 693 0376 06       		.uleb128 0x6
 694 0377 FA040000 		.4byte	.LASF57
 695 037b 09       		.byte	0x9
 696 037c 5F       		.byte	0x5f
 697 037d 7D020000 		.4byte	0x27d
 698 0381 00       		.byte	0
 699 0382 06       		.uleb128 0x6
 700 0383 8C040000 		.4byte	.LASF58
 701 0387 09       		.byte	0x9
 702 0388 60       		.byte	0x60
 703 0389 17010000 		.4byte	0x117
 704 038d 08       		.byte	0x8
 705 038e 06       		.uleb128 0x6
 706 038f 82030000 		.4byte	.LASF59
 707 0393 09       		.byte	0x9
 708 0394 62       		.byte	0x62
 709 0395 3C030000 		.4byte	0x33c
 710 0399 0C       		.byte	0xc
 711 039a 06       		.uleb128 0x6
 712 039b 34010000 		.4byte	.LASF60
 713 039f 09       		.byte	0x9
 714 03a0 65       		.byte	0x65
 715 03a1 77020000 		.4byte	0x277
 716 03a5 10       		.byte	0x10
 717 03a6 06       		.uleb128 0x6
 718 03a7 9C030000 		.4byte	.LASF61
 719 03ab 09       		.byte	0x9
 720 03ac 66       		.byte	0x66
 721 03ad 77020000 		.4byte	0x277
 722 03b1 14       		.byte	0x14
 723 03b2 06       		.uleb128 0x6
 724 03b3 2B050000 		.4byte	.LASF62
 725 03b7 09       		.byte	0x9
 726 03b8 69       		.byte	0x69
 727 03b9 77020000 		.4byte	0x277
 728 03bd 18       		.byte	0x18
 729 03be 00       		.byte	0
 730 03bf 03       		.uleb128 0x3
 731 03c0 E5050000 		.4byte	.LASF63
 732 03c4 09       		.byte	0x9
 733 03c5 6B       		.byte	0x6b
 734 03c6 6E030000 		.4byte	0x36e
 735 03ca 05       		.uleb128 0x5
 736 03cb 74030000 		.4byte	.LASF64
ARM GAS  /tmp/ccyzIVnS.s 			page 14


 737 03cf 10       		.byte	0x10
 738 03d0 0A       		.byte	0xa
 739 03d1 2C       		.byte	0x2c
 740 03d2 FB030000 		.4byte	0x3fb
 741 03d6 06       		.uleb128 0x6
 742 03d7 DB000000 		.4byte	.LASF65
 743 03db 0A       		.byte	0xa
 744 03dc 2D       		.byte	0x2d
 745 03dd 7D020000 		.4byte	0x27d
 746 03e1 00       		.byte	0
 747 03e2 06       		.uleb128 0x6
 748 03e3 2F060000 		.4byte	.LASF66
 749 03e7 0A       		.byte	0xa
 750 03e8 2F       		.byte	0x2f
 751 03e9 77020000 		.4byte	0x277
 752 03ed 08       		.byte	0x8
 753 03ee 06       		.uleb128 0x6
 754 03ef 52050000 		.4byte	.LASF67
 755 03f3 0A       		.byte	0xa
 756 03f4 31       		.byte	0x31
 757 03f5 FB030000 		.4byte	0x3fb
 758 03f9 0C       		.byte	0xc
 759 03fa 00       		.byte	0
 760 03fb 09       		.uleb128 0x9
 761 03fc 04       		.byte	0x4
 762 03fd CA030000 		.4byte	0x3ca
 763 0401 03       		.uleb128 0x3
 764 0402 74030000 		.4byte	.LASF64
 765 0406 0A       		.byte	0xa
 766 0407 33       		.byte	0x33
 767 0408 CA030000 		.4byte	0x3ca
 768 040c 03       		.uleb128 0x3
 769 040d 06060000 		.4byte	.LASF68
 770 0411 0B       		.byte	0xb
 771 0412 2C       		.byte	0x2c
 772 0413 17040000 		.4byte	0x417
 773 0417 05       		.uleb128 0x5
 774 0418 06060000 		.4byte	.LASF68
 775 041c 10       		.byte	0x10
 776 041d 0B       		.byte	0xb
 777 041e 31       		.byte	0x31
 778 041f 54040000 		.4byte	0x454
 779 0423 06       		.uleb128 0x6
 780 0424 A9040000 		.4byte	.LASF69
 781 0428 0B       		.byte	0xb
 782 0429 32       		.byte	0x32
 783 042a 54040000 		.4byte	0x454
 784 042e 00       		.byte	0
 785 042f 06       		.uleb128 0x6
 786 0430 51040000 		.4byte	.LASF70
 787 0434 0B       		.byte	0xb
 788 0435 35       		.byte	0x35
 789 0436 77020000 		.4byte	0x277
 790 043a 04       		.byte	0x4
 791 043b 06       		.uleb128 0x6
 792 043c A4030000 		.4byte	.LASF71
 793 0440 0B       		.byte	0xb
ARM GAS  /tmp/ccyzIVnS.s 			page 15


 794 0441 37       		.byte	0x37
 795 0442 2D010000 		.4byte	0x12d
 796 0446 08       		.byte	0x8
 797 0447 06       		.uleb128 0x6
 798 0448 5D040000 		.4byte	.LASF72
 799 044c 0B       		.byte	0xb
 800 044d 3A       		.byte	0x3a
 801 044e 38010000 		.4byte	0x138
 802 0452 0C       		.byte	0xc
 803 0453 00       		.byte	0
 804 0454 09       		.uleb128 0x9
 805 0455 04       		.byte	0x4
 806 0456 0C040000 		.4byte	0x40c
 807 045a 05       		.uleb128 0x5
 808 045b 45010000 		.4byte	.LASF73
 809 045f 04       		.byte	0x4
 810 0460 0B       		.byte	0xb
 811 0461 41       		.byte	0x41
 812 0462 73040000 		.4byte	0x473
 813 0466 06       		.uleb128 0x6
 814 0467 DD050000 		.4byte	.LASF74
 815 046b 0B       		.byte	0xb
 816 046c 42       		.byte	0x42
 817 046d 54040000 		.4byte	0x454
 818 0471 00       		.byte	0
 819 0472 00       		.byte	0
 820 0473 03       		.uleb128 0x3
 821 0474 45010000 		.4byte	.LASF73
 822 0478 0B       		.byte	0xb
 823 0479 45       		.byte	0x45
 824 047a 5A040000 		.4byte	0x45a
 825 047e 0E       		.uleb128 0xe
 826 047f 04       		.byte	0x4
 827 0480 07       		.byte	0x7
 828 0481 96       		.byte	0x96
 829 0482 B3040000 		.4byte	0x4b3
 830 0486 0F       		.uleb128 0xf
 831 0487 1B000000 		.4byte	.LASF75
 832 048b 07       		.byte	0x7
 833 048c 9D       		.byte	0x9d
 834 048d 22010000 		.4byte	0x122
 835 0491 0F       		.uleb128 0xf
 836 0492 78000000 		.4byte	.LASF76
 837 0496 07       		.byte	0x7
 838 0497 A4       		.byte	0xa4
 839 0498 22010000 		.4byte	0x122
 840 049c 0F       		.uleb128 0xf
 841 049d 14060000 		.4byte	.LASF77
 842 04a1 07       		.byte	0x7
 843 04a2 AB       		.byte	0xab
 844 04a3 B3020000 		.4byte	0x2b3
 845 04a7 0F       		.uleb128 0xf
 846 04a8 93040000 		.4byte	.LASF78
 847 04ac 07       		.byte	0x7
 848 04ad B2       		.byte	0xb2
 849 04ae 2D010000 		.4byte	0x12d
 850 04b2 00       		.byte	0
ARM GAS  /tmp/ccyzIVnS.s 			page 16


 851 04b3 09       		.uleb128 0x9
 852 04b4 04       		.byte	0x4
 853 04b5 B9040000 		.4byte	0x4b9
 854 04b9 10       		.uleb128 0x10
 855 04ba BE040000 		.4byte	0x4be
 856 04be 04       		.uleb128 0x4
 857 04bf 01       		.byte	0x1
 858 04c0 08       		.byte	0x8
 859 04c1 3A050000 		.4byte	.LASF79
 860 04c5 09       		.uleb128 0x9
 861 04c6 04       		.byte	0x4
 862 04c7 01040000 		.4byte	0x401
 863 04cb 03       		.uleb128 0x3
 864 04cc 00000000 		.4byte	.LASF80
 865 04d0 07       		.byte	0x7
 866 04d1 E5       		.byte	0xe5
 867 04d2 D6040000 		.4byte	0x4d6
 868 04d6 09       		.uleb128 0x9
 869 04d7 04       		.byte	0x4
 870 04d8 DC040000 		.4byte	0x4dc
 871 04dc 11       		.uleb128 0x11
 872 04dd 22010000 		.4byte	0x122
 873 04e1 EB040000 		.4byte	0x4eb
 874 04e5 12       		.uleb128 0x12
 875 04e6 B3020000 		.4byte	0x2b3
 876 04ea 00       		.byte	0
 877 04eb 03       		.uleb128 0x3
 878 04ec 4E020000 		.4byte	.LASF81
 879 04f0 0C       		.byte	0xc
 880 04f1 37       		.byte	0x37
 881 04f2 F6040000 		.4byte	0x4f6
 882 04f6 05       		.uleb128 0x5
 883 04f7 4E020000 		.4byte	.LASF81
 884 04fb 24       		.byte	0x24
 885 04fc 0C       		.byte	0xc
 886 04fd 45       		.byte	0x45
 887 04fe 63050000 		.4byte	0x563
 888 0502 06       		.uleb128 0x6
 889 0503 9B000000 		.4byte	.LASF82
 890 0507 0C       		.byte	0xc
 891 0508 46       		.byte	0x46
 892 0509 7D020000 		.4byte	0x27d
 893 050d 00       		.byte	0
 894 050e 06       		.uleb128 0x6
 895 050f F0040000 		.4byte	.LASF83
 896 0513 0C       		.byte	0xc
 897 0514 47       		.byte	0x47
 898 0515 2C000000 		.4byte	0x2c
 899 0519 08       		.byte	0x8
 900 051a 06       		.uleb128 0x6
 901 051b 0C010000 		.4byte	.LASF84
 902 051f 0C       		.byte	0xc
 903 0520 48       		.byte	0x48
 904 0521 85050000 		.4byte	0x585
 905 0525 0C       		.byte	0xc
 906 0526 06       		.uleb128 0x6
 907 0527 D0050000 		.4byte	.LASF85
ARM GAS  /tmp/ccyzIVnS.s 			page 17


 908 052b 0C       		.byte	0xc
 909 052c 49       		.byte	0x49
 910 052d 85050000 		.4byte	0x585
 911 0531 10       		.byte	0x10
 912 0532 06       		.uleb128 0x6
 913 0533 15010000 		.4byte	.LASF86
 914 0537 0C       		.byte	0xc
 915 0538 4B       		.byte	0x4b
 916 0539 85050000 		.4byte	0x585
 917 053d 14       		.byte	0x14
 918 053e 06       		.uleb128 0x6
 919 053f 22040000 		.4byte	.LASF87
 920 0543 0C       		.byte	0xc
 921 0544 4C       		.byte	0x4c
 922 0545 85050000 		.4byte	0x585
 923 0549 18       		.byte	0x18
 924 054a 06       		.uleb128 0x6
 925 054b EF050000 		.4byte	.LASF88
 926 054f 0C       		.byte	0xc
 927 0550 4D       		.byte	0x4d
 928 0551 63050000 		.4byte	0x563
 929 0555 1C       		.byte	0x1c
 930 0556 06       		.uleb128 0x6
 931 0557 1D010000 		.4byte	.LASF89
 932 055b 0C       		.byte	0xc
 933 055c 4E       		.byte	0x4e
 934 055d B3020000 		.4byte	0x2b3
 935 0561 20       		.byte	0x20
 936 0562 00       		.byte	0
 937 0563 03       		.uleb128 0x3
 938 0564 44020000 		.4byte	.LASF90
 939 0568 0C       		.byte	0xc
 940 0569 3A       		.byte	0x3a
 941 056a 6E050000 		.4byte	0x56e
 942 056e 09       		.uleb128 0x9
 943 056f 04       		.byte	0x4
 944 0570 74050000 		.4byte	0x574
 945 0574 13       		.uleb128 0x13
 946 0575 7F050000 		.4byte	0x57f
 947 0579 12       		.uleb128 0x12
 948 057a 7F050000 		.4byte	0x57f
 949 057e 00       		.byte	0
 950 057f 09       		.uleb128 0x9
 951 0580 04       		.byte	0x4
 952 0581 EB040000 		.4byte	0x4eb
 953 0585 09       		.uleb128 0x9
 954 0586 04       		.byte	0x4
 955 0587 AD000000 		.4byte	0xad
 956 058b 03       		.uleb128 0x3
 957 058c 33020000 		.4byte	.LASF91
 958 0590 0C       		.byte	0xc
 959 0591 82       		.byte	0x82
 960 0592 EB040000 		.4byte	0x4eb
 961 0596 03       		.uleb128 0x3
 962 0597 2B000000 		.4byte	.LASF92
 963 059b 0C       		.byte	0xc
 964 059c F5       		.byte	0xf5
ARM GAS  /tmp/ccyzIVnS.s 			page 18


 965 059d EB040000 		.4byte	0x4eb
 966 05a1 11       		.uleb128 0x11
 967 05a2 2C000000 		.4byte	0x2c
 968 05a6 BA050000 		.4byte	0x5ba
 969 05aa 12       		.uleb128 0x12
 970 05ab B3020000 		.4byte	0x2b3
 971 05af 12       		.uleb128 0x12
 972 05b0 BA050000 		.4byte	0x5ba
 973 05b4 12       		.uleb128 0x12
 974 05b5 2C000000 		.4byte	0x2c
 975 05b9 00       		.byte	0
 976 05ba 09       		.uleb128 0x9
 977 05bb 04       		.byte	0x4
 978 05bc C0050000 		.4byte	0x5c0
 979 05c0 10       		.uleb128 0x10
 980 05c1 AD000000 		.4byte	0xad
 981 05c5 09       		.uleb128 0x9
 982 05c6 04       		.byte	0x4
 983 05c7 A1050000 		.4byte	0x5a1
 984 05cb 11       		.uleb128 0x11
 985 05cc 2C000000 		.4byte	0x2c
 986 05d0 E4050000 		.4byte	0x5e4
 987 05d4 12       		.uleb128 0x12
 988 05d5 B3020000 		.4byte	0x2b3
 989 05d9 12       		.uleb128 0x12
 990 05da 85050000 		.4byte	0x585
 991 05de 12       		.uleb128 0x12
 992 05df 2C000000 		.4byte	0x2c
 993 05e3 00       		.byte	0
 994 05e4 09       		.uleb128 0x9
 995 05e5 04       		.byte	0x4
 996 05e6 CB050000 		.4byte	0x5cb
 997 05ea 11       		.uleb128 0x11
 998 05eb 22010000 		.4byte	0x122
 999 05ef FE050000 		.4byte	0x5fe
 1000 05f3 12       		.uleb128 0x12
 1001 05f4 B3020000 		.4byte	0x2b3
 1002 05f8 12       		.uleb128 0x12
 1003 05f9 AD000000 		.4byte	0xad
 1004 05fd 00       		.byte	0
 1005 05fe 09       		.uleb128 0x9
 1006 05ff 04       		.byte	0x4
 1007 0600 EA050000 		.4byte	0x5ea
 1008 0604 0D       		.uleb128 0xd
 1009 0605 B8000000 		.4byte	0xb8
 1010 0609 0D       		.uleb128 0xd
 1011 060a C3000000 		.4byte	0xc3
 1012 060e 14       		.uleb128 0x14
 1013 060f 2C       		.byte	0x2c
 1014 0610 0D       		.byte	0xd
 1015 0611 1B03     		.2byte	0x31b
 1016 0613 E8060000 		.4byte	0x6e8
 1017 0617 0C       		.uleb128 0xc
 1018 0618 43523100 		.ascii	"CR1\000"
 1019 061c 0D       		.byte	0xd
 1020 061d 1D03     		.2byte	0x31d
 1021 061f 5D030000 		.4byte	0x35d
ARM GAS  /tmp/ccyzIVnS.s 			page 19


 1022 0623 00       		.byte	0
 1023 0624 0C       		.uleb128 0xc
 1024 0625 43523200 		.ascii	"CR2\000"
 1025 0629 0D       		.byte	0xd
 1026 062a 1E03     		.2byte	0x31e
 1027 062c 5D030000 		.4byte	0x35d
 1028 0630 04       		.byte	0x4
 1029 0631 0C       		.uleb128 0xc
 1030 0632 43523300 		.ascii	"CR3\000"
 1031 0636 0D       		.byte	0xd
 1032 0637 1F03     		.2byte	0x31f
 1033 0639 5D030000 		.4byte	0x35d
 1034 063d 08       		.byte	0x8
 1035 063e 0C       		.uleb128 0xc
 1036 063f 42525200 		.ascii	"BRR\000"
 1037 0643 0D       		.byte	0xd
 1038 0644 2003     		.2byte	0x320
 1039 0646 04060000 		.4byte	0x604
 1040 064a 0C       		.byte	0xc
 1041 064b 15       		.uleb128 0x15
 1042 064c EB030000 		.4byte	.LASF93
 1043 0650 0D       		.byte	0xd
 1044 0651 2103     		.2byte	0x321
 1045 0653 B8000000 		.4byte	0xb8
 1046 0657 0E       		.byte	0xe
 1047 0658 15       		.uleb128 0x15
 1048 0659 CE000000 		.4byte	.LASF94
 1049 065d 0D       		.byte	0xd
 1050 065e 2203     		.2byte	0x322
 1051 0660 04060000 		.4byte	0x604
 1052 0664 10       		.byte	0x10
 1053 0665 15       		.uleb128 0x15
 1054 0666 F5030000 		.4byte	.LASF95
 1055 066a 0D       		.byte	0xd
 1056 066b 2303     		.2byte	0x323
 1057 066d B8000000 		.4byte	0xb8
 1058 0671 12       		.byte	0x12
 1059 0672 15       		.uleb128 0x15
 1060 0673 83050000 		.4byte	.LASF96
 1061 0677 0D       		.byte	0xd
 1062 0678 2403     		.2byte	0x324
 1063 067a 5D030000 		.4byte	0x35d
 1064 067e 14       		.byte	0x14
 1065 067f 0C       		.uleb128 0xc
 1066 0680 52515200 		.ascii	"RQR\000"
 1067 0684 0D       		.byte	0xd
 1068 0685 2503     		.2byte	0x325
 1069 0687 04060000 		.4byte	0x604
 1070 068b 18       		.byte	0x18
 1071 068c 15       		.uleb128 0x15
 1072 068d FF030000 		.4byte	.LASF97
 1073 0691 0D       		.byte	0xd
 1074 0692 2603     		.2byte	0x326
 1075 0694 B8000000 		.4byte	0xb8
 1076 0698 1A       		.byte	0x1a
 1077 0699 0C       		.uleb128 0xc
 1078 069a 49535200 		.ascii	"ISR\000"
ARM GAS  /tmp/ccyzIVnS.s 			page 20


 1079 069e 0D       		.byte	0xd
 1080 069f 2703     		.2byte	0x327
 1081 06a1 5D030000 		.4byte	0x35d
 1082 06a5 1C       		.byte	0x1c
 1083 06a6 0C       		.uleb128 0xc
 1084 06a7 49435200 		.ascii	"ICR\000"
 1085 06ab 0D       		.byte	0xd
 1086 06ac 2803     		.2byte	0x328
 1087 06ae 5D030000 		.4byte	0x35d
 1088 06b2 20       		.byte	0x20
 1089 06b3 0C       		.uleb128 0xc
 1090 06b4 52445200 		.ascii	"RDR\000"
 1091 06b8 0D       		.byte	0xd
 1092 06b9 2903     		.2byte	0x329
 1093 06bb 04060000 		.4byte	0x604
 1094 06bf 24       		.byte	0x24
 1095 06c0 15       		.uleb128 0x15
 1096 06c1 09040000 		.4byte	.LASF98
 1097 06c5 0D       		.byte	0xd
 1098 06c6 2A03     		.2byte	0x32a
 1099 06c8 B8000000 		.4byte	0xb8
 1100 06cc 26       		.byte	0x26
 1101 06cd 0C       		.uleb128 0xc
 1102 06ce 54445200 		.ascii	"TDR\000"
 1103 06d2 0D       		.byte	0xd
 1104 06d3 2B03     		.2byte	0x32b
 1105 06d5 04060000 		.4byte	0x604
 1106 06d9 28       		.byte	0x28
 1107 06da 15       		.uleb128 0x15
 1108 06db E6040000 		.4byte	.LASF99
 1109 06df 0D       		.byte	0xd
 1110 06e0 2C03     		.2byte	0x32c
 1111 06e2 B8000000 		.4byte	0xb8
 1112 06e6 2A       		.byte	0x2a
 1113 06e7 00       		.byte	0
 1114 06e8 16       		.uleb128 0x16
 1115 06e9 D6010000 		.4byte	.LASF100
 1116 06ed 0D       		.byte	0xd
 1117 06ee 2D03     		.2byte	0x32d
 1118 06f0 0E060000 		.4byte	0x60e
 1119 06f4 11       		.uleb128 0x11
 1120 06f5 22010000 		.4byte	0x122
 1121 06f9 0D070000 		.4byte	0x70d
 1122 06fd 12       		.uleb128 0x12
 1123 06fe B3020000 		.4byte	0x2b3
 1124 0702 12       		.uleb128 0x12
 1125 0703 AD000000 		.4byte	0xad
 1126 0707 12       		.uleb128 0x12
 1127 0708 43010000 		.4byte	0x143
 1128 070c 00       		.byte	0
 1129 070d 09       		.uleb128 0x9
 1130 070e 04       		.byte	0x4
 1131 070f F4060000 		.4byte	0x6f4
 1132 0713 11       		.uleb128 0x11
 1133 0714 22010000 		.4byte	0x122
 1134 0718 27070000 		.4byte	0x727
 1135 071c 12       		.uleb128 0x12
ARM GAS  /tmp/ccyzIVnS.s 			page 21


 1136 071d B3020000 		.4byte	0x2b3
 1137 0721 12       		.uleb128 0x12
 1138 0722 43010000 		.4byte	0x143
 1139 0726 00       		.byte	0
 1140 0727 09       		.uleb128 0x9
 1141 0728 04       		.byte	0x4
 1142 0729 13070000 		.4byte	0x713
 1143 072d 11       		.uleb128 0x11
 1144 072e 2C000000 		.4byte	0x2c
 1145 0732 4B070000 		.4byte	0x74b
 1146 0736 12       		.uleb128 0x12
 1147 0737 B3020000 		.4byte	0x2b3
 1148 073b 12       		.uleb128 0x12
 1149 073c BA050000 		.4byte	0x5ba
 1150 0740 12       		.uleb128 0x12
 1151 0741 2C000000 		.4byte	0x2c
 1152 0745 12       		.uleb128 0x12
 1153 0746 43010000 		.4byte	0x143
 1154 074a 00       		.byte	0
 1155 074b 09       		.uleb128 0x9
 1156 074c 04       		.byte	0x4
 1157 074d 2D070000 		.4byte	0x72d
 1158 0751 11       		.uleb128 0x11
 1159 0752 2C000000 		.4byte	0x2c
 1160 0756 6F070000 		.4byte	0x76f
 1161 075a 12       		.uleb128 0x12
 1162 075b B3020000 		.4byte	0x2b3
 1163 075f 12       		.uleb128 0x12
 1164 0760 85050000 		.4byte	0x585
 1165 0764 12       		.uleb128 0x12
 1166 0765 2C000000 		.4byte	0x2c
 1167 0769 12       		.uleb128 0x12
 1168 076a 43010000 		.4byte	0x143
 1169 076e 00       		.byte	0
 1170 076f 09       		.uleb128 0x9
 1171 0770 04       		.byte	0x4
 1172 0771 51070000 		.4byte	0x751
 1173 0775 08       		.uleb128 0x8
 1174 0776 04       		.byte	0x4
 1175 0777 0E       		.byte	0xe
 1176 0778 96       		.byte	0x96
 1177 0779 96070000 		.4byte	0x796
 1178 077d 07       		.uleb128 0x7
 1179 077e 73657400 		.ascii	"set\000"
 1180 0782 0E       		.byte	0xe
 1181 0783 97       		.byte	0x97
 1182 0784 B8000000 		.4byte	0xb8
 1183 0788 00       		.byte	0
 1184 0789 06       		.uleb128 0x6
 1185 078a 6E030000 		.4byte	.LASF101
 1186 078e 0E       		.byte	0xe
 1187 078f 98       		.byte	0x98
 1188 0790 B8000000 		.4byte	0xb8
 1189 0794 02       		.byte	0x2
 1190 0795 00       		.byte	0
 1191 0796 0E       		.uleb128 0xe
 1192 0797 04       		.byte	0x4
ARM GAS  /tmp/ccyzIVnS.s 			page 22


 1193 0798 0E       		.byte	0xe
 1194 0799 94       		.byte	0x94
 1195 079a B1070000 		.4byte	0x7b1
 1196 079e 17       		.uleb128 0x17
 1197 079f 5700     		.ascii	"W\000"
 1198 07a1 0E       		.byte	0xe
 1199 07a2 95       		.byte	0x95
 1200 07a3 CE000000 		.4byte	0xce
 1201 07a7 17       		.uleb128 0x17
 1202 07a8 4800     		.ascii	"H\000"
 1203 07aa 0E       		.byte	0xe
 1204 07ab 99       		.byte	0x99
 1205 07ac 75070000 		.4byte	0x775
 1206 07b0 00       		.byte	0
 1207 07b1 08       		.uleb128 0x8
 1208 07b2 28       		.byte	0x28
 1209 07b3 0E       		.byte	0xe
 1210 07b4 8C       		.byte	0x8c
 1211 07b5 32080000 		.4byte	0x832
 1212 07b9 06       		.uleb128 0x6
 1213 07ba 55000000 		.4byte	.LASF102
 1214 07be 0E       		.byte	0xe
 1215 07bf 8E       		.byte	0x8e
 1216 07c0 5D030000 		.4byte	0x35d
 1217 07c4 00       		.byte	0
 1218 07c5 06       		.uleb128 0x6
 1219 07c6 41000000 		.4byte	.LASF103
 1220 07ca 0E       		.byte	0xe
 1221 07cb 8F       		.byte	0x8f
 1222 07cc 5D030000 		.4byte	0x35d
 1223 07d0 04       		.byte	0x4
 1224 07d1 06       		.uleb128 0x6
 1225 07d2 2C010000 		.4byte	.LASF104
 1226 07d6 0E       		.byte	0xe
 1227 07d7 90       		.byte	0x90
 1228 07d8 5D030000 		.4byte	0x35d
 1229 07dc 08       		.byte	0x8
 1230 07dd 06       		.uleb128 0x6
 1231 07de 72000000 		.4byte	.LASF105
 1232 07e2 0E       		.byte	0xe
 1233 07e3 91       		.byte	0x91
 1234 07e4 5D030000 		.4byte	0x35d
 1235 07e8 0C       		.byte	0xc
 1236 07e9 07       		.uleb128 0x7
 1237 07ea 49445200 		.ascii	"IDR\000"
 1238 07ee 0E       		.byte	0xe
 1239 07ef 92       		.byte	0x92
 1240 07f0 5D030000 		.4byte	0x35d
 1241 07f4 10       		.byte	0x10
 1242 07f5 07       		.uleb128 0x7
 1243 07f6 4F445200 		.ascii	"ODR\000"
 1244 07fa 0E       		.byte	0xe
 1245 07fb 93       		.byte	0x93
 1246 07fc 5D030000 		.4byte	0x35d
 1247 0800 14       		.byte	0x14
 1248 0801 06       		.uleb128 0x6
 1249 0802 BF000000 		.4byte	.LASF106
ARM GAS  /tmp/ccyzIVnS.s 			page 23


 1250 0806 0E       		.byte	0xe
 1251 0807 9A       		.byte	0x9a
 1252 0808 32080000 		.4byte	0x832
 1253 080c 18       		.byte	0x18
 1254 080d 06       		.uleb128 0x6
 1255 080e C0040000 		.4byte	.LASF107
 1256 0812 0E       		.byte	0xe
 1257 0813 9B       		.byte	0x9b
 1258 0814 5D030000 		.4byte	0x35d
 1259 0818 1C       		.byte	0x1c
 1260 0819 06       		.uleb128 0x6
 1261 081a D4030000 		.4byte	.LASF108
 1262 081e 0E       		.byte	0xe
 1263 081f 9C       		.byte	0x9c
 1264 0820 5D030000 		.4byte	0x35d
 1265 0824 20       		.byte	0x20
 1266 0825 06       		.uleb128 0x6
 1267 0826 CF030000 		.4byte	.LASF109
 1268 082a 0E       		.byte	0xe
 1269 082b 9D       		.byte	0x9d
 1270 082c 5D030000 		.4byte	0x35d
 1271 0830 24       		.byte	0x24
 1272 0831 00       		.byte	0
 1273 0832 0D       		.uleb128 0xd
 1274 0833 96070000 		.4byte	0x796
 1275 0837 03       		.uleb128 0x3
 1276 0838 96010000 		.4byte	.LASF110
 1277 083c 0E       		.byte	0xe
 1278 083d 9E       		.byte	0x9e
 1279 083e B1070000 		.4byte	0x7b1
 1280 0842 03       		.uleb128 0x3
 1281 0843 48000000 		.4byte	.LASF111
 1282 0847 0E       		.byte	0xe
 1283 0848 F0       		.byte	0xf0
 1284 0849 CE000000 		.4byte	0xce
 1285 084d 03       		.uleb128 0x3
 1286 084e 26060000 		.4byte	.LASF112
 1287 0852 0E       		.byte	0xe
 1288 0853 F5       		.byte	0xf5
 1289 0854 CE000000 		.4byte	0xce
 1290 0858 03       		.uleb128 0x3
 1291 0859 88050000 		.4byte	.LASF113
 1292 085d 0E       		.byte	0xe
 1293 085e FD       		.byte	0xfd
 1294 085f 63080000 		.4byte	0x863
 1295 0863 09       		.uleb128 0x9
 1296 0864 04       		.byte	0x4
 1297 0865 37080000 		.4byte	0x837
 1298 0869 18       		.uleb128 0x18
 1299 086a 01       		.byte	0x1
 1300 086b 0F       		.byte	0xf
 1301 086c 64       		.byte	0x64
 1302 086d 84080000 		.4byte	0x884
 1303 0871 19       		.uleb128 0x19
 1304 0872 DC040000 		.4byte	.LASF114
 1305 0876 00       		.sleb128 0
 1306 0877 19       		.uleb128 0x19
ARM GAS  /tmp/ccyzIVnS.s 			page 24


 1307 0878 B1040000 		.4byte	.LASF115
 1308 087c 01       		.sleb128 1
 1309 087d 19       		.uleb128 0x19
 1310 087e BE050000 		.4byte	.LASF116
 1311 0882 02       		.sleb128 2
 1312 0883 00       		.byte	0
 1313 0884 03       		.uleb128 0x3
 1314 0885 02050000 		.4byte	.LASF117
 1315 0889 0F       		.byte	0xf
 1316 088a 68       		.byte	0x68
 1317 088b 69080000 		.4byte	0x869
 1318 088f 03       		.uleb128 0x3
 1319 0890 0C050000 		.4byte	.LASF118
 1320 0894 0F       		.byte	0xf
 1321 0895 6D       		.byte	0x6d
 1322 0896 9A080000 		.4byte	0x89a
 1323 089a 05       		.uleb128 0x5
 1324 089b 0C050000 		.4byte	.LASF118
 1325 089f 7C       		.byte	0x7c
 1326 08a0 0F       		.byte	0xf
 1327 08a1 87       		.byte	0x87
 1328 08a2 11090000 		.4byte	0x911
 1329 08a6 07       		.uleb128 0x7
 1330 08a7 766D7400 		.ascii	"vmt\000"
 1331 08ab 0F       		.byte	0xf
 1332 08ac 89       		.byte	0x89
 1333 08ad C2090000 		.4byte	0x9c2
 1334 08b1 00       		.byte	0
 1335 08b2 06       		.uleb128 0x6
 1336 08b3 B0010000 		.4byte	.LASF119
 1337 08b7 0F       		.byte	0xf
 1338 08b8 8A       		.byte	0x8a
 1339 08b9 73040000 		.4byte	0x473
 1340 08bd 04       		.byte	0x4
 1341 08be 06       		.uleb128 0x6
 1342 08bf ED000000 		.4byte	.LASF120
 1343 08c3 0F       		.byte	0xf
 1344 08c4 8A       		.byte	0x8a
 1345 08c5 84080000 		.4byte	0x884
 1346 08c9 08       		.byte	0x8
 1347 08ca 06       		.uleb128 0x6
 1348 08cb 84010000 		.4byte	.LASF121
 1349 08cf 0F       		.byte	0xf
 1350 08d0 8A       		.byte	0x8a
 1351 08d1 8B050000 		.4byte	0x58b
 1352 08d5 0C       		.byte	0xc
 1353 08d6 06       		.uleb128 0x6
 1354 08d7 CF010000 		.4byte	.LASF122
 1355 08db 0F       		.byte	0xf
 1356 08dc 8A       		.byte	0x8a
 1357 08dd 96050000 		.4byte	0x596
 1358 08e1 30       		.byte	0x30
 1359 08e2 07       		.uleb128 0x7
 1360 08e3 696200   		.ascii	"ib\000"
 1361 08e6 0F       		.byte	0xf
 1362 08e7 8A       		.byte	0x8a
 1363 08e8 CD090000 		.4byte	0x9cd
ARM GAS  /tmp/ccyzIVnS.s 			page 25


 1364 08ec 54       		.byte	0x54
 1365 08ed 07       		.uleb128 0x7
 1366 08ee 6F6200   		.ascii	"ob\000"
 1367 08f1 0F       		.byte	0xf
 1368 08f2 8A       		.byte	0x8a
 1369 08f3 CD090000 		.4byte	0x9cd
 1370 08f7 64       		.byte	0x64
 1371 08f8 06       		.uleb128 0x6
 1372 08f9 51010000 		.4byte	.LASF123
 1373 08fd 0F       		.byte	0xf
 1374 08fe 8A       		.byte	0x8a
 1375 08ff DD090000 		.4byte	0x9dd
 1376 0903 74       		.byte	0x74
 1377 0904 06       		.uleb128 0x6
 1378 0905 1B060000 		.4byte	.LASF124
 1379 0909 0F       		.byte	0xf
 1380 090a 8A       		.byte	0x8a
 1381 090b CE000000 		.4byte	0xce
 1382 090f 78       		.byte	0x78
 1383 0910 00       		.byte	0
 1384 0911 08       		.uleb128 0x8
 1385 0912 10       		.byte	0x10
 1386 0913 10       		.byte	0x10
 1387 0914 D7       		.byte	0xd7
 1388 0915 4A090000 		.4byte	0x94a
 1389 0919 06       		.uleb128 0x6
 1390 091a 3E020000 		.4byte	.LASF125
 1391 091e 10       		.byte	0x10
 1392 091f DB       		.byte	0xdb
 1393 0920 CE000000 		.4byte	0xce
 1394 0924 00       		.byte	0
 1395 0925 07       		.uleb128 0x7
 1396 0926 63723100 		.ascii	"cr1\000"
 1397 092a 10       		.byte	0x10
 1398 092b E0       		.byte	0xe0
 1399 092c CE000000 		.4byte	0xce
 1400 0930 04       		.byte	0x4
 1401 0931 07       		.uleb128 0x7
 1402 0932 63723200 		.ascii	"cr2\000"
 1403 0936 10       		.byte	0x10
 1404 0937 E4       		.byte	0xe4
 1405 0938 CE000000 		.4byte	0xce
 1406 093c 08       		.byte	0x8
 1407 093d 07       		.uleb128 0x7
 1408 093e 63723300 		.ascii	"cr3\000"
 1409 0942 10       		.byte	0x10
 1410 0943 E8       		.byte	0xe8
 1411 0944 CE000000 		.4byte	0xce
 1412 0948 0C       		.byte	0xc
 1413 0949 00       		.byte	0
 1414 094a 03       		.uleb128 0x3
 1415 094b B7030000 		.4byte	.LASF126
 1416 094f 10       		.byte	0x10
 1417 0950 E9       		.byte	0xe9
 1418 0951 11090000 		.4byte	0x911
 1419 0955 05       		.uleb128 0x5
 1420 0956 6D010000 		.4byte	.LASF127
ARM GAS  /tmp/ccyzIVnS.s 			page 26


 1421 095a 20       		.byte	0x20
 1422 095b 0F       		.byte	0xf
 1423 095c 7C       		.byte	0x7c
 1424 095d C2090000 		.4byte	0x9c2
 1425 0961 06       		.uleb128 0x6
 1426 0962 5A030000 		.4byte	.LASF128
 1427 0966 0F       		.byte	0xf
 1428 0967 7D       		.byte	0x7d
 1429 0968 C5050000 		.4byte	0x5c5
 1430 096c 00       		.byte	0
 1431 096d 06       		.uleb128 0x6
 1432 096e 35050000 		.4byte	.LASF129
 1433 0972 0F       		.byte	0xf
 1434 0973 7D       		.byte	0x7d
 1435 0974 E4050000 		.4byte	0x5e4
 1436 0978 04       		.byte	0x4
 1437 0979 07       		.uleb128 0x7
 1438 097a 70757400 		.ascii	"put\000"
 1439 097e 0F       		.byte	0xf
 1440 097f 7D       		.byte	0x7d
 1441 0980 FE050000 		.4byte	0x5fe
 1442 0984 08       		.byte	0x8
 1443 0985 07       		.uleb128 0x7
 1444 0986 67657400 		.ascii	"get\000"
 1445 098a 0F       		.byte	0xf
 1446 098b 7D       		.byte	0x7d
 1447 098c D6040000 		.4byte	0x4d6
 1448 0990 0C       		.byte	0xc
 1449 0991 06       		.uleb128 0x6
 1450 0992 60030000 		.4byte	.LASF130
 1451 0996 0F       		.byte	0xf
 1452 0997 7D       		.byte	0x7d
 1453 0998 0D070000 		.4byte	0x70d
 1454 099c 10       		.byte	0x10
 1455 099d 06       		.uleb128 0x6
 1456 099e AB010000 		.4byte	.LASF131
 1457 09a2 0F       		.byte	0xf
 1458 09a3 7D       		.byte	0x7d
 1459 09a4 27070000 		.4byte	0x727
 1460 09a8 14       		.byte	0x14
 1461 09a9 06       		.uleb128 0x6
 1462 09aa E4010000 		.4byte	.LASF132
 1463 09ae 0F       		.byte	0xf
 1464 09af 7D       		.byte	0x7d
 1465 09b0 4B070000 		.4byte	0x74b
 1466 09b4 18       		.byte	0x18
 1467 09b5 06       		.uleb128 0x6
 1468 09b6 95000000 		.4byte	.LASF133
 1469 09ba 0F       		.byte	0xf
 1470 09bb 7D       		.byte	0x7d
 1471 09bc 6F070000 		.4byte	0x76f
 1472 09c0 1C       		.byte	0x1c
 1473 09c1 00       		.byte	0
 1474 09c2 09       		.uleb128 0x9
 1475 09c3 04       		.byte	0x4
 1476 09c4 C8090000 		.4byte	0x9c8
 1477 09c8 10       		.uleb128 0x10
ARM GAS  /tmp/ccyzIVnS.s 			page 27


 1478 09c9 55090000 		.4byte	0x955
 1479 09cd 1A       		.uleb128 0x1a
 1480 09ce AD000000 		.4byte	0xad
 1481 09d2 DD090000 		.4byte	0x9dd
 1482 09d6 1B       		.uleb128 0x1b
 1483 09d7 62030000 		.4byte	0x362
 1484 09db 0F       		.byte	0xf
 1485 09dc 00       		.byte	0
 1486 09dd 09       		.uleb128 0x9
 1487 09de 04       		.byte	0x4
 1488 09df E8060000 		.4byte	0x6e8
 1489 09e3 1A       		.uleb128 0x1a
 1490 09e4 B5020000 		.4byte	0x2b5
 1491 09e8 F3090000 		.4byte	0x9f3
 1492 09ec 1B       		.uleb128 0x1b
 1493 09ed 62030000 		.4byte	0x362
 1494 09f1 29       		.byte	0x29
 1495 09f2 00       		.byte	0
 1496 09f3 1C       		.uleb128 0x1c
 1497 09f4 66020000 		.4byte	.LASF145
 1498 09f8 01       		.byte	0x1
 1499 09f9 19       		.byte	0x19
 1500 09fa 22010000 		.4byte	0x122
 1501 09fe 00000000 		.4byte	.LFB118
 1502 0a02 90000000 		.4byte	.LFE118-.LFB118
 1503 0a06 01       		.uleb128 0x1
 1504 0a07 9C       		.byte	0x9c
 1505 0a08 B80A0000 		.4byte	0xab8
 1506 0a0c 1D       		.uleb128 0x1d
 1507 0a0d 61726700 		.ascii	"arg\000"
 1508 0a11 01       		.byte	0x1
 1509 0a12 19       		.byte	0x19
 1510 0a13 B3020000 		.4byte	0x2b3
 1511 0a17 00000000 		.4byte	.LLST0
 1512 0a1b 1E       		.uleb128 0x1e
 1513 0a1c 20000000 		.4byte	.LVL2
 1514 0a20 C20B0000 		.4byte	0xbc2
 1515 0a24 2F0A0000 		.4byte	0xa2f
 1516 0a28 1F       		.uleb128 0x1f
 1517 0a29 01       		.uleb128 0x1
 1518 0a2a 50       		.byte	0x50
 1519 0a2b 02       		.uleb128 0x2
 1520 0a2c 08       		.byte	0x8
 1521 0a2d 7D       		.byte	0x7d
 1522 0a2e 00       		.byte	0
 1523 0a2f 1E       		.uleb128 0x1e
 1524 0a30 30000000 		.4byte	.LVL3
 1525 0a34 C20B0000 		.4byte	0xbc2
 1526 0a38 430A0000 		.4byte	0xa43
 1527 0a3c 1F       		.uleb128 0x1f
 1528 0a3d 01       		.uleb128 0x1
 1529 0a3e 50       		.byte	0x50
 1530 0a3f 02       		.uleb128 0x2
 1531 0a40 08       		.byte	0x8
 1532 0a41 7D       		.byte	0x7d
 1533 0a42 00       		.byte	0
 1534 0a43 1E       		.uleb128 0x1e
ARM GAS  /tmp/ccyzIVnS.s 			page 28


 1535 0a44 3E000000 		.4byte	.LVL4
 1536 0a48 C20B0000 		.4byte	0xbc2
 1537 0a4c 570A0000 		.4byte	0xa57
 1538 0a50 1F       		.uleb128 0x1f
 1539 0a51 01       		.uleb128 0x1
 1540 0a52 50       		.byte	0x50
 1541 0a53 02       		.uleb128 0x2
 1542 0a54 08       		.byte	0x8
 1543 0a55 7D       		.byte	0x7d
 1544 0a56 00       		.byte	0
 1545 0a57 1E       		.uleb128 0x1e
 1546 0a58 4C000000 		.4byte	.LVL5
 1547 0a5c C20B0000 		.4byte	0xbc2
 1548 0a60 6B0A0000 		.4byte	0xa6b
 1549 0a64 1F       		.uleb128 0x1f
 1550 0a65 01       		.uleb128 0x1
 1551 0a66 50       		.byte	0x50
 1552 0a67 02       		.uleb128 0x2
 1553 0a68 08       		.byte	0x8
 1554 0a69 7D       		.byte	0x7d
 1555 0a6a 00       		.byte	0
 1556 0a6b 1E       		.uleb128 0x1e
 1557 0a6c 5A000000 		.4byte	.LVL6
 1558 0a70 C20B0000 		.4byte	0xbc2
 1559 0a74 7F0A0000 		.4byte	0xa7f
 1560 0a78 1F       		.uleb128 0x1f
 1561 0a79 01       		.uleb128 0x1
 1562 0a7a 50       		.byte	0x50
 1563 0a7b 02       		.uleb128 0x2
 1564 0a7c 08       		.byte	0x8
 1565 0a7d 7D       		.byte	0x7d
 1566 0a7e 00       		.byte	0
 1567 0a7f 1E       		.uleb128 0x1e
 1568 0a80 68000000 		.4byte	.LVL7
 1569 0a84 C20B0000 		.4byte	0xbc2
 1570 0a88 930A0000 		.4byte	0xa93
 1571 0a8c 1F       		.uleb128 0x1f
 1572 0a8d 01       		.uleb128 0x1
 1573 0a8e 50       		.byte	0x50
 1574 0a8f 02       		.uleb128 0x2
 1575 0a90 08       		.byte	0x8
 1576 0a91 7D       		.byte	0x7d
 1577 0a92 00       		.byte	0
 1578 0a93 1E       		.uleb128 0x1e
 1579 0a94 76000000 		.4byte	.LVL8
 1580 0a98 C20B0000 		.4byte	0xbc2
 1581 0a9c A70A0000 		.4byte	0xaa7
 1582 0aa0 1F       		.uleb128 0x1f
 1583 0aa1 01       		.uleb128 0x1
 1584 0aa2 50       		.byte	0x50
 1585 0aa3 02       		.uleb128 0x2
 1586 0aa4 08       		.byte	0x8
 1587 0aa5 7D       		.byte	0x7d
 1588 0aa6 00       		.byte	0
 1589 0aa7 20       		.uleb128 0x20
 1590 0aa8 80000000 		.4byte	.LVL9
 1591 0aac C20B0000 		.4byte	0xbc2
ARM GAS  /tmp/ccyzIVnS.s 			page 29


 1592 0ab0 1F       		.uleb128 0x1f
 1593 0ab1 01       		.uleb128 0x1
 1594 0ab2 50       		.byte	0x50
 1595 0ab3 02       		.uleb128 0x2
 1596 0ab4 08       		.byte	0x8
 1597 0ab5 7D       		.byte	0x7d
 1598 0ab6 00       		.byte	0
 1599 0ab7 00       		.byte	0
 1600 0ab8 21       		.uleb128 0x21
 1601 0ab9 21060000 		.4byte	.LASF146
 1602 0abd 01       		.byte	0x1
 1603 0abe 3F       		.byte	0x3f
 1604 0abf 25000000 		.4byte	0x25
 1605 0ac3 00000000 		.4byte	.LFB119
 1606 0ac7 70000000 		.4byte	.LFE119-.LFB119
 1607 0acb 01       		.uleb128 0x1
 1608 0acc 9C       		.byte	0x9c
 1609 0acd 8E0B0000 		.4byte	0xb8e
 1610 0ad1 22       		.uleb128 0x22
 1611 0ad2 08000000 		.4byte	.LVL10
 1612 0ad6 D40B0000 		.4byte	0xbd4
 1613 0ada 22       		.uleb128 0x22
 1614 0adb 0C000000 		.4byte	.LVL11
 1615 0adf DB0B0000 		.4byte	0xbdb
 1616 0ae3 1E       		.uleb128 0x1e
 1617 0ae4 14000000 		.4byte	.LVL12
 1618 0ae8 E20B0000 		.4byte	0xbe2
 1619 0aec F60A0000 		.4byte	0xaf6
 1620 0af0 1F       		.uleb128 0x1f
 1621 0af1 01       		.uleb128 0x1
 1622 0af2 51       		.byte	0x51
 1623 0af3 01       		.uleb128 0x1
 1624 0af4 30       		.byte	0x30
 1625 0af5 00       		.byte	0
 1626 0af6 1E       		.uleb128 0x1e
 1627 0af7 24000000 		.4byte	.LVL13
 1628 0afb 0A0C0000 		.4byte	0xc0a
 1629 0aff 190B0000 		.4byte	0xb19
 1630 0b03 1F       		.uleb128 0x1f
 1631 0b04 01       		.uleb128 0x1
 1632 0b05 52       		.byte	0x52
 1633 0b06 03       		.uleb128 0x3
 1634 0b07 0A       		.byte	0xa
 1635 0b08 8203     		.2byte	0x382
 1636 0b0a 1F       		.uleb128 0x1f
 1637 0b0b 01       		.uleb128 0x1
 1638 0b0c 51       		.byte	0x51
 1639 0b0d 03       		.uleb128 0x3
 1640 0b0e 0A       		.byte	0xa
 1641 0b0f 0002     		.2byte	0x200
 1642 0b11 1F       		.uleb128 0x1f
 1643 0b12 01       		.uleb128 0x1
 1644 0b13 50       		.byte	0x50
 1645 0b14 03       		.uleb128 0x3
 1646 0b15 42       		.byte	0x42
 1647 0b16 4A       		.byte	0x4a
 1648 0b17 24       		.byte	0x24
ARM GAS  /tmp/ccyzIVnS.s 			page 30


 1649 0b18 00       		.byte	0
 1650 0b19 1E       		.uleb128 0x1e
 1651 0b1a 34000000 		.4byte	.LVL14
 1652 0b1e 0A0C0000 		.4byte	0xc0a
 1653 0b22 3C0B0000 		.4byte	0xb3c
 1654 0b26 1F       		.uleb128 0x1f
 1655 0b27 01       		.uleb128 0x1
 1656 0b28 52       		.byte	0x52
 1657 0b29 03       		.uleb128 0x3
 1658 0b2a 0A       		.byte	0xa
 1659 0b2b 8203     		.2byte	0x382
 1660 0b2d 1F       		.uleb128 0x1f
 1661 0b2e 01       		.uleb128 0x1
 1662 0b2f 51       		.byte	0x51
 1663 0b30 03       		.uleb128 0x3
 1664 0b31 0A       		.byte	0xa
 1665 0b32 0004     		.2byte	0x400
 1666 0b34 1F       		.uleb128 0x1f
 1667 0b35 01       		.uleb128 0x1
 1668 0b36 50       		.byte	0x50
 1669 0b37 03       		.uleb128 0x3
 1670 0b38 42       		.byte	0x42
 1671 0b39 4A       		.byte	0x4a
 1672 0b3a 24       		.byte	0x24
 1673 0b3b 00       		.byte	0
 1674 0b3c 1E       		.uleb128 0x1e
 1675 0b3d 46000000 		.4byte	.LVL15
 1676 0b41 260C0000 		.4byte	0xc26
 1677 0b45 6F0B0000 		.4byte	0xb6f
 1678 0b49 1F       		.uleb128 0x1f
 1679 0b4a 01       		.uleb128 0x1
 1680 0b4b 53       		.byte	0x53
 1681 0b4c 05       		.uleb128 0x5
 1682 0b4d 03       		.byte	0x3
 1683 0b4e 00000000 		.4byte	Thread1
 1684 0b52 1F       		.uleb128 0x1f
 1685 0b53 01       		.uleb128 0x1
 1686 0b54 52       		.byte	0x52
 1687 0b55 02       		.uleb128 0x2
 1688 0b56 08       		.byte	0x8
 1689 0b57 40       		.byte	0x40
 1690 0b58 1F       		.uleb128 0x1f
 1691 0b59 01       		.uleb128 0x1
 1692 0b5a 51       		.byte	0x51
 1693 0b5b 03       		.uleb128 0x3
 1694 0b5c 0A       		.byte	0xa
 1695 0b5d 5001     		.2byte	0x150
 1696 0b5f 1F       		.uleb128 0x1f
 1697 0b60 01       		.uleb128 0x1
 1698 0b61 50       		.byte	0x50
 1699 0b62 05       		.uleb128 0x5
 1700 0b63 03       		.byte	0x3
 1701 0b64 00000000 		.4byte	.LANCHOR0
 1702 0b68 1F       		.uleb128 0x1f
 1703 0b69 02       		.uleb128 0x2
 1704 0b6a 7D       		.byte	0x7d
 1705 0b6b 00       		.sleb128 0
ARM GAS  /tmp/ccyzIVnS.s 			page 31


 1706 0b6c 01       		.uleb128 0x1
 1707 0b6d 30       		.byte	0x30
 1708 0b6e 00       		.byte	0
 1709 0b6f 1E       		.uleb128 0x1e
 1710 0b70 54000000 		.4byte	.LVL16
 1711 0b74 C20B0000 		.4byte	0xbc2
 1712 0b78 840B0000 		.4byte	0xb84
 1713 0b7c 1F       		.uleb128 0x1f
 1714 0b7d 01       		.uleb128 0x1
 1715 0b7e 50       		.byte	0x50
 1716 0b7f 03       		.uleb128 0x3
 1717 0b80 0A       		.byte	0xa
 1718 0b81 F401     		.2byte	0x1f4
 1719 0b83 00       		.byte	0
 1720 0b84 22       		.uleb128 0x22
 1721 0b85 60000000 		.4byte	.LVL17
 1722 0b89 500C0000 		.4byte	0xc50
 1723 0b8d 00       		.byte	0
 1724 0b8e 23       		.uleb128 0x23
 1725 0b8f D9030000 		.4byte	.LASF147
 1726 0b93 01       		.byte	0x1
 1727 0b94 18       		.byte	0x18
 1728 0b95 E3090000 		.4byte	0x9e3
 1729 0b99 05       		.uleb128 0x5
 1730 0b9a 03       		.byte	0x3
 1731 0b9b 00000000 		.4byte	waThread1
 1732 0b9f 24       		.uleb128 0x24
 1733 0ba0 F8050000 		.4byte	.LASF134
 1734 0ba4 09       		.byte	0x9
 1735 0ba5 6F       		.byte	0x6f
 1736 0ba6 BF030000 		.4byte	0x3bf
 1737 0baa 25       		.uleb128 0x25
 1738 0bab 81000000 		.4byte	.LASF135
 1739 0baf 11       		.byte	0x11
 1740 0bb0 9806     		.2byte	0x698
 1741 0bb2 09060000 		.4byte	0x609
 1742 0bb6 26       		.uleb128 0x26
 1743 0bb7 53443100 		.ascii	"SD1\000"
 1744 0bbb 10       		.byte	0x10
 1745 0bbc 1101     		.2byte	0x111
 1746 0bbe 8F080000 		.4byte	0x88f
 1747 0bc2 27       		.uleb128 0x27
 1748 0bc3 AC030000 		.4byte	.LASF138
 1749 0bc7 07       		.byte	0x7
 1750 0bc8 7501     		.2byte	0x175
 1751 0bca D40B0000 		.4byte	0xbd4
 1752 0bce 12       		.uleb128 0x12
 1753 0bcf 43010000 		.4byte	0x143
 1754 0bd3 00       		.byte	0
 1755 0bd4 28       		.uleb128 0x28
 1756 0bd5 A3010000 		.4byte	.LASF136
 1757 0bd9 12       		.byte	0x12
 1758 0bda D0       		.byte	0xd0
 1759 0bdb 28       		.uleb128 0x28
 1760 0bdc C4000000 		.4byte	.LASF137
 1761 0be0 13       		.byte	0x13
 1762 0be1 F6       		.byte	0xf6
ARM GAS  /tmp/ccyzIVnS.s 			page 32


 1763 0be2 27       		.uleb128 0x27
 1764 0be3 3F050000 		.4byte	.LASF139
 1765 0be7 0F       		.byte	0xf
 1766 0be8 3701     		.2byte	0x137
 1767 0bea F90B0000 		.4byte	0xbf9
 1768 0bee 12       		.uleb128 0x12
 1769 0bef F90B0000 		.4byte	0xbf9
 1770 0bf3 12       		.uleb128 0x12
 1771 0bf4 FF0B0000 		.4byte	0xbff
 1772 0bf8 00       		.byte	0
 1773 0bf9 09       		.uleb128 0x9
 1774 0bfa 04       		.byte	0x4
 1775 0bfb 8F080000 		.4byte	0x88f
 1776 0bff 09       		.uleb128 0x9
 1777 0c00 04       		.byte	0x4
 1778 0c01 050C0000 		.4byte	0xc05
 1779 0c05 10       		.uleb128 0x10
 1780 0c06 4A090000 		.4byte	0x94a
 1781 0c0a 27       		.uleb128 0x27
 1782 0c0b 9B050000 		.4byte	.LASF140
 1783 0c0f 0E       		.byte	0xe
 1784 0c10 C201     		.2byte	0x1c2
 1785 0c12 260C0000 		.4byte	0xc26
 1786 0c16 12       		.uleb128 0x12
 1787 0c17 58080000 		.4byte	0x858
 1788 0c1b 12       		.uleb128 0x12
 1789 0c1c 42080000 		.4byte	0x842
 1790 0c20 12       		.uleb128 0x12
 1791 0c21 4D080000 		.4byte	0x84d
 1792 0c25 00       		.byte	0
 1793 0c26 29       		.uleb128 0x29
 1794 0c27 6E020000 		.4byte	.LASF148
 1795 0c2b 07       		.byte	0x7
 1796 0c2c 7001     		.2byte	0x170
 1797 0c2e 77020000 		.4byte	0x277
 1798 0c32 500C0000 		.4byte	0xc50
 1799 0c36 12       		.uleb128 0x12
 1800 0c37 B3020000 		.4byte	0x2b3
 1801 0c3b 12       		.uleb128 0x12
 1802 0c3c 2C000000 		.4byte	0x2c
 1803 0c40 12       		.uleb128 0x12
 1804 0c41 17010000 		.4byte	0x117
 1805 0c45 12       		.uleb128 0x12
 1806 0c46 CB040000 		.4byte	0x4cb
 1807 0c4a 12       		.uleb128 0x12
 1808 0c4b B3020000 		.4byte	0x2b3
 1809 0c4f 00       		.byte	0
 1810 0c50 2A       		.uleb128 0x2a
 1811 0c51 46040000 		.4byte	.LASF141
 1812 0c55 14       		.byte	0x14
 1813 0c56 52       		.byte	0x52
 1814 0c57 22010000 		.4byte	0x122
 1815 0c5b 12       		.uleb128 0x12
 1816 0c5c B3020000 		.4byte	0x2b3
 1817 0c60 00       		.byte	0
 1818 0c61 00       		.byte	0
 1819              		.section	.debug_abbrev,"",%progbits
ARM GAS  /tmp/ccyzIVnS.s 			page 33


 1820              	.Ldebug_abbrev0:
 1821 0000 01       		.uleb128 0x1
 1822 0001 11       		.uleb128 0x11
 1823 0002 01       		.byte	0x1
 1824 0003 25       		.uleb128 0x25
 1825 0004 0E       		.uleb128 0xe
 1826 0005 13       		.uleb128 0x13
 1827 0006 0B       		.uleb128 0xb
 1828 0007 03       		.uleb128 0x3
 1829 0008 0E       		.uleb128 0xe
 1830 0009 1B       		.uleb128 0x1b
 1831 000a 0E       		.uleb128 0xe
 1832 000b 55       		.uleb128 0x55
 1833 000c 17       		.uleb128 0x17
 1834 000d 11       		.uleb128 0x11
 1835 000e 01       		.uleb128 0x1
 1836 000f 10       		.uleb128 0x10
 1837 0010 17       		.uleb128 0x17
 1838 0011 00       		.byte	0
 1839 0012 00       		.byte	0
 1840 0013 02       		.uleb128 0x2
 1841 0014 24       		.uleb128 0x24
 1842 0015 00       		.byte	0
 1843 0016 0B       		.uleb128 0xb
 1844 0017 0B       		.uleb128 0xb
 1845 0018 3E       		.uleb128 0x3e
 1846 0019 0B       		.uleb128 0xb
 1847 001a 03       		.uleb128 0x3
 1848 001b 08       		.uleb128 0x8
 1849 001c 00       		.byte	0
 1850 001d 00       		.byte	0
 1851 001e 03       		.uleb128 0x3
 1852 001f 16       		.uleb128 0x16
 1853 0020 00       		.byte	0
 1854 0021 03       		.uleb128 0x3
 1855 0022 0E       		.uleb128 0xe
 1856 0023 3A       		.uleb128 0x3a
 1857 0024 0B       		.uleb128 0xb
 1858 0025 3B       		.uleb128 0x3b
 1859 0026 0B       		.uleb128 0xb
 1860 0027 49       		.uleb128 0x49
 1861 0028 13       		.uleb128 0x13
 1862 0029 00       		.byte	0
 1863 002a 00       		.byte	0
 1864 002b 04       		.uleb128 0x4
 1865 002c 24       		.uleb128 0x24
 1866 002d 00       		.byte	0
 1867 002e 0B       		.uleb128 0xb
 1868 002f 0B       		.uleb128 0xb
 1869 0030 3E       		.uleb128 0x3e
 1870 0031 0B       		.uleb128 0xb
 1871 0032 03       		.uleb128 0x3
 1872 0033 0E       		.uleb128 0xe
 1873 0034 00       		.byte	0
 1874 0035 00       		.byte	0
 1875 0036 05       		.uleb128 0x5
 1876 0037 13       		.uleb128 0x13
ARM GAS  /tmp/ccyzIVnS.s 			page 34


 1877 0038 01       		.byte	0x1
 1878 0039 03       		.uleb128 0x3
 1879 003a 0E       		.uleb128 0xe
 1880 003b 0B       		.uleb128 0xb
 1881 003c 0B       		.uleb128 0xb
 1882 003d 3A       		.uleb128 0x3a
 1883 003e 0B       		.uleb128 0xb
 1884 003f 3B       		.uleb128 0x3b
 1885 0040 0B       		.uleb128 0xb
 1886 0041 01       		.uleb128 0x1
 1887 0042 13       		.uleb128 0x13
 1888 0043 00       		.byte	0
 1889 0044 00       		.byte	0
 1890 0045 06       		.uleb128 0x6
 1891 0046 0D       		.uleb128 0xd
 1892 0047 00       		.byte	0
 1893 0048 03       		.uleb128 0x3
 1894 0049 0E       		.uleb128 0xe
 1895 004a 3A       		.uleb128 0x3a
 1896 004b 0B       		.uleb128 0xb
 1897 004c 3B       		.uleb128 0x3b
 1898 004d 0B       		.uleb128 0xb
 1899 004e 49       		.uleb128 0x49
 1900 004f 13       		.uleb128 0x13
 1901 0050 38       		.uleb128 0x38
 1902 0051 0B       		.uleb128 0xb
 1903 0052 00       		.byte	0
 1904 0053 00       		.byte	0
 1905 0054 07       		.uleb128 0x7
 1906 0055 0D       		.uleb128 0xd
 1907 0056 00       		.byte	0
 1908 0057 03       		.uleb128 0x3
 1909 0058 08       		.uleb128 0x8
 1910 0059 3A       		.uleb128 0x3a
 1911 005a 0B       		.uleb128 0xb
 1912 005b 3B       		.uleb128 0x3b
 1913 005c 0B       		.uleb128 0xb
 1914 005d 49       		.uleb128 0x49
 1915 005e 13       		.uleb128 0x13
 1916 005f 38       		.uleb128 0x38
 1917 0060 0B       		.uleb128 0xb
 1918 0061 00       		.byte	0
 1919 0062 00       		.byte	0
 1920 0063 08       		.uleb128 0x8
 1921 0064 13       		.uleb128 0x13
 1922 0065 01       		.byte	0x1
 1923 0066 0B       		.uleb128 0xb
 1924 0067 0B       		.uleb128 0xb
 1925 0068 3A       		.uleb128 0x3a
 1926 0069 0B       		.uleb128 0xb
 1927 006a 3B       		.uleb128 0x3b
 1928 006b 0B       		.uleb128 0xb
 1929 006c 01       		.uleb128 0x1
 1930 006d 13       		.uleb128 0x13
 1931 006e 00       		.byte	0
 1932 006f 00       		.byte	0
 1933 0070 09       		.uleb128 0x9
ARM GAS  /tmp/ccyzIVnS.s 			page 35


 1934 0071 0F       		.uleb128 0xf
 1935 0072 00       		.byte	0
 1936 0073 0B       		.uleb128 0xb
 1937 0074 0B       		.uleb128 0xb
 1938 0075 49       		.uleb128 0x49
 1939 0076 13       		.uleb128 0x13
 1940 0077 00       		.byte	0
 1941 0078 00       		.byte	0
 1942 0079 0A       		.uleb128 0xa
 1943 007a 0F       		.uleb128 0xf
 1944 007b 00       		.byte	0
 1945 007c 0B       		.uleb128 0xb
 1946 007d 0B       		.uleb128 0xb
 1947 007e 00       		.byte	0
 1948 007f 00       		.byte	0
 1949 0080 0B       		.uleb128 0xb
 1950 0081 13       		.uleb128 0x13
 1951 0082 01       		.byte	0x1
 1952 0083 03       		.uleb128 0x3
 1953 0084 0E       		.uleb128 0xe
 1954 0085 0B       		.uleb128 0xb
 1955 0086 0B       		.uleb128 0xb
 1956 0087 3A       		.uleb128 0x3a
 1957 0088 0B       		.uleb128 0xb
 1958 0089 3B       		.uleb128 0x3b
 1959 008a 05       		.uleb128 0x5
 1960 008b 01       		.uleb128 0x1
 1961 008c 13       		.uleb128 0x13
 1962 008d 00       		.byte	0
 1963 008e 00       		.byte	0
 1964 008f 0C       		.uleb128 0xc
 1965 0090 0D       		.uleb128 0xd
 1966 0091 00       		.byte	0
 1967 0092 03       		.uleb128 0x3
 1968 0093 08       		.uleb128 0x8
 1969 0094 3A       		.uleb128 0x3a
 1970 0095 0B       		.uleb128 0xb
 1971 0096 3B       		.uleb128 0x3b
 1972 0097 05       		.uleb128 0x5
 1973 0098 49       		.uleb128 0x49
 1974 0099 13       		.uleb128 0x13
 1975 009a 38       		.uleb128 0x38
 1976 009b 0B       		.uleb128 0xb
 1977 009c 00       		.byte	0
 1978 009d 00       		.byte	0
 1979 009e 0D       		.uleb128 0xd
 1980 009f 35       		.uleb128 0x35
 1981 00a0 00       		.byte	0
 1982 00a1 49       		.uleb128 0x49
 1983 00a2 13       		.uleb128 0x13
 1984 00a3 00       		.byte	0
 1985 00a4 00       		.byte	0
 1986 00a5 0E       		.uleb128 0xe
 1987 00a6 17       		.uleb128 0x17
 1988 00a7 01       		.byte	0x1
 1989 00a8 0B       		.uleb128 0xb
 1990 00a9 0B       		.uleb128 0xb
ARM GAS  /tmp/ccyzIVnS.s 			page 36


 1991 00aa 3A       		.uleb128 0x3a
 1992 00ab 0B       		.uleb128 0xb
 1993 00ac 3B       		.uleb128 0x3b
 1994 00ad 0B       		.uleb128 0xb
 1995 00ae 01       		.uleb128 0x1
 1996 00af 13       		.uleb128 0x13
 1997 00b0 00       		.byte	0
 1998 00b1 00       		.byte	0
 1999 00b2 0F       		.uleb128 0xf
 2000 00b3 0D       		.uleb128 0xd
 2001 00b4 00       		.byte	0
 2002 00b5 03       		.uleb128 0x3
 2003 00b6 0E       		.uleb128 0xe
 2004 00b7 3A       		.uleb128 0x3a
 2005 00b8 0B       		.uleb128 0xb
 2006 00b9 3B       		.uleb128 0x3b
 2007 00ba 0B       		.uleb128 0xb
 2008 00bb 49       		.uleb128 0x49
 2009 00bc 13       		.uleb128 0x13
 2010 00bd 00       		.byte	0
 2011 00be 00       		.byte	0
 2012 00bf 10       		.uleb128 0x10
 2013 00c0 26       		.uleb128 0x26
 2014 00c1 00       		.byte	0
 2015 00c2 49       		.uleb128 0x49
 2016 00c3 13       		.uleb128 0x13
 2017 00c4 00       		.byte	0
 2018 00c5 00       		.byte	0
 2019 00c6 11       		.uleb128 0x11
 2020 00c7 15       		.uleb128 0x15
 2021 00c8 01       		.byte	0x1
 2022 00c9 27       		.uleb128 0x27
 2023 00ca 19       		.uleb128 0x19
 2024 00cb 49       		.uleb128 0x49
 2025 00cc 13       		.uleb128 0x13
 2026 00cd 01       		.uleb128 0x1
 2027 00ce 13       		.uleb128 0x13
 2028 00cf 00       		.byte	0
 2029 00d0 00       		.byte	0
 2030 00d1 12       		.uleb128 0x12
 2031 00d2 05       		.uleb128 0x5
 2032 00d3 00       		.byte	0
 2033 00d4 49       		.uleb128 0x49
 2034 00d5 13       		.uleb128 0x13
 2035 00d6 00       		.byte	0
 2036 00d7 00       		.byte	0
 2037 00d8 13       		.uleb128 0x13
 2038 00d9 15       		.uleb128 0x15
 2039 00da 01       		.byte	0x1
 2040 00db 27       		.uleb128 0x27
 2041 00dc 19       		.uleb128 0x19
 2042 00dd 01       		.uleb128 0x1
 2043 00de 13       		.uleb128 0x13
 2044 00df 00       		.byte	0
 2045 00e0 00       		.byte	0
 2046 00e1 14       		.uleb128 0x14
 2047 00e2 13       		.uleb128 0x13
ARM GAS  /tmp/ccyzIVnS.s 			page 37


 2048 00e3 01       		.byte	0x1
 2049 00e4 0B       		.uleb128 0xb
 2050 00e5 0B       		.uleb128 0xb
 2051 00e6 3A       		.uleb128 0x3a
 2052 00e7 0B       		.uleb128 0xb
 2053 00e8 3B       		.uleb128 0x3b
 2054 00e9 05       		.uleb128 0x5
 2055 00ea 01       		.uleb128 0x1
 2056 00eb 13       		.uleb128 0x13
 2057 00ec 00       		.byte	0
 2058 00ed 00       		.byte	0
 2059 00ee 15       		.uleb128 0x15
 2060 00ef 0D       		.uleb128 0xd
 2061 00f0 00       		.byte	0
 2062 00f1 03       		.uleb128 0x3
 2063 00f2 0E       		.uleb128 0xe
 2064 00f3 3A       		.uleb128 0x3a
 2065 00f4 0B       		.uleb128 0xb
 2066 00f5 3B       		.uleb128 0x3b
 2067 00f6 05       		.uleb128 0x5
 2068 00f7 49       		.uleb128 0x49
 2069 00f8 13       		.uleb128 0x13
 2070 00f9 38       		.uleb128 0x38
 2071 00fa 0B       		.uleb128 0xb
 2072 00fb 00       		.byte	0
 2073 00fc 00       		.byte	0
 2074 00fd 16       		.uleb128 0x16
 2075 00fe 16       		.uleb128 0x16
 2076 00ff 00       		.byte	0
 2077 0100 03       		.uleb128 0x3
 2078 0101 0E       		.uleb128 0xe
 2079 0102 3A       		.uleb128 0x3a
 2080 0103 0B       		.uleb128 0xb
 2081 0104 3B       		.uleb128 0x3b
 2082 0105 05       		.uleb128 0x5
 2083 0106 49       		.uleb128 0x49
 2084 0107 13       		.uleb128 0x13
 2085 0108 00       		.byte	0
 2086 0109 00       		.byte	0
 2087 010a 17       		.uleb128 0x17
 2088 010b 0D       		.uleb128 0xd
 2089 010c 00       		.byte	0
 2090 010d 03       		.uleb128 0x3
 2091 010e 08       		.uleb128 0x8
 2092 010f 3A       		.uleb128 0x3a
 2093 0110 0B       		.uleb128 0xb
 2094 0111 3B       		.uleb128 0x3b
 2095 0112 0B       		.uleb128 0xb
 2096 0113 49       		.uleb128 0x49
 2097 0114 13       		.uleb128 0x13
 2098 0115 00       		.byte	0
 2099 0116 00       		.byte	0
 2100 0117 18       		.uleb128 0x18
 2101 0118 04       		.uleb128 0x4
 2102 0119 01       		.byte	0x1
 2103 011a 0B       		.uleb128 0xb
 2104 011b 0B       		.uleb128 0xb
ARM GAS  /tmp/ccyzIVnS.s 			page 38


 2105 011c 3A       		.uleb128 0x3a
 2106 011d 0B       		.uleb128 0xb
 2107 011e 3B       		.uleb128 0x3b
 2108 011f 0B       		.uleb128 0xb
 2109 0120 01       		.uleb128 0x1
 2110 0121 13       		.uleb128 0x13
 2111 0122 00       		.byte	0
 2112 0123 00       		.byte	0
 2113 0124 19       		.uleb128 0x19
 2114 0125 28       		.uleb128 0x28
 2115 0126 00       		.byte	0
 2116 0127 03       		.uleb128 0x3
 2117 0128 0E       		.uleb128 0xe
 2118 0129 1C       		.uleb128 0x1c
 2119 012a 0D       		.uleb128 0xd
 2120 012b 00       		.byte	0
 2121 012c 00       		.byte	0
 2122 012d 1A       		.uleb128 0x1a
 2123 012e 01       		.uleb128 0x1
 2124 012f 01       		.byte	0x1
 2125 0130 49       		.uleb128 0x49
 2126 0131 13       		.uleb128 0x13
 2127 0132 01       		.uleb128 0x1
 2128 0133 13       		.uleb128 0x13
 2129 0134 00       		.byte	0
 2130 0135 00       		.byte	0
 2131 0136 1B       		.uleb128 0x1b
 2132 0137 21       		.uleb128 0x21
 2133 0138 00       		.byte	0
 2134 0139 49       		.uleb128 0x49
 2135 013a 13       		.uleb128 0x13
 2136 013b 2F       		.uleb128 0x2f
 2137 013c 0B       		.uleb128 0xb
 2138 013d 00       		.byte	0
 2139 013e 00       		.byte	0
 2140 013f 1C       		.uleb128 0x1c
 2141 0140 2E       		.uleb128 0x2e
 2142 0141 01       		.byte	0x1
 2143 0142 03       		.uleb128 0x3
 2144 0143 0E       		.uleb128 0xe
 2145 0144 3A       		.uleb128 0x3a
 2146 0145 0B       		.uleb128 0xb
 2147 0146 3B       		.uleb128 0x3b
 2148 0147 0B       		.uleb128 0xb
 2149 0148 27       		.uleb128 0x27
 2150 0149 19       		.uleb128 0x19
 2151 014a 49       		.uleb128 0x49
 2152 014b 13       		.uleb128 0x13
 2153 014c 11       		.uleb128 0x11
 2154 014d 01       		.uleb128 0x1
 2155 014e 12       		.uleb128 0x12
 2156 014f 06       		.uleb128 0x6
 2157 0150 40       		.uleb128 0x40
 2158 0151 18       		.uleb128 0x18
 2159 0152 9742     		.uleb128 0x2117
 2160 0154 19       		.uleb128 0x19
 2161 0155 01       		.uleb128 0x1
ARM GAS  /tmp/ccyzIVnS.s 			page 39


 2162 0156 13       		.uleb128 0x13
 2163 0157 00       		.byte	0
 2164 0158 00       		.byte	0
 2165 0159 1D       		.uleb128 0x1d
 2166 015a 05       		.uleb128 0x5
 2167 015b 00       		.byte	0
 2168 015c 03       		.uleb128 0x3
 2169 015d 08       		.uleb128 0x8
 2170 015e 3A       		.uleb128 0x3a
 2171 015f 0B       		.uleb128 0xb
 2172 0160 3B       		.uleb128 0x3b
 2173 0161 0B       		.uleb128 0xb
 2174 0162 49       		.uleb128 0x49
 2175 0163 13       		.uleb128 0x13
 2176 0164 02       		.uleb128 0x2
 2177 0165 17       		.uleb128 0x17
 2178 0166 00       		.byte	0
 2179 0167 00       		.byte	0
 2180 0168 1E       		.uleb128 0x1e
 2181 0169 898201   		.uleb128 0x4109
 2182 016c 01       		.byte	0x1
 2183 016d 11       		.uleb128 0x11
 2184 016e 01       		.uleb128 0x1
 2185 016f 31       		.uleb128 0x31
 2186 0170 13       		.uleb128 0x13
 2187 0171 01       		.uleb128 0x1
 2188 0172 13       		.uleb128 0x13
 2189 0173 00       		.byte	0
 2190 0174 00       		.byte	0
 2191 0175 1F       		.uleb128 0x1f
 2192 0176 8A8201   		.uleb128 0x410a
 2193 0179 00       		.byte	0
 2194 017a 02       		.uleb128 0x2
 2195 017b 18       		.uleb128 0x18
 2196 017c 9142     		.uleb128 0x2111
 2197 017e 18       		.uleb128 0x18
 2198 017f 00       		.byte	0
 2199 0180 00       		.byte	0
 2200 0181 20       		.uleb128 0x20
 2201 0182 898201   		.uleb128 0x4109
 2202 0185 01       		.byte	0x1
 2203 0186 11       		.uleb128 0x11
 2204 0187 01       		.uleb128 0x1
 2205 0188 31       		.uleb128 0x31
 2206 0189 13       		.uleb128 0x13
 2207 018a 00       		.byte	0
 2208 018b 00       		.byte	0
 2209 018c 21       		.uleb128 0x21
 2210 018d 2E       		.uleb128 0x2e
 2211 018e 01       		.byte	0x1
 2212 018f 3F       		.uleb128 0x3f
 2213 0190 19       		.uleb128 0x19
 2214 0191 03       		.uleb128 0x3
 2215 0192 0E       		.uleb128 0xe
 2216 0193 3A       		.uleb128 0x3a
 2217 0194 0B       		.uleb128 0xb
 2218 0195 3B       		.uleb128 0x3b
ARM GAS  /tmp/ccyzIVnS.s 			page 40


 2219 0196 0B       		.uleb128 0xb
 2220 0197 27       		.uleb128 0x27
 2221 0198 19       		.uleb128 0x19
 2222 0199 49       		.uleb128 0x49
 2223 019a 13       		.uleb128 0x13
 2224 019b 11       		.uleb128 0x11
 2225 019c 01       		.uleb128 0x1
 2226 019d 12       		.uleb128 0x12
 2227 019e 06       		.uleb128 0x6
 2228 019f 40       		.uleb128 0x40
 2229 01a0 18       		.uleb128 0x18
 2230 01a1 9742     		.uleb128 0x2117
 2231 01a3 19       		.uleb128 0x19
 2232 01a4 01       		.uleb128 0x1
 2233 01a5 13       		.uleb128 0x13
 2234 01a6 00       		.byte	0
 2235 01a7 00       		.byte	0
 2236 01a8 22       		.uleb128 0x22
 2237 01a9 898201   		.uleb128 0x4109
 2238 01ac 00       		.byte	0
 2239 01ad 11       		.uleb128 0x11
 2240 01ae 01       		.uleb128 0x1
 2241 01af 31       		.uleb128 0x31
 2242 01b0 13       		.uleb128 0x13
 2243 01b1 00       		.byte	0
 2244 01b2 00       		.byte	0
 2245 01b3 23       		.uleb128 0x23
 2246 01b4 34       		.uleb128 0x34
 2247 01b5 00       		.byte	0
 2248 01b6 03       		.uleb128 0x3
 2249 01b7 0E       		.uleb128 0xe
 2250 01b8 3A       		.uleb128 0x3a
 2251 01b9 0B       		.uleb128 0xb
 2252 01ba 3B       		.uleb128 0x3b
 2253 01bb 0B       		.uleb128 0xb
 2254 01bc 49       		.uleb128 0x49
 2255 01bd 13       		.uleb128 0x13
 2256 01be 02       		.uleb128 0x2
 2257 01bf 18       		.uleb128 0x18
 2258 01c0 00       		.byte	0
 2259 01c1 00       		.byte	0
 2260 01c2 24       		.uleb128 0x24
 2261 01c3 34       		.uleb128 0x34
 2262 01c4 00       		.byte	0
 2263 01c5 03       		.uleb128 0x3
 2264 01c6 0E       		.uleb128 0xe
 2265 01c7 3A       		.uleb128 0x3a
 2266 01c8 0B       		.uleb128 0xb
 2267 01c9 3B       		.uleb128 0x3b
 2268 01ca 0B       		.uleb128 0xb
 2269 01cb 49       		.uleb128 0x49
 2270 01cc 13       		.uleb128 0x13
 2271 01cd 3F       		.uleb128 0x3f
 2272 01ce 19       		.uleb128 0x19
 2273 01cf 3C       		.uleb128 0x3c
 2274 01d0 19       		.uleb128 0x19
 2275 01d1 00       		.byte	0
ARM GAS  /tmp/ccyzIVnS.s 			page 41


 2276 01d2 00       		.byte	0
 2277 01d3 25       		.uleb128 0x25
 2278 01d4 34       		.uleb128 0x34
 2279 01d5 00       		.byte	0
 2280 01d6 03       		.uleb128 0x3
 2281 01d7 0E       		.uleb128 0xe
 2282 01d8 3A       		.uleb128 0x3a
 2283 01d9 0B       		.uleb128 0xb
 2284 01da 3B       		.uleb128 0x3b
 2285 01db 05       		.uleb128 0x5
 2286 01dc 49       		.uleb128 0x49
 2287 01dd 13       		.uleb128 0x13
 2288 01de 3F       		.uleb128 0x3f
 2289 01df 19       		.uleb128 0x19
 2290 01e0 3C       		.uleb128 0x3c
 2291 01e1 19       		.uleb128 0x19
 2292 01e2 00       		.byte	0
 2293 01e3 00       		.byte	0
 2294 01e4 26       		.uleb128 0x26
 2295 01e5 34       		.uleb128 0x34
 2296 01e6 00       		.byte	0
 2297 01e7 03       		.uleb128 0x3
 2298 01e8 08       		.uleb128 0x8
 2299 01e9 3A       		.uleb128 0x3a
 2300 01ea 0B       		.uleb128 0xb
 2301 01eb 3B       		.uleb128 0x3b
 2302 01ec 05       		.uleb128 0x5
 2303 01ed 49       		.uleb128 0x49
 2304 01ee 13       		.uleb128 0x13
 2305 01ef 3F       		.uleb128 0x3f
 2306 01f0 19       		.uleb128 0x19
 2307 01f1 3C       		.uleb128 0x3c
 2308 01f2 19       		.uleb128 0x19
 2309 01f3 00       		.byte	0
 2310 01f4 00       		.byte	0
 2311 01f5 27       		.uleb128 0x27
 2312 01f6 2E       		.uleb128 0x2e
 2313 01f7 01       		.byte	0x1
 2314 01f8 3F       		.uleb128 0x3f
 2315 01f9 19       		.uleb128 0x19
 2316 01fa 03       		.uleb128 0x3
 2317 01fb 0E       		.uleb128 0xe
 2318 01fc 3A       		.uleb128 0x3a
 2319 01fd 0B       		.uleb128 0xb
 2320 01fe 3B       		.uleb128 0x3b
 2321 01ff 05       		.uleb128 0x5
 2322 0200 27       		.uleb128 0x27
 2323 0201 19       		.uleb128 0x19
 2324 0202 3C       		.uleb128 0x3c
 2325 0203 19       		.uleb128 0x19
 2326 0204 01       		.uleb128 0x1
 2327 0205 13       		.uleb128 0x13
 2328 0206 00       		.byte	0
 2329 0207 00       		.byte	0
 2330 0208 28       		.uleb128 0x28
 2331 0209 2E       		.uleb128 0x2e
 2332 020a 00       		.byte	0
ARM GAS  /tmp/ccyzIVnS.s 			page 42


 2333 020b 3F       		.uleb128 0x3f
 2334 020c 19       		.uleb128 0x19
 2335 020d 03       		.uleb128 0x3
 2336 020e 0E       		.uleb128 0xe
 2337 020f 3A       		.uleb128 0x3a
 2338 0210 0B       		.uleb128 0xb
 2339 0211 3B       		.uleb128 0x3b
 2340 0212 0B       		.uleb128 0xb
 2341 0213 27       		.uleb128 0x27
 2342 0214 19       		.uleb128 0x19
 2343 0215 3C       		.uleb128 0x3c
 2344 0216 19       		.uleb128 0x19
 2345 0217 00       		.byte	0
 2346 0218 00       		.byte	0
 2347 0219 29       		.uleb128 0x29
 2348 021a 2E       		.uleb128 0x2e
 2349 021b 01       		.byte	0x1
 2350 021c 3F       		.uleb128 0x3f
 2351 021d 19       		.uleb128 0x19
 2352 021e 03       		.uleb128 0x3
 2353 021f 0E       		.uleb128 0xe
 2354 0220 3A       		.uleb128 0x3a
 2355 0221 0B       		.uleb128 0xb
 2356 0222 3B       		.uleb128 0x3b
 2357 0223 05       		.uleb128 0x5
 2358 0224 27       		.uleb128 0x27
 2359 0225 19       		.uleb128 0x19
 2360 0226 49       		.uleb128 0x49
 2361 0227 13       		.uleb128 0x13
 2362 0228 3C       		.uleb128 0x3c
 2363 0229 19       		.uleb128 0x19
 2364 022a 01       		.uleb128 0x1
 2365 022b 13       		.uleb128 0x13
 2366 022c 00       		.byte	0
 2367 022d 00       		.byte	0
 2368 022e 2A       		.uleb128 0x2a
 2369 022f 2E       		.uleb128 0x2e
 2370 0230 01       		.byte	0x1
 2371 0231 3F       		.uleb128 0x3f
 2372 0232 19       		.uleb128 0x19
 2373 0233 03       		.uleb128 0x3
 2374 0234 0E       		.uleb128 0xe
 2375 0235 3A       		.uleb128 0x3a
 2376 0236 0B       		.uleb128 0xb
 2377 0237 3B       		.uleb128 0x3b
 2378 0238 0B       		.uleb128 0xb
 2379 0239 27       		.uleb128 0x27
 2380 023a 19       		.uleb128 0x19
 2381 023b 49       		.uleb128 0x49
 2382 023c 13       		.uleb128 0x13
 2383 023d 3C       		.uleb128 0x3c
 2384 023e 19       		.uleb128 0x19
 2385 023f 00       		.byte	0
 2386 0240 00       		.byte	0
 2387 0241 00       		.byte	0
 2388              		.section	.debug_loc,"",%progbits
 2389              	.Ldebug_loc0:
ARM GAS  /tmp/ccyzIVnS.s 			page 43


 2390              	.LLST0:
 2391 0000 00000000 		.4byte	.LVL0
 2392 0004 12000000 		.4byte	.LVL1
 2393 0008 0100     		.2byte	0x1
 2394 000a 50       		.byte	0x50
 2395 000b 12000000 		.4byte	.LVL1
 2396 000f 90000000 		.4byte	.LFE118
 2397 0013 0400     		.2byte	0x4
 2398 0015 F3       		.byte	0xf3
 2399 0016 01       		.uleb128 0x1
 2400 0017 50       		.byte	0x50
 2401 0018 9F       		.byte	0x9f
 2402 0019 00000000 		.4byte	0
 2403 001d 00000000 		.4byte	0
 2404              		.section	.debug_aranges,"",%progbits
 2405 0000 24000000 		.4byte	0x24
 2406 0004 0200     		.2byte	0x2
 2407 0006 00000000 		.4byte	.Ldebug_info0
 2408 000a 04       		.byte	0x4
 2409 000b 00       		.byte	0
 2410 000c 0000     		.2byte	0
 2411 000e 0000     		.2byte	0
 2412 0010 00000000 		.4byte	.LFB118
 2413 0014 90000000 		.4byte	.LFE118-.LFB118
 2414 0018 00000000 		.4byte	.LFB119
 2415 001c 70000000 		.4byte	.LFE119-.LFB119
 2416 0020 00000000 		.4byte	0
 2417 0024 00000000 		.4byte	0
 2418              		.section	.debug_ranges,"",%progbits
 2419              	.Ldebug_ranges0:
 2420 0000 00000000 		.4byte	.LFB118
 2421 0004 90000000 		.4byte	.LFE118
 2422 0008 00000000 		.4byte	.LFB119
 2423 000c 70000000 		.4byte	.LFE119
 2424 0010 00000000 		.4byte	0
 2425 0014 00000000 		.4byte	0
 2426              		.section	.debug_line,"",%progbits
 2427              	.Ldebug_line0:
 2428 0000 EC040000 		.section	.debug_str,"MS",%progbits,1
 2428      0200EF03 
 2428      00000201 
 2428      FB0E0D00 
 2428      01010101 
 2429              	.LASF80:
 2430 0000 7466756E 		.ascii	"tfunc_t\000"
 2430      635F7400 
 2431              	.LASF2:
 2432 0008 73697A65 		.ascii	"size_t\000"
 2432      5F7400
 2433              	.LASF51:
 2434 000f 54687265 		.ascii	"ThreadsList\000"
 2434      6164734C 
 2434      69737400 
 2435              	.LASF75:
 2436 001b 7264796D 		.ascii	"rdymsg\000"
 2436      736700
 2437              	.LASF19:
ARM GAS  /tmp/ccyzIVnS.s 			page 44


 2438 0022 75696E74 		.ascii	"uint64_t\000"
 2438      36345F74 
 2438      00
 2439              	.LASF92:
 2440 002b 4F757470 		.ascii	"OutputQueue\000"
 2440      75745175 
 2440      65756500 
 2441              	.LASF3:
 2442 0037 5F5F7569 		.ascii	"__uint8_t\000"
 2442      6E74385F 
 2442      7400
 2443              	.LASF103:
 2444 0041 4F545950 		.ascii	"OTYPER\000"
 2444      455200
 2445              	.LASF111:
 2446 0048 696F706F 		.ascii	"ioportmask_t\000"
 2446      72746D61 
 2446      736B5F74 
 2446      00
 2447              	.LASF102:
 2448 0055 4D4F4445 		.ascii	"MODER\000"
 2448      5200
 2449              	.LASF14:
 2450 005b 6C6F6E67 		.ascii	"long long unsigned int\000"
 2450      206C6F6E 
 2450      6720756E 
 2450      7369676E 
 2450      65642069 
 2451              	.LASF105:
 2452 0072 50555044 		.ascii	"PUPDR\000"
 2452      5200
 2453              	.LASF76:
 2454 0078 65786974 		.ascii	"exitcode\000"
 2454      636F6465 
 2454      00
 2455              	.LASF135:
 2456 0081 49544D5F 		.ascii	"ITM_RxBuffer\000"
 2456      52784275 
 2456      66666572 
 2456      00
 2457              	.LASF33:
 2458 008e 705F7072 		.ascii	"p_prio\000"
 2458      696F00
 2459              	.LASF133:
 2460 0095 72656164 		.ascii	"readt\000"
 2460      7400
 2461              	.LASF82:
 2462 009b 715F7761 		.ascii	"q_waiting\000"
 2462      6974696E 
 2462      6700
 2463              	.LASF12:
 2464 00a5 6C6F6E67 		.ascii	"long long int\000"
 2464      206C6F6E 
 2464      6720696E 
 2464      7400
 2465              	.LASF1:
 2466 00b3 7369676E 		.ascii	"signed char\000"
ARM GAS  /tmp/ccyzIVnS.s 			page 45


 2466      65642063 
 2466      68617200 
 2467              	.LASF106:
 2468 00bf 42535252 		.ascii	"BSRR\000"
 2468      00
 2469              	.LASF137:
 2470 00c4 63685379 		.ascii	"chSysInit\000"
 2470      73496E69 
 2470      7400
 2471              	.LASF94:
 2472 00ce 47545052 		.ascii	"GTPR\000"
 2472      00
 2473              	.LASF49:
 2474 00d3 705F6D70 		.ascii	"p_mpool\000"
 2474      6F6F6C00 
 2475              	.LASF65:
 2476 00db 6D5F7175 		.ascii	"m_queue\000"
 2476      65756500 
 2477              	.LASF24:
 2478 00e3 74736C69 		.ascii	"tslices_t\000"
 2478      6365735F 
 2478      7400
 2479              	.LASF120:
 2480 00ed 73746174 		.ascii	"state\000"
 2480      6500
 2481              	.LASF9:
 2482 00f3 6C6F6E67 		.ascii	"long int\000"
 2482      20696E74 
 2482      00
 2483              	.LASF22:
 2484 00fc 74737461 		.ascii	"tstate_t\000"
 2484      74655F74 
 2484      00
 2485              	.LASF40:
 2486 0105 705F7265 		.ascii	"p_refs\000"
 2486      667300
 2487              	.LASF84:
 2488 010c 715F6275 		.ascii	"q_buffer\000"
 2488      66666572 
 2488      00
 2489              	.LASF86:
 2490 0115 715F7772 		.ascii	"q_wrptr\000"
 2490      70747200 
 2491              	.LASF89:
 2492 011d 715F6C69 		.ascii	"q_link\000"
 2492      6E6B00
 2493              	.LASF35:
 2494 0124 705F6E65 		.ascii	"p_newer\000"
 2494      77657200 
 2495              	.LASF104:
 2496 012c 4F535045 		.ascii	"OSPEEDR\000"
 2496      45445200 
 2497              	.LASF60:
 2498 0134 725F6E65 		.ascii	"r_newer\000"
 2498      77657200 
 2499              	.LASF52:
 2500 013c 72656761 		.ascii	"regarm_t\000"
ARM GAS  /tmp/ccyzIVnS.s 			page 46


 2500      726D5F74 
 2500      00
 2501              	.LASF73:
 2502 0145 4576656E 		.ascii	"EventSource\000"
 2502      74536F75 
 2502      72636500 
 2503              	.LASF123:
 2504 0151 75736172 		.ascii	"usart\000"
 2504      7400
 2505              	.LASF0:
 2506 0157 756E7369 		.ascii	"unsigned int\000"
 2506      676E6564 
 2506      20696E74 
 2506      00
 2507              	.LASF16:
 2508 0164 75696E74 		.ascii	"uint16_t\000"
 2508      31365F74 
 2508      00
 2509              	.LASF127:
 2510 016d 53657269 		.ascii	"SerialDriverVMT\000"
 2510      616C4472 
 2510      69766572 
 2510      564D5400 
 2511              	.LASF42:
 2512 017d 705F7469 		.ascii	"p_time\000"
 2512      6D6500
 2513              	.LASF121:
 2514 0184 69717565 		.ascii	"iqueue\000"
 2514      756500
 2515              	.LASF44:
 2516 018b 705F6D73 		.ascii	"p_msgqueue\000"
 2516      67717565 
 2516      756500
 2517              	.LASF110:
 2518 0196 4750494F 		.ascii	"GPIO_TypeDef\000"
 2518      5F547970 
 2518      65446566 
 2518      00
 2519              	.LASF136:
 2520 01a3 68616C49 		.ascii	"halInit\000"
 2520      6E697400 
 2521              	.LASF131:
 2522 01ab 67657474 		.ascii	"gett\000"
 2522      00
 2523              	.LASF119:
 2524 01b0 6576656E 		.ascii	"event\000"
 2524      7400
 2525              	.LASF7:
 2526 01b6 73686F72 		.ascii	"short unsigned int\000"
 2526      7420756E 
 2526      7369676E 
 2526      65642069 
 2526      6E7400
 2527              	.LASF26:
 2528 01c9 6D73675F 		.ascii	"msg_t\000"
 2528      7400
 2529              	.LASF122:
ARM GAS  /tmp/ccyzIVnS.s 			page 47


 2530 01cf 6F717565 		.ascii	"oqueue\000"
 2530      756500
 2531              	.LASF100:
 2532 01d6 55534152 		.ascii	"USART_TypeDef\000"
 2532      545F5479 
 2532      70654465 
 2532      6600
 2533              	.LASF132:
 2534 01e4 77726974 		.ascii	"writet\000"
 2534      657400
 2535              	.LASF21:
 2536 01eb 746D6F64 		.ascii	"tmode_t\000"
 2536      655F7400 
 2537              	.LASF144:
 2538 01f3 2F686F6D 		.ascii	"/home/austin/git/personal/school/motor_control/code"
 2538      652F6175 
 2538      7374696E 
 2538      2F676974 
 2538      2F706572 
 2539 0226 00       		.ascii	"\000"
 2540              	.LASF27:
 2541 0227 6576656E 		.ascii	"eventmask_t\000"
 2541      746D6173 
 2541      6B5F7400 
 2542              	.LASF91:
 2543 0233 496E7075 		.ascii	"InputQueue\000"
 2543      74517565 
 2543      756500
 2544              	.LASF125:
 2545 023e 73706565 		.ascii	"speed\000"
 2545      6400
 2546              	.LASF90:
 2547 0244 716E6F74 		.ascii	"qnotify_t\000"
 2547      6966795F 
 2547      7400
 2548              	.LASF81:
 2549 024e 47656E65 		.ascii	"GenericQueue\000"
 2549      72696351 
 2549      75657565 
 2549      00
 2550              	.LASF53:
 2551 025b 73746B61 		.ascii	"stkalign_t\000"
 2551      6C69676E 
 2551      5F7400
 2552              	.LASF145:
 2553 0266 54687265 		.ascii	"Thread1\000"
 2553      61643100 
 2554              	.LASF148:
 2555 026e 63685468 		.ascii	"chThdCreateStatic\000"
 2555      64437265 
 2555      61746553 
 2555      74617469 
 2555      6300
 2556              	.LASF142:
 2557 0280 474E5520 		.ascii	"GNU C 4.9.3 20141119 (release) [ARM/embedded-4_9-br"
 2557      4320342E 
 2557      392E3320 
ARM GAS  /tmp/ccyzIVnS.s 			page 48


 2557      32303134 
 2557      31313139 
 2558 02b3 616E6368 		.ascii	"anch revision 218278] -mcpu=cortex-m4 -mno-thumb-in"
 2558      20726576 
 2558      6973696F 
 2558      6E203231 
 2558      38323738 
 2559 02e6 74657277 		.ascii	"terwork -mthumb -ggdb -O2 -fomit-frame-pointer -fal"
 2559      6F726B20 
 2559      2D6D7468 
 2559      756D6220 
 2559      2D676764 
 2560 0319 69676E2D 		.ascii	"ign-functions=16 -ffunction-sections -fdata-section"
 2560      66756E63 
 2560      74696F6E 
 2560      733D3136 
 2560      202D6666 
 2561 034c 73202D66 		.ascii	"s -fno-common\000"
 2561      6E6F2D63 
 2561      6F6D6D6F 
 2561      6E00
 2562              	.LASF128:
 2563 035a 77726974 		.ascii	"write\000"
 2563      6500
 2564              	.LASF130:
 2565 0360 70757474 		.ascii	"putt\000"
 2565      00
 2566              	.LASF56:
 2567 0365 73697A65 		.ascii	"sizetype\000"
 2567      74797065 
 2567      00
 2568              	.LASF101:
 2569 036e 636C6561 		.ascii	"clear\000"
 2569      7200
 2570              	.LASF64:
 2571 0374 4D757465 		.ascii	"Mutex\000"
 2571      7800
 2572              	.LASF36:
 2573 037a 705F6F6C 		.ascii	"p_older\000"
 2573      64657200 
 2574              	.LASF59:
 2575 0382 725F6374 		.ascii	"r_ctx\000"
 2575      7800
 2576              	.LASF50:
 2577 0388 54687265 		.ascii	"ThreadsQueue\000"
 2577      61647351 
 2577      75657565 
 2577      00
 2578              	.LASF143:
 2579 0395 6D61696E 		.ascii	"main.c\000"
 2579      2E6300
 2580              	.LASF61:
 2581 039c 725F6F6C 		.ascii	"r_older\000"
 2581      64657200 
 2582              	.LASF71:
 2583 03a4 656C5F6D 		.ascii	"el_mask\000"
 2583      61736B00 
ARM GAS  /tmp/ccyzIVnS.s 			page 49


 2584              	.LASF138:
 2585 03ac 63685468 		.ascii	"chThdSleep\000"
 2585      64536C65 
 2585      657000
 2586              	.LASF126:
 2587 03b7 53657269 		.ascii	"SerialConfig\000"
 2587      616C436F 
 2587      6E666967 
 2587      00
 2588              	.LASF13:
 2589 03c4 5F5F7569 		.ascii	"__uint64_t\000"
 2589      6E743634 
 2589      5F7400
 2590              	.LASF109:
 2591 03cf 41465248 		.ascii	"AFRH\000"
 2591      00
 2592              	.LASF108:
 2593 03d4 4146524C 		.ascii	"AFRL\000"
 2593      00
 2594              	.LASF147:
 2595 03d9 77615468 		.ascii	"waThread1\000"
 2595      72656164 
 2595      3100
 2596              	.LASF23:
 2597 03e3 74726566 		.ascii	"trefs_t\000"
 2597      735F7400 
 2598              	.LASF93:
 2599 03eb 52455345 		.ascii	"RESERVED1\000"
 2599      52564544 
 2599      3100
 2600              	.LASF95:
 2601 03f5 52455345 		.ascii	"RESERVED2\000"
 2601      52564544 
 2601      3200
 2602              	.LASF97:
 2603 03ff 52455345 		.ascii	"RESERVED3\000"
 2603      52564544 
 2603      3300
 2604              	.LASF98:
 2605 0409 52455345 		.ascii	"RESERVED4\000"
 2605      52564544 
 2605      3400
 2606              	.LASF32:
 2607 0413 705F7072 		.ascii	"p_prev\000"
 2607      657600
 2608              	.LASF25:
 2609 041a 74707269 		.ascii	"tprio_t\000"
 2609      6F5F7400 
 2610              	.LASF87:
 2611 0422 715F7264 		.ascii	"q_rdptr\000"
 2611      70747200 
 2612              	.LASF20:
 2613 042a 5F426F6F 		.ascii	"_Bool\000"
 2613      6C00
 2614              	.LASF17:
 2615 0430 696E7433 		.ascii	"int32_t\000"
 2615      325F7400 
ARM GAS  /tmp/ccyzIVnS.s 			page 50


 2616              	.LASF4:
 2617 0438 756E7369 		.ascii	"unsigned char\000"
 2617      676E6564 
 2617      20636861 
 2617      7200
 2618              	.LASF141:
 2619 0446 54657374 		.ascii	"TestThread\000"
 2619      54687265 
 2619      616400
 2620              	.LASF70:
 2621 0451 656C5F6C 		.ascii	"el_listener\000"
 2621      69737465 
 2621      6E657200 
 2622              	.LASF72:
 2623 045d 656C5F66 		.ascii	"el_flags\000"
 2623      6C616773 
 2623      00
 2624              	.LASF47:
 2625 0466 705F6D74 		.ascii	"p_mtxlist\000"
 2625      786C6973 
 2625      7400
 2626              	.LASF5:
 2627 0470 73686F72 		.ascii	"short int\000"
 2627      7420696E 
 2627      7400
 2628              	.LASF38:
 2629 047a 705F7374 		.ascii	"p_state\000"
 2629      61746500 
 2630              	.LASF41:
 2631 0482 705F7072 		.ascii	"p_preempt\000"
 2631      65656D70 
 2631      7400
 2632              	.LASF58:
 2633 048c 725F7072 		.ascii	"r_prio\000"
 2633      696F00
 2634              	.LASF78:
 2635 0493 65776D61 		.ascii	"ewmask\000"
 2635      736B00
 2636              	.LASF31:
 2637 049a 705F6E65 		.ascii	"p_next\000"
 2637      787400
 2638              	.LASF39:
 2639 04a1 705F666C 		.ascii	"p_flags\000"
 2639      61677300 
 2640              	.LASF69:
 2641 04a9 656C5F6E 		.ascii	"el_next\000"
 2641      65787400 
 2642              	.LASF115:
 2643 04b1 53445F53 		.ascii	"SD_STOP\000"
 2643      544F5000 
 2644              	.LASF30:
 2645 04b9 54687265 		.ascii	"Thread\000"
 2645      616400
 2646              	.LASF107:
 2647 04c0 4C434B52 		.ascii	"LCKR\000"
 2647      00
 2648              	.LASF28:
ARM GAS  /tmp/ccyzIVnS.s 			page 51


 2649 04c5 666C6167 		.ascii	"flagsmask_t\000"
 2649      736D6173 
 2649      6B5F7400 
 2650              	.LASF46:
 2651 04d1 705F6570 		.ascii	"p_epending\000"
 2651      656E6469 
 2651      6E6700
 2652              	.LASF114:
 2653 04dc 53445F55 		.ascii	"SD_UNINIT\000"
 2653      4E494E49 
 2653      5400
 2654              	.LASF99:
 2655 04e6 52455345 		.ascii	"RESERVED5\000"
 2655      52564544 
 2655      3500
 2656              	.LASF83:
 2657 04f0 715F636F 		.ascii	"q_counter\000"
 2657      756E7465 
 2657      7200
 2658              	.LASF57:
 2659 04fa 725F7175 		.ascii	"r_queue\000"
 2659      65756500 
 2660              	.LASF117:
 2661 0502 73647374 		.ascii	"sdstate_t\000"
 2661      6174655F 
 2661      7400
 2662              	.LASF118:
 2663 050c 53657269 		.ascii	"SerialDriver\000"
 2663      616C4472 
 2663      69766572 
 2663      00
 2664              	.LASF11:
 2665 0519 6C6F6E67 		.ascii	"long unsigned int\000"
 2665      20756E73 
 2665      69676E65 
 2665      6420696E 
 2665      7400
 2666              	.LASF62:
 2667 052b 725F6375 		.ascii	"r_current\000"
 2667      7272656E 
 2667      7400
 2668              	.LASF129:
 2669 0535 72656164 		.ascii	"read\000"
 2669      00
 2670              	.LASF79:
 2671 053a 63686172 		.ascii	"char\000"
 2671      00
 2672              	.LASF139:
 2673 053f 73645374 		.ascii	"sdStart\000"
 2673      61727400 
 2674              	.LASF6:
 2675 0547 5F5F7569 		.ascii	"__uint16_t\000"
 2675      6E743136 
 2675      5F7400
 2676              	.LASF67:
 2677 0552 6D5F6E65 		.ascii	"m_next\000"
 2677      787400
ARM GAS  /tmp/ccyzIVnS.s 			page 52


 2678              	.LASF29:
 2679 0559 73797374 		.ascii	"systime_t\000"
 2679      696D655F 
 2679      7400
 2680              	.LASF48:
 2681 0563 705F7265 		.ascii	"p_realprio\000"
 2681      616C7072 
 2681      696F00
 2682              	.LASF8:
 2683 056e 5F5F696E 		.ascii	"__int32_t\000"
 2683      7433325F 
 2683      7400
 2684              	.LASF10:
 2685 0578 5F5F7569 		.ascii	"__uint32_t\000"
 2685      6E743332 
 2685      5F7400
 2686              	.LASF96:
 2687 0583 52544F52 		.ascii	"RTOR\000"
 2687      00
 2688              	.LASF113:
 2689 0588 696F706F 		.ascii	"ioportid_t\000"
 2689      72746964 
 2689      5F7400
 2690              	.LASF55:
 2691 0593 636F6E74 		.ascii	"context\000"
 2691      65787400 
 2692              	.LASF140:
 2693 059b 5F70616C 		.ascii	"_pal_lld_setgroupmode\000"
 2693      5F6C6C64 
 2693      5F736574 
 2693      67726F75 
 2693      706D6F64 
 2694              	.LASF45:
 2695 05b1 705F6D73 		.ascii	"p_msg\000"
 2695      6700
 2696              	.LASF54:
 2697 05b7 696E7463 		.ascii	"intctx\000"
 2697      747800
 2698              	.LASF116:
 2699 05be 53445F52 		.ascii	"SD_READY\000"
 2699      45414459 
 2699      00
 2700              	.LASF18:
 2701 05c7 75696E74 		.ascii	"uint32_t\000"
 2701      33325F74 
 2701      00
 2702              	.LASF85:
 2703 05d0 715F746F 		.ascii	"q_top\000"
 2703      7000
 2704              	.LASF37:
 2705 05d6 705F6E61 		.ascii	"p_name\000"
 2705      6D6500
 2706              	.LASF74:
 2707 05dd 65735F6E 		.ascii	"es_next\000"
 2707      65787400 
 2708              	.LASF63:
 2709 05e5 52656164 		.ascii	"ReadyList\000"
ARM GAS  /tmp/ccyzIVnS.s 			page 53


 2709      794C6973 
 2709      7400
 2710              	.LASF88:
 2711 05ef 715F6E6F 		.ascii	"q_notify\000"
 2711      74696679 
 2711      00
 2712              	.LASF134:
 2713 05f8 726C6973 		.ascii	"rlist\000"
 2713      7400
 2714              	.LASF15:
 2715 05fe 75696E74 		.ascii	"uint8_t\000"
 2715      385F7400 
 2716              	.LASF68:
 2717 0606 4576656E 		.ascii	"EventListener\000"
 2717      744C6973 
 2717      74656E65 
 2717      7200
 2718              	.LASF77:
 2719 0614 77746F62 		.ascii	"wtobjp\000"
 2719      6A7000
 2720              	.LASF124:
 2721 061b 636C6F63 		.ascii	"clock\000"
 2721      6B00
 2722              	.LASF146:
 2723 0621 6D61696E 		.ascii	"main\000"
 2723      00
 2724              	.LASF112:
 2725 0626 696F6D6F 		.ascii	"iomode_t\000"
 2725      64655F74 
 2725      00
 2726              	.LASF66:
 2727 062f 6D5F6F77 		.ascii	"m_owner\000"
 2727      6E657200 
 2728              	.LASF34:
 2729 0637 705F6374 		.ascii	"p_ctx\000"
 2729      7800
 2730              	.LASF43:
 2731 063d 705F7761 		.ascii	"p_waiting\000"
 2731      6974696E 
 2731      6700
 2732              		.ident	"GCC: (GNU Tools for ARM Embedded Processors) 4.9.3 20141119 (release) [ARM/embedded-4_9-br
ARM GAS  /tmp/ccyzIVnS.s 			page 54


DEFINED SYMBOLS
                            *ABS*:0000000000000000 main.c
     /tmp/ccyzIVnS.s:19     .text.Thread1:0000000000000000 $t
     /tmp/ccyzIVnS.s:24     .text.Thread1:0000000000000000 Thread1
     /tmp/ccyzIVnS.s:142    .text.Thread1:0000000000000084 $d
     /tmp/ccyzIVnS.s:149    .text.startup.main:0000000000000000 $t
     /tmp/ccyzIVnS.s:155    .text.startup.main:0000000000000000 main
     /tmp/ccyzIVnS.s:220    .text.startup.main:0000000000000064 $d
     /tmp/ccyzIVnS.s:227    .bss.waThread1:0000000000000000 $d
     /tmp/ccyzIVnS.s:231    .bss.waThread1:0000000000000000 waThread1
     /tmp/ccyzIVnS.s:234    .rodata.str1.4:0000000000000000 $d
                     .debug_frame:0000000000000010 $d

UNDEFINED SYMBOLS
chThdSleep
rlist
halInit
chSysInit
sdStart
_pal_lld_setgroupmode
chThdCreateStatic
TestThread
SD1
