ARM GAS  /tmp/ccyzIVnS.s 			page 1


   1              		.syntax unified
   2              		.cpu cortex-m4
   3              		.fpu softvfp
   4              		.eabi_attribute 20, 1
   5              		.eabi_attribute 21, 1
   6              		.eabi_attribute 23, 3
   7              		.eabi_attribute 24, 1
   8              		.eabi_attribute 25, 1
   9              		.eabi_attribute 26, 1
  10              		.eabi_attribute 30, 2
  11              		.eabi_attribute 34, 1
  12              		.eabi_attribute 18, 4
  13              		.thumb
  14              		.file	"main.c"
  15              		.text
  16              	.Ltext0:
  17              		.cfi_sections	.debug_frame
  18              		.section	.text.Thread1,"ax",%progbits
  19              		.align	2
  20              		.p2align 4,,15
  21              		.thumb
  22              		.thumb_func
  23              		.type	Thread1, %function
  24              	Thread1:
  25              	.LFB118:
  26              		.file 1 "main.c"
  27              		.loc 1 25 0
  28              		.cfi_startproc
  29              		@ Volatile: function does not return.
  30              		@ args = 0, pretend = 0, frame = 0
  31              		@ frame_needed = 0, uses_anonymous_args = 0
  32              	.LVL0:
  33              		.loc 1 28 0
  34 0000 204B     		ldr	r3, .L5
  35 0002 214A     		ldr	r2, .L5+4
  36 0004 9B69     		ldr	r3, [r3, #24]
  37              		.loc 1 30 0
  38 0006 214C     		ldr	r4, .L5+8
  39 0008 4FF40078 		mov	r8, #512
  40              		.loc 1 25 0
  41 000c 80B5     		push	{r7, lr}
  42              		.cfi_def_cfa_offset 8
  43              		.cfi_offset 7, -8
  44              		.cfi_offset 14, -4
  45              		.loc 1 30 0
  46 000e C146     		mov	r9, r8	@ movhi
  47              		.loc 1 28 0
  48 0010 9A61     		str	r2, [r3, #24]
  49              	.LVL1:
  50              	.L2:
  51              		.loc 1 33 0 discriminator 1
  52 0012 4FF48065 		mov	r5, #1024
  53              		.loc 1 31 0 discriminator 1
  54 0016 7D20     		movs	r0, #125
  55              		.loc 1 30 0 discriminator 1
  56 0018 A4F81890 		strh	r9, [r4, #24]	@ movhi
  57              		.loc 1 31 0 discriminator 1
ARM GAS  /tmp/ccyzIVnS.s 			page 2


  58 001c FFF7FEFF 		bl	chThdSleep
  59              	.LVL2:
  60              		.loc 1 36 0 discriminator 1
  61 0020 4FF40067 		mov	r7, #2048
  62              		.loc 1 32 0 discriminator 1
  63 0024 A4F81A80 		strh	r8, [r4, #26]	@ movhi
  64              		.loc 1 34 0 discriminator 1
  65 0028 7D20     		movs	r0, #125
  66              		.loc 1 33 0 discriminator 1
  67 002a 2583     		strh	r5, [r4, #24]	@ movhi
  68              		.loc 1 34 0 discriminator 1
  69 002c FFF7FEFF 		bl	chThdSleep
  70              	.LVL3:
  71              		.loc 1 39 0 discriminator 1
  72 0030 4FF48056 		mov	r6, #4096
  73              		.loc 1 35 0 discriminator 1
  74 0034 6583     		strh	r5, [r4, #26]	@ movhi
  75              		.loc 1 37 0 discriminator 1
  76 0036 7D20     		movs	r0, #125
  77              		.loc 1 36 0 discriminator 1
  78 0038 2783     		strh	r7, [r4, #24]	@ movhi
  79              		.loc 1 37 0 discriminator 1
  80 003a FFF7FEFF 		bl	chThdSleep
  81              	.LVL4:
  82              		.loc 1 42 0 discriminator 1
  83 003e 4FF40055 		mov	r5, #8192
  84              		.loc 1 38 0 discriminator 1
  85 0042 6783     		strh	r7, [r4, #26]	@ movhi
  86              		.loc 1 40 0 discriminator 1
  87 0044 7D20     		movs	r0, #125
  88              		.loc 1 39 0 discriminator 1
  89 0046 2683     		strh	r6, [r4, #24]	@ movhi
  90              		.loc 1 40 0 discriminator 1
  91 0048 FFF7FEFF 		bl	chThdSleep
  92              	.LVL5:
  93              		.loc 1 45 0 discriminator 1
  94 004c 4FF48047 		mov	r7, #16384
  95              		.loc 1 41 0 discriminator 1
  96 0050 6683     		strh	r6, [r4, #26]	@ movhi
  97              		.loc 1 43 0 discriminator 1
  98 0052 7D20     		movs	r0, #125
  99              		.loc 1 42 0 discriminator 1
 100 0054 2583     		strh	r5, [r4, #24]	@ movhi
 101              		.loc 1 43 0 discriminator 1
 102 0056 FFF7FEFF 		bl	chThdSleep
 103              	.LVL6:
 104              		.loc 1 48 0 discriminator 1
 105 005a 4FF40046 		mov	r6, #32768
 106              		.loc 1 44 0 discriminator 1
 107 005e 6583     		strh	r5, [r4, #26]	@ movhi
 108              		.loc 1 46 0 discriminator 1
 109 0060 7D20     		movs	r0, #125
 110              		.loc 1 45 0 discriminator 1
 111 0062 2783     		strh	r7, [r4, #24]	@ movhi
 112              		.loc 1 46 0 discriminator 1
 113 0064 FFF7FEFF 		bl	chThdSleep
 114              	.LVL7:
ARM GAS  /tmp/ccyzIVnS.s 			page 3


 115              		.loc 1 51 0 discriminator 1
 116 0068 4FF48075 		mov	r5, #256
 117              		.loc 1 47 0 discriminator 1
 118 006c 6783     		strh	r7, [r4, #26]	@ movhi
 119              		.loc 1 49 0 discriminator 1
 120 006e 7D20     		movs	r0, #125
 121              		.loc 1 48 0 discriminator 1
 122 0070 2683     		strh	r6, [r4, #24]	@ movhi
 123              		.loc 1 49 0 discriminator 1
 124 0072 FFF7FEFF 		bl	chThdSleep
 125              	.LVL8:
 126              		.loc 1 50 0 discriminator 1
 127 0076 6683     		strh	r6, [r4, #26]	@ movhi
 128              		.loc 1 52 0 discriminator 1
 129 0078 7D20     		movs	r0, #125
 130              		.loc 1 51 0 discriminator 1
 131 007a 2583     		strh	r5, [r4, #24]	@ movhi
 132              		.loc 1 52 0 discriminator 1
 133 007c FFF7FEFF 		bl	chThdSleep
 134              	.LVL9:
 135              		.loc 1 53 0 discriminator 1
 136 0080 6583     		strh	r5, [r4, #26]	@ movhi
 137              		.loc 1 54 0 discriminator 1
 138 0082 C6E7     		b	.L2
 139              	.L6:
 140              		.align	2
 141              	.L5:
 142 0084 00000000 		.word	rlist
 143 0088 00000000 		.word	.LC0
 144 008c 00100048 		.word	1207963648
 145              		.cfi_endproc
 146              	.LFE118:
 147              		.size	Thread1, .-Thread1
 148              		.section	.text.startup.main,"ax",%progbits
 149              		.align	2
 150              		.p2align 4,,15
 151              		.global	main
 152              		.thumb
 153              		.thumb_func
 154              		.type	main, %function
 155              	main:
 156              	.LFB119:
 157              		.loc 1 63 0
 158              		.cfi_startproc
 159              		@ Volatile: function does not return.
 160              		@ args = 0, pretend = 0, frame = 0
 161              		@ frame_needed = 0, uses_anonymous_args = 0
 162 0000 00B5     		push	{lr}
 163              		.cfi_def_cfa_offset 4
 164              		.cfi_offset 14, -4
 165 0002 83B0     		sub	sp, sp, #12
 166              		.cfi_def_cfa_offset 16
 167              		.loc 1 72 0
 168 0004 FFF7FEFF 		bl	halInit
 169              	.LVL10:
 170              		.loc 1 73 0
 171 0008 FFF7FEFF 		bl	chSysInit
ARM GAS  /tmp/ccyzIVnS.s 			page 4


 172              	.LVL11:
 173              		.loc 1 79 0
 174 000c 1548     		ldr	r0, .L14
 175 000e 0021     		movs	r1, #0
 176 0010 FFF7FEFF 		bl	sdStart
 177              	.LVL12:
 178              		.loc 1 80 0
 179 0014 4FF09040 		mov	r0, #1207959552
 180 0018 4FF40071 		mov	r1, #512
 181 001c 40F28232 		movw	r2, #898
 182 0020 FFF7FEFF 		bl	_pal_lld_setgroupmode
 183              	.LVL13:
 184              		.loc 1 81 0
 185 0024 4FF09040 		mov	r0, #1207959552
 186 0028 4FF48061 		mov	r1, #1024
 187 002c 40F28232 		movw	r2, #898
 188 0030 FFF7FEFF 		bl	_pal_lld_setgroupmode
 189              	.LVL14:
 190              		.loc 1 86 0
 191 0034 0023     		movs	r3, #0
 192 0036 0093     		str	r3, [sp]
 193 0038 0B48     		ldr	r0, .L14+4
 194 003a 0C4B     		ldr	r3, .L14+8
 195 003c 4FF4A871 		mov	r1, #336
 196 0040 4022     		movs	r2, #64
 197 0042 FFF7FEFF 		bl	chThdCreateStatic
 198              	.LVL15:
 199              		.loc 1 94 0
 200 0046 4FF09044 		mov	r4, #1207959552
 201 004a 03E0     		b	.L9
 202              	.L8:
 203              		.loc 1 96 0
 204 004c 4FF4FA70 		mov	r0, #500
 205 0050 FFF7FEFF 		bl	chThdSleep
 206              	.LVL16:
 207              	.L9:
 208              		.loc 1 94 0
 209 0054 2369     		ldr	r3, [r4, #16]
 210 0056 DB07     		lsls	r3, r3, #31
 211 0058 F8D5     		bpl	.L8
 212              		.loc 1 95 0
 213 005a 0248     		ldr	r0, .L14
 214 005c FFF7FEFF 		bl	TestThread
 215              	.LVL17:
 216 0060 F4E7     		b	.L8
 217              	.L15:
 218 0062 00BF     		.align	2
 219              	.L14:
 220 0064 00000000 		.word	SD1
 221 0068 00000000 		.word	.LANCHOR0
 222 006c 00000000 		.word	Thread1
 223              		.cfi_endproc
 224              	.LFE119:
 225              		.size	main, .-main
 226              		.section	.bss.waThread1,"aw",%nobits
 227              		.align	3
 228              		.set	.LANCHOR0,. + 0
ARM GAS  /tmp/ccyzIVnS.s 			page 5


 229              		.type	waThread1, %object
 230              		.size	waThread1, 336
 231              	waThread1:
 232 0000 00000000 		.space	336
 232      00000000 
 232      00000000 
 232      00000000 
 232      00000000 
 233              		.section	.rodata.str1.4,"aMS",%progbits,1
 234              		.align	2
 235              	.LC0:
 236 0000 626C696E 		.ascii	"blinker\000"
 236      6B657200 
 237              		.text
 238              	.Letext0:
 239              		.file 2 "/usr/lib/gcc/arm-none-eabi/4.9.3/include/stddef.h"
 240              		.file 3 "/usr/arm-none-eabi/include/machine/_default_types.h"
 241              		.file 4 "/usr/arm-none-eabi/include/stdint.h"
 242              		.file 5 "/home/austin/git/personal/school/motor_control/chibios/os/ports/GCC/ARMCMx/chtypes.h"
 243              		.file 6 "/home/austin/git/personal/school/motor_control/chibios/os/kernel/include/chlists.h"
 244              		.file 7 "/home/austin/git/personal/school/motor_control/chibios/os/kernel/include/chthreads.h"
 245              		.file 8 "/home/austin/git/personal/school/motor_control/chibios/os/ports/GCC/ARMCMx/chcore_v7m.h"
 246              		.file 9 "/home/austin/git/personal/school/motor_control/chibios/os/kernel/include/chschd.h"
 247              		.file 10 "/home/austin/git/personal/school/motor_control/chibios/os/kernel/include/chmtx.h"
 248              		.file 11 "/home/austin/git/personal/school/motor_control/chibios/os/kernel/include/chevents.h"
 249              		.file 12 "/home/austin/git/personal/school/motor_control/chibios/os/kernel/include/chqueues.h"
 250              		.file 13 "/home/austin/git/personal/school/motor_control/chibios/os/hal/platforms/STM32F30x/stm32f
 251              		.file 14 "/home/austin/git/personal/school/motor_control/chibios/os/hal/platforms/STM32/GPIOv2/pal
 252              		.file 15 "/home/austin/git/personal/school/motor_control/chibios/os/hal/include/serial.h"
 253              		.file 16 "/home/austin/git/personal/school/motor_control/chibios/os/hal/platforms/STM32/USARTv2/se
 254              		.file 17 "/home/austin/git/personal/school/motor_control/chibios/os/ports/common/ARMCMx/CMSIS/incl
 255              		.file 18 "/home/austin/git/personal/school/motor_control/chibios/os/hal/include/hal.h"
 256              		.file 19 "/home/austin/git/personal/school/motor_control/chibios/os/kernel/include/chsys.h"
 257              		.file 20 "/home/austin/git/personal/school/motor_control/chibios/test/test.h"