ARM GAS  /tmp/ccSXLDVe.s 			page 1


   1              		.syntax unified
   2              		.cpu cortex-m4
   3              		.fpu softvfp
   4              		.eabi_attribute 20, 1
   5              		.eabi_attribute 21, 1
   6              		.eabi_attribute 23, 3
   7              		.eabi_attribute 24, 1
   8              		.eabi_attribute 25, 1
   9              		.eabi_attribute 26, 1
  10              		.eabi_attribute 30, 2
  11              		.eabi_attribute 34, 1
  12              		.eabi_attribute 18, 4
  13              		.thumb
  14              		.file	"testdyn.c"
  15              		.text
  16              	.Ltext0:
  17              		.cfi_sections	.debug_frame
  18              		.section	.text.dyn1_execute,"ax",%progbits
  19              		.align	2
  20              		.p2align 4,,15
  21              		.thumb
  22              		.thumb_func
  23              		.type	dyn1_execute, %function
  24              	dyn1_execute:
  25              	.LFB9:
  26              		.file 1 "/home/austin/git/personal/school/motor_control/chibios/test/testdyn.c"
  27              		.loc 1 83 0
  28              		.cfi_startproc
  29              		@ args = 0, pretend = 0, frame = 8
  30              		@ frame_needed = 0, uses_anonymous_args = 0
  31 0000 70B5     		push	{r4, r5, r6, lr}
  32              		.cfi_def_cfa_offset 16
  33              		.cfi_offset 4, -16
  34              		.cfi_offset 5, -12
  35              		.cfi_offset 6, -8
  36              		.cfi_offset 14, -4
  37              		.loc 1 86 0
  38 0002 344B     		ldr	r3, .L13
  39              		.loc 1 88 0
  40 0004 3448     		ldr	r0, .L13+4
  41              		.loc 1 86 0
  42 0006 9B69     		ldr	r3, [r3, #24]
  43              		.loc 1 90 0
  44 0008 344C     		ldr	r4, .L13+8
  45              		.loc 1 86 0
  46 000a 9D68     		ldr	r5, [r3, #8]
  47              	.LVL0:
  48              		.loc 1 83 0
  49 000c 84B0     		sub	sp, sp, #16
  50              		.cfi_def_cfa_offset 32
  51              		.loc 1 88 0
  52 000e 03A9     		add	r1, sp, #12
  53 0010 FFF7FEFF 		bl	chHeapStatus
  54              	.LVL1:
  55              		.loc 1 90 0
  56 0014 324B     		ldr	r3, .L13+12
  57 0016 0093     		str	r3, [sp]
ARM GAS  /tmp/ccSXLDVe.s 			page 2


  58 0018 6A1E     		subs	r2, r5, #1
  59 001a 324B     		ldr	r3, .L13+16
  60 001c 2E48     		ldr	r0, .L13+4
  61 001e 4FF4A871 		mov	r1, #336
  62 0022 FFF7FEFF 		bl	chThdCreateFromHeap
  63              	.LVL2:
  64              		.loc 1 92 0
  65 0026 304B     		ldr	r3, .L13+20
  66              		.loc 1 90 0
  67 0028 2060     		str	r0, [r4]
  68              		.loc 1 92 0
  69 002a AA1E     		subs	r2, r5, #2
  70 002c 0093     		str	r3, [sp]
  71 002e 4FF4A871 		mov	r1, #336
  72 0032 2C4B     		ldr	r3, .L13+16
  73 0034 2848     		ldr	r0, .L13+4
  74 0036 FFF7FEFF 		bl	chThdCreateFromHeap
  75              	.LVL3:
  76              		.loc 1 95 0
  77 003a 02A9     		add	r1, sp, #8
  78              		.loc 1 92 0
  79 003c 6060     		str	r0, [r4, #4]
  80              		.loc 1 95 0
  81 003e 2648     		ldr	r0, .L13+4
  82 0040 FFF7FEFF 		bl	chHeapStatus
  83              	.LVL4:
  84              		.loc 1 96 0
  85 0044 0299     		ldr	r1, [sp, #8]
  86 0046 2448     		ldr	r0, .L13+4
  87 0048 FFF7FEFF 		bl	chHeapAlloc
  88              	.LVL5:
  89              		.loc 1 97 0
  90 004c 274B     		ldr	r3, .L13+24
  91 004e 0093     		str	r3, [sp]
  92 0050 4FF4A871 		mov	r1, #336
  93              		.loc 1 96 0
  94 0054 0646     		mov	r6, r0
  95              	.LVL6:
  96              		.loc 1 97 0
  97 0056 EA1E     		subs	r2, r5, #3
  98 0058 224B     		ldr	r3, .L13+16
  99 005a 1F48     		ldr	r0, .L13+4
 100              	.LVL7:
 101 005c FFF7FEFF 		bl	chThdCreateFromHeap
 102              	.LVL8:
 103 0060 A060     		str	r0, [r4, #8]
 104              		.loc 1 99 0
 105 0062 3046     		mov	r0, r6
 106 0064 FFF7FEFF 		bl	chHeapFree
 107              	.LVL9:
 108              		.loc 1 101 0
 109 0068 2168     		ldr	r1, [r4]
 110 006a 21B1     		cbz	r1, .L2
 111              		.loc 1 101 0 is_stmt 0 discriminator 1
 112 006c 6168     		ldr	r1, [r4, #4]
 113 006e 11B1     		cbz	r1, .L2
 114              		.loc 1 101 0 discriminator 3
ARM GAS  /tmp/ccSXLDVe.s 			page 3


 115 0070 A168     		ldr	r1, [r4, #8]
 116 0072 31B3     		cbz	r1, .L11
 117 0074 0021     		movs	r1, #0
 118              	.L2:
 119              		.loc 1 101 0 discriminator 12
 120 0076 0120     		movs	r0, #1
 121 0078 FFF7FEFF 		bl	_test_assert
 122              	.LVL10:
 123 007c 08B1     		cbz	r0, .L12
 124              	.L1:
 125              		.loc 1 115 0 is_stmt 1
 126 007e 04B0     		add	sp, sp, #16
 127              		.cfi_remember_state
 128              		.cfi_def_cfa_offset 16
 129              		@ sp needed
 130 0080 70BD     		pop	{r4, r5, r6, pc}
 131              	.LVL11:
 132              	.L12:
 133              		.cfi_restore_state
 134              		.loc 1 109 0
 135 0082 FFF7FEFF 		bl	test_wait_threads
 136              	.LVL12:
 137              		.loc 1 110 0
 138 0086 0220     		movs	r0, #2
 139 0088 1949     		ldr	r1, .L13+28
 140 008a FFF7FEFF 		bl	_test_assert_sequence
 141              	.LVL13:
 142 008e 0028     		cmp	r0, #0
 143 0090 F5D1     		bne	.L1
 144              		.loc 1 113 0
 145 0092 02A9     		add	r1, sp, #8
 146 0094 1048     		ldr	r0, .L13+4
 147 0096 FFF7FEFF 		bl	chHeapStatus
 148              	.LVL14:
 149 009a A0F10101 		sub	r1, r0, #1
 150 009e 0320     		movs	r0, #3
 151 00a0 B1FA81F1 		clz	r1, r1
 152 00a4 4909     		lsrs	r1, r1, #5
 153 00a6 FFF7FEFF 		bl	_test_assert
 154              	.LVL15:
 155 00aa 0028     		cmp	r0, #0
 156 00ac E7D1     		bne	.L1
 157              		.loc 1 114 0
 158 00ae 0299     		ldr	r1, [sp, #8]
 159 00b0 039B     		ldr	r3, [sp, #12]
 160 00b2 0420     		movs	r0, #4
 161 00b4 C91A     		subs	r1, r1, r3
 162 00b6 B1FA81F1 		clz	r1, r1
 163 00ba 4909     		lsrs	r1, r1, #5
 164 00bc FFF7FEFF 		bl	_test_assert
 165              	.LVL16:
 166 00c0 DDE7     		b	.L1
 167              	.L11:
 168              		.loc 1 101 0 discriminator 5
 169 00c2 E368     		ldr	r3, [r4, #12]
 170 00c4 002B     		cmp	r3, #0
 171 00c6 D6D1     		bne	.L2
ARM GAS  /tmp/ccSXLDVe.s 			page 4


 172              		.loc 1 101 0 is_stmt 0 discriminator 7
 173 00c8 2169     		ldr	r1, [r4, #16]
 174 00ca B1FA81F1 		clz	r1, r1
 175 00ce 4909     		lsrs	r1, r1, #5
 176 00d0 D1E7     		b	.L2
 177              	.L14:
 178 00d2 00BF     		.align	2
 179              	.L13:
 180 00d4 00000000 		.word	rlist
 181 00d8 00000000 		.word	.LANCHOR0
 182 00dc 00000000 		.word	threads
 183 00e0 00000000 		.word	.LC0
 184 00e4 00000000 		.word	thread
 185 00e8 04000000 		.word	.LC1
 186 00ec 08000000 		.word	.LC2
 187 00f0 0C000000 		.word	.LC3
 188              		.cfi_endproc
 189              	.LFE9:
 190              		.size	dyn1_execute, .-dyn1_execute
 191 00f4 AFF30080 		.section	.text.thread,"ax",%progbits
 191      AFF30080 
 191      AFF30080 
 192              		.align	2
 193              		.p2align 4,,15
 194              		.thumb
 195              		.thumb_func
 196              		.type	thread, %function
 197              	thread:
 198              	.LFB7:
 199              		.loc 1 71 0 is_stmt 1
 200              		.cfi_startproc
 201              		@ args = 0, pretend = 0, frame = 0
 202              		@ frame_needed = 0, uses_anonymous_args = 0
 203              	.LVL17:
 204 0000 08B5     		push	{r3, lr}
 205              		.cfi_def_cfa_offset 8
 206              		.cfi_offset 3, -8
 207              		.cfi_offset 14, -4
 208              		.loc 1 73 0
 209 0002 0078     		ldrb	r0, [r0]	@ zero_extendqisi2
 210              	.LVL18:
 211 0004 FFF7FEFF 		bl	test_emit_token
 212              	.LVL19:
 213              		.loc 1 75 0
 214 0008 0020     		movs	r0, #0
 215 000a 08BD     		pop	{r3, pc}
 216              		.cfi_endproc
 217              	.LFE7:
 218              		.size	thread, .-thread
 219 000c AFF30080 		.section	.text.dyn1_setup,"ax",%progbits
 220              		.align	2
 221              		.p2align 4,,15
 222              		.thumb
 223              		.thumb_func
 224              		.type	dyn1_setup, %function
 225              	dyn1_setup:
 226              	.LFB8:
ARM GAS  /tmp/ccSXLDVe.s 			page 5


 227              		.loc 1 78 0
 228              		.cfi_startproc
 229              		@ args = 0, pretend = 0, frame = 0
 230              		@ frame_needed = 0, uses_anonymous_args = 0
 231              		@ link register save eliminated.
 232              		.loc 1 80 0
 233 0000 0248     		ldr	r0, .L18
 234 0002 0349     		ldr	r1, .L18+4
 235 0004 4FF4D262 		mov	r2, #1680
 236 0008 FFF7FEBF 		b	chHeapInit
 237              	.LVL20:
 238              	.L19:
 239              		.align	2
 240              	.L18:
 241 000c 00000000 		.word	.LANCHOR0
 242 0010 00000000 		.word	test
 243              		.cfi_endproc
 244              	.LFE8:
 245              		.size	dyn1_setup, .-dyn1_setup
 246 0014 AFF30080 		.section	.text.dyn3_setup,"ax",%progbits
 246      AFF30080 
 246      AFF30080 
 247              		.align	2
 248              		.p2align 4,,15
 249              		.thumb
 250              		.thumb_func
 251              		.type	dyn3_setup, %function
 252              	dyn3_setup:
 253              	.LFB13:
 254              		.loc 1 203 0
 255              		.cfi_startproc
 256              		@ args = 0, pretend = 0, frame = 0
 257              		@ frame_needed = 0, uses_anonymous_args = 0
 258              		@ link register save eliminated.
 259              		.loc 1 205 0
 260 0000 0248     		ldr	r0, .L21
 261 0002 0349     		ldr	r1, .L21+4
 262 0004 4FF4D262 		mov	r2, #1680
 263 0008 FFF7FEBF 		b	chHeapInit
 264              	.LVL21:
 265              	.L22:
 266              		.align	2
 267              	.L21:
 268 000c 00000000 		.word	.LANCHOR0
 269 0010 00000000 		.word	test
 270              		.cfi_endproc
 271              	.LFE13:
 272              		.size	dyn3_setup, .-dyn3_setup
 273 0014 AFF30080 		.section	.text.dyn2_execute,"ax",%progbits
 273      AFF30080 
 273      AFF30080 
 274              		.align	2
 275              		.p2align 4,,15
 276              		.thumb
 277              		.thumb_func
 278              		.type	dyn2_execute, %function
 279              	dyn2_execute:
ARM GAS  /tmp/ccSXLDVe.s 			page 6


 280              	.LFB11:
 281              		.loc 1 141 0
 282              		.cfi_startproc
 283              		@ args = 0, pretend = 0, frame = 0
 284              		@ frame_needed = 0, uses_anonymous_args = 0
 285              		.loc 1 143 0
 286 0000 314B     		ldr	r3, .L38
 287 0002 9B69     		ldr	r3, [r3, #24]
 288              		.loc 1 141 0
 289 0004 70B5     		push	{r4, r5, r6, lr}
 290              		.cfi_def_cfa_offset 16
 291              		.cfi_offset 4, -16
 292              		.cfi_offset 5, -12
 293              		.cfi_offset 6, -8
 294              		.cfi_offset 14, -4
 295 0006 314C     		ldr	r4, .L38+4
 296              		.loc 1 143 0
 297 0008 9D68     		ldr	r5, [r3, #8]
 298              	.LVL22:
 299 000a 04F11006 		add	r6, r4, #16
 300              	.LVL23:
 301              	.L24:
 302              		.loc 1 147 0 discriminator 3
 303 000e 54F8041B 		ldr	r1, [r4], #4
 304 0012 2F48     		ldr	r0, .L38+8
 305 0014 FFF7FEFF 		bl	chPoolFree
 306              	.LVL24:
 307              		.loc 1 146 0 discriminator 3
 308 0018 B442     		cmp	r4, r6
 309 001a F8D1     		bne	.L24
 310              		.loc 1 150 0
 311 001c 2D4A     		ldr	r2, .L38+12
 312 001e 2E4B     		ldr	r3, .L38+16
 313 0020 2B48     		ldr	r0, .L38+8
 314 0022 2E4C     		ldr	r4, .L38+20
 315 0024 691E     		subs	r1, r5, #1
 316 0026 FFF7FEFF 		bl	chThdCreateFromMemoryPool
 317              	.LVL25:
 318              		.loc 1 151 0
 319 002a A91E     		subs	r1, r5, #2
 320              		.loc 1 150 0
 321 002c 2060     		str	r0, [r4]
 322              		.loc 1 151 0
 323 002e 294A     		ldr	r2, .L38+12
 324 0030 2B4B     		ldr	r3, .L38+24
 325 0032 2748     		ldr	r0, .L38+8
 326 0034 FFF7FEFF 		bl	chThdCreateFromMemoryPool
 327              	.LVL26:
 328              		.loc 1 152 0
 329 0038 E91E     		subs	r1, r5, #3
 330              		.loc 1 151 0
 331 003a 6060     		str	r0, [r4, #4]
 332              		.loc 1 152 0
 333 003c 254A     		ldr	r2, .L38+12
 334 003e 294B     		ldr	r3, .L38+28
 335 0040 2348     		ldr	r0, .L38+8
 336 0042 FFF7FEFF 		bl	chThdCreateFromMemoryPool
ARM GAS  /tmp/ccSXLDVe.s 			page 7


 337              	.LVL27:
 338              		.loc 1 153 0
 339 0046 291F     		subs	r1, r5, #4
 340              		.loc 1 152 0
 341 0048 A060     		str	r0, [r4, #8]
 342              		.loc 1 153 0
 343 004a 224A     		ldr	r2, .L38+12
 344 004c 264B     		ldr	r3, .L38+32
 345 004e 2048     		ldr	r0, .L38+8
 346 0050 FFF7FEFF 		bl	chThdCreateFromMemoryPool
 347              	.LVL28:
 348              		.loc 1 154 0
 349 0054 691F     		subs	r1, r5, #5
 350              		.loc 1 153 0
 351 0056 E060     		str	r0, [r4, #12]
 352              		.loc 1 154 0
 353 0058 1E4A     		ldr	r2, .L38+12
 354 005a 1D48     		ldr	r0, .L38+8
 355 005c 234B     		ldr	r3, .L38+36
 356 005e FFF7FEFF 		bl	chThdCreateFromMemoryPool
 357              	.LVL29:
 358              		.loc 1 156 0
 359 0062 2168     		ldr	r1, [r4]
 360              		.loc 1 154 0
 361 0064 2061     		str	r0, [r4, #16]
 362              		.loc 1 156 0
 363 0066 41B1     		cbz	r1, .L25
 364              		.loc 1 156 0 is_stmt 0 discriminator 1
 365 0068 6168     		ldr	r1, [r4, #4]
 366 006a 31B1     		cbz	r1, .L25
 367              		.loc 1 156 0 discriminator 3
 368 006c A168     		ldr	r1, [r4, #8]
 369 006e 21B1     		cbz	r1, .L25
 370              		.loc 1 156 0 discriminator 5
 371 0070 E168     		ldr	r1, [r4, #12]
 372 0072 11B1     		cbz	r1, .L25
 373              		.loc 1 156 0 discriminator 7
 374 0074 B0FA80F1 		clz	r1, r0
 375 0078 4909     		lsrs	r1, r1, #5
 376              	.L25:
 377              		.loc 1 156 0 discriminator 12
 378 007a 0120     		movs	r0, #1
 379 007c FFF7FEFF 		bl	_test_assert
 380              	.LVL30:
 381 0080 00B1     		cbz	r0, .L37
 382              	.L23:
 383 0082 70BD     		pop	{r4, r5, r6, pc}
 384              	.LVL31:
 385              	.L37:
 386              		.loc 1 164 0 is_stmt 1
 387 0084 FFF7FEFF 		bl	test_wait_threads
 388              	.LVL32:
 389              		.loc 1 165 0
 390 0088 0220     		movs	r0, #2
 391 008a 1949     		ldr	r1, .L38+40
 392 008c FFF7FEFF 		bl	_test_assert_sequence
 393              	.LVL33:
ARM GAS  /tmp/ccSXLDVe.s 			page 8


 394 0090 0028     		cmp	r0, #0
 395 0092 F6D1     		bne	.L23
 396 0094 0424     		movs	r4, #4
 397              	.L29:
 398              	.LVL34:
 399              		.loc 1 169 0
 400 0096 0E48     		ldr	r0, .L38+8
 401 0098 FFF7FEFF 		bl	chPoolAlloc
 402              	.LVL35:
 403 009c 011C     		adds	r1, r0, #0
 404 009e 18BF     		it	ne
 405 00a0 0121     		movne	r1, #1
 406 00a2 0320     		movs	r0, #3
 407 00a4 FFF7FEFF 		bl	_test_assert
 408              	.LVL36:
 409 00a8 0028     		cmp	r0, #0
 410 00aa EAD1     		bne	.L23
 411              		.loc 1 168 0 discriminator 2
 412 00ac 013C     		subs	r4, r4, #1
 413              	.LVL37:
 414 00ae F2D1     		bne	.L29
 415              		.loc 1 170 0
 416 00b0 0748     		ldr	r0, .L38+8
 417 00b2 FFF7FEFF 		bl	chPoolAlloc
 418              	.LVL38:
 419              		.loc 1 171 0
 420 00b6 BDE87040 		pop	{r4, r5, r6, lr}
 421              		.cfi_restore 14
 422              		.cfi_restore 6
 423              		.cfi_restore 5
 424              		.cfi_restore 4
 425              		.cfi_def_cfa_offset 0
 426              	.LVL39:
 427              		.loc 1 170 0
 428 00ba B0FA80F1 		clz	r1, r0
 429 00be 0420     		movs	r0, #4
 430 00c0 4909     		lsrs	r1, r1, #5
 431 00c2 FFF7FEBF 		b	_test_assert
 432              	.LVL40:
 433              	.L39:
 434 00c6 00BF     		.align	2
 435              	.L38:
 436 00c8 00000000 		.word	rlist
 437 00cc 00000000 		.word	wa
 438 00d0 00000000 		.word	.LANCHOR1
 439 00d4 00000000 		.word	thread
 440 00d8 00000000 		.word	.LC0
 441 00dc 00000000 		.word	threads
 442 00e0 04000000 		.word	.LC1
 443 00e4 08000000 		.word	.LC2
 444 00e8 10000000 		.word	.LC4
 445 00ec 14000000 		.word	.LC5
 446 00f0 18000000 		.word	.LC6
 447              		.cfi_endproc
 448              	.LFE11:
 449              		.size	dyn2_execute, .-dyn2_execute
 450 00f4 AFF30080 		.section	.text.dyn2_setup,"ax",%progbits
ARM GAS  /tmp/ccSXLDVe.s 			page 9


 450      AFF30080 
 450      AFF30080 
 451              		.align	2
 452              		.p2align 4,,15
 453              		.thumb
 454              		.thumb_func
 455              		.type	dyn2_setup, %function
 456              	dyn2_setup:
 457              	.LFB10:
 458              		.loc 1 136 0
 459              		.cfi_startproc
 460              		@ args = 0, pretend = 0, frame = 0
 461              		@ frame_needed = 0, uses_anonymous_args = 0
 462              		@ link register save eliminated.
 463              		.loc 1 138 0
 464 0000 0248     		ldr	r0, .L41
 465 0002 4FF4A871 		mov	r1, #336
 466 0006 0022     		movs	r2, #0
 467 0008 FFF7FEBF 		b	chPoolInit
 468              	.LVL41:
 469              	.L42:
 470              		.align	2
 471              	.L41:
 472 000c 00000000 		.word	.LANCHOR1
 473              		.cfi_endproc
 474              	.LFE10:
 475              		.size	dyn2_setup, .-dyn2_setup
 476              		.section	.text.regfind,"ax",%progbits
 477              		.align	2
 478              		.p2align 4,,15
 479              		.thumb
 480              		.thumb_func
 481              		.type	regfind, %function
 482              	regfind:
 483              	.LFB12:
 484              		.loc 1 191 0
 485              		.cfi_startproc
 486              		@ args = 0, pretend = 0, frame = 0
 487              		@ frame_needed = 0, uses_anonymous_args = 0
 488              	.LVL42:
 489 0000 38B5     		push	{r3, r4, r5, lr}
 490              		.cfi_def_cfa_offset 16
 491              		.cfi_offset 3, -16
 492              		.cfi_offset 4, -12
 493              		.cfi_offset 5, -8
 494              		.cfi_offset 14, -4
 495              		.loc 1 191 0
 496 0002 0546     		mov	r5, r0
 497              		.loc 1 195 0
 498 0004 FFF7FEFF 		bl	chRegFirstThread
 499              	.LVL43:
 500              		.loc 1 193 0
 501 0008 0024     		movs	r4, #0
 502              		.loc 1 195 0
 503 000a 0346     		mov	r3, r0
 504              	.LVL44:
 505              	.L44:
ARM GAS  /tmp/ccSXLDVe.s 			page 10


 506              		.loc 1 198 0 discriminator 1
 507 000c 1846     		mov	r0, r3
 508              		.loc 1 197 0 discriminator 1
 509 000e AB42     		cmp	r3, r5
 510 0010 08BF     		it	eq
 511 0012 44F00104 		orreq	r4, r4, #1
 512              	.LVL45:
 513              		.loc 1 198 0 discriminator 1
 514 0016 FFF7FEFF 		bl	chRegNextThread
 515              	.LVL46:
 516              		.loc 1 199 0 discriminator 1
 517 001a 0346     		mov	r3, r0
 518 001c 0028     		cmp	r0, #0
 519 001e F5D1     		bne	.L44
 520              		.loc 1 201 0
 521 0020 2046     		mov	r0, r4
 522              	.LVL47:
 523 0022 38BD     		pop	{r3, r4, r5, pc}
 524              		.cfi_endproc
 525              	.LFE12:
 526              		.size	regfind, .-regfind
 527 0024 AFF30080 		.section	.text.dyn3_execute,"ax",%progbits
 527      AFF30080 
 527      AFF30080 
 528              		.align	2
 529              		.p2align 4,,15
 530              		.thumb
 531              		.thumb_func
 532              		.type	dyn3_execute, %function
 533              	dyn3_execute:
 534              	.LFB14:
 535              		.loc 1 208 0
 536              		.cfi_startproc
 537              		@ args = 0, pretend = 0, frame = 0
 538              		@ frame_needed = 0, uses_anonymous_args = 0
 539              	.LVL48:
 540 0000 10B5     		push	{r4, lr}
 541              		.cfi_def_cfa_offset 8
 542              		.cfi_offset 4, -8
 543              		.cfi_offset 14, -4
 544              		.loc 1 210 0
 545 0002 474B     		ldr	r3, .L53
 546              		.loc 1 213 0
 547 0004 4749     		ldr	r1, .L53+4
 548              		.loc 1 210 0
 549 0006 9B69     		ldr	r3, [r3, #24]
 550              		.loc 1 213 0
 551 0008 4748     		ldr	r0, .L53+8
 552 000a 9A68     		ldr	r2, [r3, #8]
 553 000c 474B     		ldr	r3, .L53+12
 554              		.loc 1 208 0
 555 000e 82B0     		sub	sp, sp, #8
 556              		.cfi_def_cfa_offset 16
 557              		.loc 1 213 0
 558 0010 013A     		subs	r2, r2, #1
 559 0012 0091     		str	r1, [sp]
 560              	.LVL49:
ARM GAS  /tmp/ccSXLDVe.s 			page 11


 561 0014 4FF4A871 		mov	r1, #336
 562 0018 FFF7FEFF 		bl	chThdCreateFromHeap
 563              	.LVL50:
 564 001c 0446     		mov	r4, r0
 565              	.LVL51:
 566              		.loc 1 214 0
 567 001e 0120     		movs	r0, #1
 568              	.LVL52:
 569 0020 A17F     		ldrb	r1, [r4, #30]	@ zero_extendqisi2
 570 0022 091A     		subs	r1, r1, r0
 571 0024 B1FA81F1 		clz	r1, r1
 572 0028 4909     		lsrs	r1, r1, #5
 573 002a FFF7FEFF 		bl	_test_assert
 574              	.LVL53:
 575 002e 08B1     		cbz	r0, .L52
 576              	.L47:
 577              		.loc 1 236 0
 578 0030 02B0     		add	sp, sp, #8
 579              		.cfi_remember_state
 580              		.cfi_def_cfa_offset 8
 581              		@ sp needed
 582 0032 10BD     		pop	{r4, pc}
 583              	.LVL54:
 584              	.L52:
 585              		.cfi_restore_state
 586              		.loc 1 215 0
 587 0034 2046     		mov	r0, r4
 588 0036 FFF7FEFF 		bl	chThdAddRef
 589              	.LVL55:
 590              		.loc 1 216 0
 591 003a A17F     		ldrb	r1, [r4, #30]	@ zero_extendqisi2
 592 003c 0220     		movs	r0, #2
 593 003e 091A     		subs	r1, r1, r0
 594 0040 B1FA81F1 		clz	r1, r1
 595 0044 4909     		lsrs	r1, r1, #5
 596 0046 FFF7FEFF 		bl	_test_assert
 597              	.LVL56:
 598 004a 0028     		cmp	r0, #0
 599 004c F0D1     		bne	.L47
 600              		.loc 1 217 0
 601 004e 2046     		mov	r0, r4
 602 0050 FFF7FEFF 		bl	chThdRelease
 603              	.LVL57:
 604              		.loc 1 218 0
 605 0054 A17F     		ldrb	r1, [r4, #30]	@ zero_extendqisi2
 606 0056 0320     		movs	r0, #3
 607 0058 A1F10101 		sub	r1, #1
 608 005c B1FA81F1 		clz	r1, r1
 609 0060 4909     		lsrs	r1, r1, #5
 610 0062 FFF7FEFF 		bl	_test_assert
 611              	.LVL58:
 612 0066 0028     		cmp	r0, #0
 613 0068 E2D1     		bne	.L47
 614              		.loc 1 221 0
 615 006a 2046     		mov	r0, r4
 616 006c FFF7FEFF 		bl	regfind
 617              	.LVL59:
ARM GAS  /tmp/ccSXLDVe.s 			page 12


 618 0070 0146     		mov	r1, r0
 619 0072 0420     		movs	r0, #4
 620 0074 FFF7FEFF 		bl	_test_assert
 621              	.LVL60:
 622 0078 0028     		cmp	r0, #0
 623 007a D9D1     		bne	.L47
 624              		.loc 1 222 0
 625 007c 2046     		mov	r0, r4
 626 007e FFF7FEFF 		bl	regfind
 627              	.LVL61:
 628 0082 0146     		mov	r1, r0
 629 0084 0520     		movs	r0, #5
 630 0086 FFF7FEFF 		bl	_test_assert
 631              	.LVL62:
 632 008a 0028     		cmp	r0, #0
 633 008c D0D1     		bne	.L47
 634              		.loc 1 225 0
 635 008e 2046     		mov	r0, r4
 636 0090 FFF7FEFF 		bl	chThdRelease
 637              	.LVL63:
 638              		.loc 1 226 0
 639 0094 A17F     		ldrb	r1, [r4, #30]	@ zero_extendqisi2
 640 0096 B1FA81F1 		clz	r1, r1
 641 009a 0620     		movs	r0, #6
 642 009c 4909     		lsrs	r1, r1, #5
 643 009e FFF7FEFF 		bl	_test_assert
 644              	.LVL64:
 645 00a2 0028     		cmp	r0, #0
 646 00a4 C4D1     		bne	.L47
 647              		.loc 1 227 0
 648 00a6 217F     		ldrb	r1, [r4, #28]	@ zero_extendqisi2
 649 00a8 B1FA81F1 		clz	r1, r1
 650 00ac 0720     		movs	r0, #7
 651 00ae 4909     		lsrs	r1, r1, #5
 652 00b0 FFF7FEFF 		bl	_test_assert
 653              	.LVL65:
 654 00b4 0028     		cmp	r0, #0
 655 00b6 BBD1     		bne	.L47
 656              		.loc 1 228 0
 657 00b8 2046     		mov	r0, r4
 658 00ba FFF7FEFF 		bl	regfind
 659              	.LVL66:
 660 00be 0146     		mov	r1, r0
 661 00c0 0820     		movs	r0, #8
 662 00c2 FFF7FEFF 		bl	_test_assert
 663              	.LVL67:
 664 00c6 0028     		cmp	r0, #0
 665 00c8 B2D1     		bne	.L47
 666              		.loc 1 229 0
 667 00ca 2046     		mov	r0, r4
 668 00cc FFF7FEFF 		bl	regfind
 669              	.LVL68:
 670 00d0 0146     		mov	r1, r0
 671 00d2 0920     		movs	r0, #9
 672 00d4 FFF7FEFF 		bl	_test_assert
 673              	.LVL69:
 674 00d8 0028     		cmp	r0, #0
ARM GAS  /tmp/ccSXLDVe.s 			page 13


 675 00da A9D1     		bne	.L47
 676              		.loc 1 230 0
 677 00dc 3220     		movs	r0, #50
 678 00de FFF7FEFF 		bl	chThdSleep
 679              	.LVL70:
 680              		.loc 1 231 0
 681 00e2 217F     		ldrb	r1, [r4, #28]	@ zero_extendqisi2
 682 00e4 A1F10E03 		sub	r3, r1, #14
 683 00e8 5942     		rsbs	r1, r3, #0
 684 00ea 5941     		adcs	r1, r1, r3
 685 00ec 0A20     		movs	r0, #10
 686 00ee FFF7FEFF 		bl	_test_assert
 687              	.LVL71:
 688 00f2 0028     		cmp	r0, #0
 689 00f4 9CD1     		bne	.L47
 690              		.loc 1 234 0
 691 00f6 2046     		mov	r0, r4
 692 00f8 FFF7FEFF 		bl	regfind
 693              	.LVL72:
 694 00fc 0146     		mov	r1, r0
 695 00fe 0B20     		movs	r0, #11
 696 0100 FFF7FEFF 		bl	_test_assert
 697              	.LVL73:
 698 0104 0028     		cmp	r0, #0
 699 0106 93D1     		bne	.L47
 700              		.loc 1 235 0
 701 0108 2046     		mov	r0, r4
 702 010a FFF7FEFF 		bl	regfind
 703              	.LVL74:
 704 010e 80F00101 		eor	r1, r0, #1
 705 0112 C9B2     		uxtb	r1, r1
 706 0114 0C20     		movs	r0, #12
 707              		.loc 1 236 0
 708 0116 02B0     		add	sp, sp, #8
 709              		.cfi_def_cfa_offset 8
 710              		@ sp needed
 711 0118 BDE81040 		pop	{r4, lr}
 712              		.cfi_restore 14
 713              		.cfi_restore 4
 714              		.cfi_def_cfa_offset 0
 715              	.LVL75:
 716              		.loc 1 235 0
 717 011c FFF7FEBF 		b	_test_assert
 718              	.LVL76:
 719              	.L54:
 720              		.align	2
 721              	.L53:
 722 0120 00000000 		.word	rlist
 723 0124 00000000 		.word	.LC0
 724 0128 00000000 		.word	.LANCHOR0
 725 012c 00000000 		.word	thread
 726              		.cfi_endproc
 727              	.LFE14:
 728              		.size	dyn3_execute, .-dyn3_execute
 729              		.global	patterndyn
 730              		.global	testdyn3
 731              		.global	testdyn2
ARM GAS  /tmp/ccSXLDVe.s 			page 14


 732              		.global	testdyn1
 733              		.section	.rodata.testdyn1,"a",%progbits
 734              		.align	2
 735              		.type	testdyn1, %object
 736              		.size	testdyn1, 16
 737              	testdyn1:
 738 0000 78000000 		.word	.LC9
 739 0004 00000000 		.word	dyn1_setup
 740 0008 00000000 		.word	0
 741 000c 00000000 		.word	dyn1_execute
 742              		.section	.rodata.testdyn2,"a",%progbits
 743              		.align	2
 744              		.type	testdyn2, %object
 745              		.size	testdyn2, 16
 746              	testdyn2:
 747 0000 48000000 		.word	.LC8
 748 0004 00000000 		.word	dyn2_setup
 749 0008 00000000 		.word	0
 750 000c 00000000 		.word	dyn2_execute
 751              		.section	.rodata.testdyn3,"a",%progbits
 752              		.align	2
 753              		.type	testdyn3, %object
 754              		.size	testdyn3, 16
 755              	testdyn3:
 756 0000 20000000 		.word	.LC7
 757 0004 00000000 		.word	dyn3_setup
 758 0008 00000000 		.word	0
 759 000c 00000000 		.word	dyn3_execute
 760              		.section	.bss.mp1,"aw",%nobits
 761              		.align	2
 762              		.set	.LANCHOR1,. + 0
 763              		.type	mp1, %object
 764              		.size	mp1, 12
 765              	mp1:
 766 0000 00000000 		.space	12
 766      00000000 
 766      00000000 
 767              		.section	.rodata.str1.4,"aMS",%progbits,1
 768              		.align	2
 769              	.LC0:
 770 0000 4100     		.ascii	"A\000"
 771 0002 0000     		.space	2
 772              	.LC1:
 773 0004 4200     		.ascii	"B\000"
 774 0006 0000     		.space	2
 775              	.LC2:
 776 0008 4300     		.ascii	"C\000"
 777 000a 0000     		.space	2
 778              	.LC3:
 779 000c 414200   		.ascii	"AB\000"
 780 000f 00       		.space	1
 781              	.LC4:
 782 0010 4400     		.ascii	"D\000"
 783 0012 0000     		.space	2
 784              	.LC5:
 785 0014 4500     		.ascii	"E\000"
 786 0016 0000     		.space	2
ARM GAS  /tmp/ccSXLDVe.s 			page 15


 787              	.LC6:
 788 0018 41424344 		.ascii	"ABCD\000"
 788      00
 789 001d 000000   		.space	3
 790              	.LC7:
 791 0020 44796E61 		.ascii	"Dynamic APIs, registry and references\000"
 791      6D696320 
 791      41504973 
 791      2C207265 
 791      67697374 
 792 0046 0000     		.space	2
 793              	.LC8:
 794 0048 44796E61 		.ascii	"Dynamic APIs, threads creation from memory pool\000"
 794      6D696320 
 794      41504973 
 794      2C207468 
 794      72656164 
 795              	.LC9:
 796 0078 44796E61 		.ascii	"Dynamic APIs, threads creation from heap\000"
 796      6D696320 
 796      41504973 
 796      2C207468 
 796      72656164 
 797 00a1 000000   		.section	.rodata.patterndyn,"a",%progbits
 798              		.align	2
 799              		.type	patterndyn, %object
 800              		.size	patterndyn, 16
 801              	patterndyn:
 802 0000 00000000 		.word	testdyn1
 803 0004 00000000 		.word	testdyn2
 804 0008 00000000 		.word	testdyn3
 805 000c 00000000 		.word	0
 806              		.section	.bss.heap1,"aw",%nobits
 807              		.align	3
 808              		.set	.LANCHOR0,. + 0
 809              		.type	heap1, %object
 810              		.size	heap1, 32
 811              	heap1:
 812 0000 00000000 		.space	32
 812      00000000 
 812      00000000 
 812      00000000 
 812      00000000 
 813              		.text
 814              	.Letext0:
 815              		.file 2 "/usr/lib/gcc/arm-none-eabi/4.9.3/include/stddef.h"
 816              		.file 3 "/usr/arm-none-eabi/include/machine/_default_types.h"
 817              		.file 4 "/usr/arm-none-eabi/include/stdint.h"
 818              		.file 5 "/home/austin/git/personal/school/motor_control/chibios/os/ports/GCC/ARMCMx/chtypes.h"
 819              		.file 6 "/home/austin/git/personal/school/motor_control/chibios/os/kernel/include/chlists.h"
 820              		.file 7 "/home/austin/git/personal/school/motor_control/chibios/os/kernel/include/chthreads.h"
 821              		.file 8 "/home/austin/git/personal/school/motor_control/chibios/os/ports/GCC/ARMCMx/chcore_v7m.h"
 822              		.file 9 "/home/austin/git/personal/school/motor_control/chibios/os/kernel/include/chschd.h"
 823              		.file 10 "/home/austin/git/personal/school/motor_control/chibios/os/kernel/include/chmtx.h"
 824              		.file 11 "/home/austin/git/personal/school/motor_control/chibios/os/kernel/include/chmemcore.h"
 825              		.file 12 "/home/austin/git/personal/school/motor_control/chibios/os/kernel/include/chheap.h"
 826              		.file 13 "/home/austin/git/personal/school/motor_control/chibios/os/kernel/include/chmempools.h"
ARM GAS  /tmp/ccSXLDVe.s 			page 16


 827              		.file 14 "/home/austin/git/personal/school/motor_control/chibios/test/test.h"
 828              		.file 15 "/home/austin/git/personal/school/motor_control/chibios/os/kernel/include/chdynamic.h"
 829              		.file 16 "/home/austin/git/personal/school/motor_control/chibios/os/kernel/include/chregistry.h"
 830              		.section	.debug_info,"",%progbits
 831              	.Ldebug_info0:
 832 0000 640F0000 		.4byte	0xf64
 833 0004 0400     		.2byte	0x4
 834 0006 00000000 		.4byte	.Ldebug_abbrev0
 835 000a 04       		.byte	0x4
 836 000b 01       		.uleb128 0x1
 837 000c 7C020000 		.4byte	.LASF129
 838 0010 01       		.byte	0x1
 839 0011 F6010000 		.4byte	.LASF130
 840 0015 00000000 		.4byte	.Ldebug_ranges0+0
 841 0019 00000000 		.4byte	0
 842 001d 00000000 		.4byte	.Ldebug_line0
 843 0021 02       		.uleb128 0x2
 844 0022 04       		.byte	0x4
 845 0023 05       		.byte	0x5
 846 0024 696E7400 		.ascii	"int\000"
 847 0028 03       		.uleb128 0x3
 848 0029 0E000000 		.4byte	.LASF2
 849 002d 02       		.byte	0x2
 850 002e D4       		.byte	0xd4
 851 002f 33000000 		.4byte	0x33
 852 0033 04       		.uleb128 0x4
 853 0034 04       		.byte	0x4
 854 0035 07       		.byte	0x7
 855 0036 91010000 		.4byte	.LASF0
 856 003a 04       		.uleb128 0x4
 857 003b 01       		.byte	0x1
 858 003c 06       		.byte	0x6
 859 003d B9000000 		.4byte	.LASF1
 860 0041 03       		.uleb128 0x3
 861 0042 2A000000 		.4byte	.LASF3
 862 0046 03       		.byte	0x3
 863 0047 1D       		.byte	0x1d
 864 0048 4C000000 		.4byte	0x4c
 865 004c 04       		.uleb128 0x4
 866 004d 01       		.byte	0x1
 867 004e 08       		.byte	0x8
 868 004f 3C040000 		.4byte	.LASF4
 869 0053 04       		.uleb128 0x4
 870 0054 02       		.byte	0x2
 871 0055 05       		.byte	0x5
 872 0056 5F040000 		.4byte	.LASF5
 873 005a 04       		.uleb128 0x4
 874 005b 02       		.byte	0x2
 875 005c 07       		.byte	0x7
 876 005d D6010000 		.4byte	.LASF6
 877 0061 03       		.uleb128 0x3
 878 0062 5C050000 		.4byte	.LASF7
 879 0066 03       		.byte	0x3
 880 0067 3F       		.byte	0x3f
 881 0068 6C000000 		.4byte	0x6c
 882 006c 04       		.uleb128 0x4
 883 006d 04       		.byte	0x4
ARM GAS  /tmp/ccSXLDVe.s 			page 17


 884 006e 05       		.byte	0x5
 885 006f 07010000 		.4byte	.LASF8
 886 0073 03       		.uleb128 0x3
 887 0074 6B010000 		.4byte	.LASF9
 888 0078 03       		.byte	0x3
 889 0079 41       		.byte	0x41
 890 007a 7E000000 		.4byte	0x7e
 891 007e 04       		.uleb128 0x4
 892 007f 04       		.byte	0x4
 893 0080 07       		.byte	0x7
 894 0081 9E010000 		.4byte	.LASF10
 895 0085 04       		.uleb128 0x4
 896 0086 08       		.byte	0x8
 897 0087 05       		.byte	0x5
 898 0088 AB000000 		.4byte	.LASF11
 899 008c 03       		.uleb128 0x3
 900 008d F5030000 		.4byte	.LASF12
 901 0091 03       		.byte	0x3
 902 0092 5B       		.byte	0x5b
 903 0093 97000000 		.4byte	0x97
 904 0097 04       		.uleb128 0x4
 905 0098 08       		.byte	0x8
 906 0099 07       		.byte	0x7
 907 009a 4C000000 		.4byte	.LASF13
 908 009e 03       		.uleb128 0x3
 909 009f D3050000 		.4byte	.LASF14
 910 00a3 04       		.byte	0x4
 911 00a4 15       		.byte	0x15
 912 00a5 41000000 		.4byte	0x41
 913 00a9 03       		.uleb128 0x3
 914 00aa 34040000 		.4byte	.LASF15
 915 00ae 04       		.byte	0x4
 916 00af 2C       		.byte	0x2c
 917 00b0 61000000 		.4byte	0x61
 918 00b4 03       		.uleb128 0x3
 919 00b5 EB040000 		.4byte	.LASF16
 920 00b9 04       		.byte	0x4
 921 00ba 2D       		.byte	0x2d
 922 00bb 73000000 		.4byte	0x73
 923 00bf 03       		.uleb128 0x3
 924 00c0 21000000 		.4byte	.LASF17
 925 00c4 04       		.byte	0x4
 926 00c5 39       		.byte	0x39
 927 00c6 8C000000 		.4byte	0x8c
 928 00ca 03       		.uleb128 0x3
 929 00cb D3000000 		.4byte	.LASF18
 930 00cf 05       		.byte	0x5
 931 00d0 2B       		.byte	0x2b
 932 00d1 D5000000 		.4byte	0xd5
 933 00d5 04       		.uleb128 0x4
 934 00d6 01       		.byte	0x1
 935 00d7 02       		.byte	0x2
 936 00d8 2E040000 		.4byte	.LASF19
 937 00dc 03       		.uleb128 0x3
 938 00dd 4A020000 		.4byte	.LASF20
 939 00e1 05       		.byte	0x5
 940 00e2 2C       		.byte	0x2c
ARM GAS  /tmp/ccSXLDVe.s 			page 18


 941 00e3 9E000000 		.4byte	0x9e
 942 00e7 03       		.uleb128 0x3
 943 00e8 24010000 		.4byte	.LASF21
 944 00ec 05       		.byte	0x5
 945 00ed 2D       		.byte	0x2d
 946 00ee 9E000000 		.4byte	0x9e
 947 00f2 03       		.uleb128 0x3
 948 00f3 08040000 		.4byte	.LASF22
 949 00f7 05       		.byte	0x5
 950 00f8 2E       		.byte	0x2e
 951 00f9 9E000000 		.4byte	0x9e
 952 00fd 03       		.uleb128 0x3
 953 00fe FD000000 		.4byte	.LASF23
 954 0102 05       		.byte	0x5
 955 0103 2F       		.byte	0x2f
 956 0104 9E000000 		.4byte	0x9e
 957 0108 03       		.uleb128 0x3
 958 0109 1F040000 		.4byte	.LASF24
 959 010d 05       		.byte	0x5
 960 010e 30       		.byte	0x30
 961 010f B4000000 		.4byte	0xb4
 962 0113 03       		.uleb128 0x3
 963 0114 3C020000 		.4byte	.LASF25
 964 0118 05       		.byte	0x5
 965 0119 31       		.byte	0x31
 966 011a A9000000 		.4byte	0xa9
 967 011e 03       		.uleb128 0x3
 968 011f 5E020000 		.4byte	.LASF26
 969 0123 05       		.byte	0x5
 970 0124 33       		.byte	0x33
 971 0125 B4000000 		.4byte	0xb4
 972 0129 03       		.uleb128 0x3
 973 012a 47050000 		.4byte	.LASF27
 974 012e 05       		.byte	0x5
 975 012f 35       		.byte	0x35
 976 0130 B4000000 		.4byte	0xb4
 977 0134 03       		.uleb128 0x3
 978 0135 B9040000 		.4byte	.LASF28
 979 0139 06       		.byte	0x6
 980 013a 2A       		.byte	0x2a
 981 013b 3F010000 		.4byte	0x13f
 982 013f 05       		.uleb128 0x5
 983 0140 B9040000 		.4byte	.LASF28
 984 0144 48       		.byte	0x48
 985 0145 07       		.byte	0x7
 986 0146 5E       		.byte	0x5e
 987 0147 3C020000 		.4byte	0x23c
 988 014b 06       		.uleb128 0x6
 989 014c 9D040000 		.4byte	.LASF29
 990 0150 07       		.byte	0x7
 991 0151 5F       		.byte	0x5f
 992 0152 5D020000 		.4byte	0x25d
 993 0156 00       		.byte	0
 994 0157 06       		.uleb128 0x6
 995 0158 10040000 		.4byte	.LASF30
 996 015c 07       		.byte	0x7
 997 015d 61       		.byte	0x61
ARM GAS  /tmp/ccSXLDVe.s 			page 19


 998 015e 5D020000 		.4byte	0x25d
 999 0162 04       		.byte	0x4
 1000 0163 06       		.uleb128 0x6
 1001 0164 99000000 		.4byte	.LASF31
 1002 0168 07       		.byte	0x7
 1003 0169 63       		.byte	0x63
 1004 016a 08010000 		.4byte	0x108
 1005 016e 08       		.byte	0x8
 1006 016f 06       		.uleb128 0x6
 1007 0170 15060000 		.4byte	.LASF32
 1008 0174 07       		.byte	0x7
 1009 0175 64       		.byte	0x64
 1010 0176 22030000 		.4byte	0x322
 1011 017a 0C       		.byte	0xc
 1012 017b 06       		.uleb128 0x6
 1013 017c 49010000 		.4byte	.LASF33
 1014 0180 07       		.byte	0x7
 1015 0181 66       		.byte	0x66
 1016 0182 5D020000 		.4byte	0x25d
 1017 0186 10       		.byte	0x10
 1018 0187 06       		.uleb128 0x6
 1019 0188 92030000 		.4byte	.LASF34
 1020 018c 07       		.byte	0x7
 1021 018d 67       		.byte	0x67
 1022 018e 5D020000 		.4byte	0x25d
 1023 0192 14       		.byte	0x14
 1024 0193 06       		.uleb128 0x6
 1025 0194 F9050000 		.4byte	.LASF35
 1026 0198 07       		.byte	0x7
 1027 0199 6E       		.byte	0x6e
 1028 019a 40050000 		.4byte	0x540
 1029 019e 18       		.byte	0x18
 1030 019f 06       		.uleb128 0x6
 1031 01a0 69040000 		.4byte	.LASF36
 1032 01a4 07       		.byte	0x7
 1033 01a5 79       		.byte	0x79
 1034 01a6 E7000000 		.4byte	0xe7
 1035 01aa 1C       		.byte	0x1c
 1036 01ab 06       		.uleb128 0x6
 1037 01ac A4040000 		.4byte	.LASF37
 1038 01b0 07       		.byte	0x7
 1039 01b1 7D       		.byte	0x7d
 1040 01b2 DC000000 		.4byte	0xdc
 1041 01b6 1D       		.byte	0x1d
 1042 01b7 06       		.uleb128 0x6
 1043 01b8 B4050000 		.4byte	.LASF38
 1044 01bc 07       		.byte	0x7
 1045 01bd 82       		.byte	0x82
 1046 01be F2000000 		.4byte	0xf2
 1047 01c2 1E       		.byte	0x1e
 1048 01c3 06       		.uleb128 0x6
 1049 01c4 71040000 		.4byte	.LASF39
 1050 01c8 07       		.byte	0x7
 1051 01c9 88       		.byte	0x88
 1052 01ca FD000000 		.4byte	0xfd
 1053 01ce 1F       		.byte	0x1f
 1054 01cf 06       		.uleb128 0x6
ARM GAS  /tmp/ccSXLDVe.s 			page 20


 1055 01d0 71050000 		.4byte	.LASF40
 1056 01d4 07       		.byte	0x7
 1057 01d5 8F       		.byte	0x8f
 1058 01d6 4A030000 		.4byte	0x34a
 1059 01da 20       		.byte	0x20
 1060 01db 07       		.uleb128 0x7
 1061 01dc 705F7500 		.ascii	"p_u\000"
 1062 01e0 07       		.byte	0x7
 1063 01e1 B4       		.byte	0xb4
 1064 01e2 0B050000 		.4byte	0x50b
 1065 01e6 24       		.byte	0x24
 1066 01e7 06       		.uleb128 0x6
 1067 01e8 1B060000 		.4byte	.LASF41
 1068 01ec 07       		.byte	0x7
 1069 01ed B9       		.byte	0xb9
 1070 01ee 83020000 		.4byte	0x283
 1071 01f2 28       		.byte	0x28
 1072 01f3 06       		.uleb128 0x6
 1073 01f4 7F050000 		.4byte	.LASF42
 1074 01f8 07       		.byte	0x7
 1075 01f9 BF       		.byte	0xbf
 1076 01fa 63020000 		.4byte	0x263
 1077 01fe 2C       		.byte	0x2c
 1078 01ff 06       		.uleb128 0x6
 1079 0200 08000000 		.4byte	.LASF43
 1080 0204 07       		.byte	0x7
 1081 0205 C3       		.byte	0xc3
 1082 0206 13010000 		.4byte	0x113
 1083 020a 34       		.byte	0x34
 1084 020b 06       		.uleb128 0x6
 1085 020c D5040000 		.4byte	.LASF44
 1086 0210 07       		.byte	0x7
 1087 0211 C9       		.byte	0xc9
 1088 0212 1E010000 		.4byte	0x11e
 1089 0216 38       		.byte	0x38
 1090 0217 06       		.uleb128 0x6
 1091 0218 55040000 		.4byte	.LASF45
 1092 021c 07       		.byte	0x7
 1093 021d D0       		.byte	0xd0
 1094 021e 52050000 		.4byte	0x552
 1095 0222 3C       		.byte	0x3c
 1096 0223 06       		.uleb128 0x6
 1097 0224 51050000 		.4byte	.LASF46
 1098 0228 07       		.byte	0x7
 1099 0229 D4       		.byte	0xd4
 1100 022a 08010000 		.4byte	0x108
 1101 022e 40       		.byte	0x40
 1102 022f 06       		.uleb128 0x6
 1103 0230 CB000000 		.4byte	.LASF47
 1104 0234 07       		.byte	0x7
 1105 0235 DA       		.byte	0xda
 1106 0236 99020000 		.4byte	0x299
 1107 023a 44       		.byte	0x44
 1108 023b 00       		.byte	0
 1109 023c 08       		.uleb128 0x8
 1110 023d 08       		.byte	0x8
 1111 023e 06       		.byte	0x6
ARM GAS  /tmp/ccSXLDVe.s 			page 21


 1112 023f 61       		.byte	0x61
 1113 0240 5D020000 		.4byte	0x25d
 1114 0244 06       		.uleb128 0x6
 1115 0245 9D040000 		.4byte	.LASF29
 1116 0249 06       		.byte	0x6
 1117 024a 62       		.byte	0x62
 1118 024b 5D020000 		.4byte	0x25d
 1119 024f 00       		.byte	0
 1120 0250 06       		.uleb128 0x6
 1121 0251 10040000 		.4byte	.LASF30
 1122 0255 06       		.byte	0x6
 1123 0256 64       		.byte	0x64
 1124 0257 5D020000 		.4byte	0x25d
 1125 025b 04       		.byte	0x4
 1126 025c 00       		.byte	0
 1127 025d 09       		.uleb128 0x9
 1128 025e 04       		.byte	0x4
 1129 025f 34010000 		.4byte	0x134
 1130 0263 03       		.uleb128 0x3
 1131 0264 A0030000 		.4byte	.LASF48
 1132 0268 06       		.byte	0x6
 1133 0269 66       		.byte	0x66
 1134 026a 3C020000 		.4byte	0x23c
 1135 026e 08       		.uleb128 0x8
 1136 026f 04       		.byte	0x4
 1137 0270 06       		.byte	0x6
 1138 0271 6B       		.byte	0x6b
 1139 0272 83020000 		.4byte	0x283
 1140 0276 06       		.uleb128 0x6
 1141 0277 9D040000 		.4byte	.LASF29
 1142 027b 06       		.byte	0x6
 1143 027c 6D       		.byte	0x6d
 1144 027d 5D020000 		.4byte	0x25d
 1145 0281 00       		.byte	0
 1146 0282 00       		.byte	0
 1147 0283 03       		.uleb128 0x3
 1148 0284 52020000 		.4byte	.LASF49
 1149 0288 06       		.byte	0x6
 1150 0289 70       		.byte	0x70
 1151 028a 6E020000 		.4byte	0x26e
 1152 028e 03       		.uleb128 0x3
 1153 028f 82010000 		.4byte	.LASF50
 1154 0293 08       		.byte	0x8
 1155 0294 E5       		.byte	0xe5
 1156 0295 99020000 		.4byte	0x299
 1157 0299 0A       		.uleb128 0xa
 1158 029a 04       		.byte	0x4
 1159 029b 03       		.uleb128 0x3
 1160 029c 56030000 		.4byte	.LASF51
 1161 02a0 08       		.byte	0x8
 1162 02a1 EB       		.byte	0xeb
 1163 02a2 BF000000 		.4byte	0xbf
 1164 02a6 0B       		.uleb128 0xb
 1165 02a7 78050000 		.4byte	.LASF52
 1166 02ab 24       		.byte	0x24
 1167 02ac 08       		.byte	0x8
 1168 02ad 0C01     		.2byte	0x10c
ARM GAS  /tmp/ccSXLDVe.s 			page 22


 1169 02af 22030000 		.4byte	0x322
 1170 02b3 0C       		.uleb128 0xc
 1171 02b4 723400   		.ascii	"r4\000"
 1172 02b7 08       		.byte	0x8
 1173 02b8 1F01     		.2byte	0x11f
 1174 02ba 8E020000 		.4byte	0x28e
 1175 02be 00       		.byte	0
 1176 02bf 0C       		.uleb128 0xc
 1177 02c0 723500   		.ascii	"r5\000"
 1178 02c3 08       		.byte	0x8
 1179 02c4 2001     		.2byte	0x120
 1180 02c6 8E020000 		.4byte	0x28e
 1181 02ca 04       		.byte	0x4
 1182 02cb 0C       		.uleb128 0xc
 1183 02cc 723600   		.ascii	"r6\000"
 1184 02cf 08       		.byte	0x8
 1185 02d0 2101     		.2byte	0x121
 1186 02d2 8E020000 		.4byte	0x28e
 1187 02d6 08       		.byte	0x8
 1188 02d7 0C       		.uleb128 0xc
 1189 02d8 723700   		.ascii	"r7\000"
 1190 02db 08       		.byte	0x8
 1191 02dc 2201     		.2byte	0x122
 1192 02de 8E020000 		.4byte	0x28e
 1193 02e2 0C       		.byte	0xc
 1194 02e3 0C       		.uleb128 0xc
 1195 02e4 723800   		.ascii	"r8\000"
 1196 02e7 08       		.byte	0x8
 1197 02e8 2301     		.2byte	0x123
 1198 02ea 8E020000 		.4byte	0x28e
 1199 02ee 10       		.byte	0x10
 1200 02ef 0C       		.uleb128 0xc
 1201 02f0 723900   		.ascii	"r9\000"
 1202 02f3 08       		.byte	0x8
 1203 02f4 2401     		.2byte	0x124
 1204 02f6 8E020000 		.4byte	0x28e
 1205 02fa 14       		.byte	0x14
 1206 02fb 0C       		.uleb128 0xc
 1207 02fc 72313000 		.ascii	"r10\000"
 1208 0300 08       		.byte	0x8
 1209 0301 2501     		.2byte	0x125
 1210 0303 8E020000 		.4byte	0x28e
 1211 0307 18       		.byte	0x18
 1212 0308 0C       		.uleb128 0xc
 1213 0309 72313100 		.ascii	"r11\000"
 1214 030d 08       		.byte	0x8
 1215 030e 2601     		.2byte	0x126
 1216 0310 8E020000 		.4byte	0x28e
 1217 0314 1C       		.byte	0x1c
 1218 0315 0C       		.uleb128 0xc
 1219 0316 6C7200   		.ascii	"lr\000"
 1220 0319 08       		.byte	0x8
 1221 031a 2701     		.2byte	0x127
 1222 031c 8E020000 		.4byte	0x28e
 1223 0320 20       		.byte	0x20
 1224 0321 00       		.byte	0
 1225 0322 0B       		.uleb128 0xb
ARM GAS  /tmp/ccSXLDVe.s 			page 23


 1226 0323 C9010000 		.4byte	.LASF53
 1227 0327 04       		.byte	0x4
 1228 0328 08       		.byte	0x8
 1229 0329 3101     		.2byte	0x131
 1230 032b 3D030000 		.4byte	0x33d
 1231 032f 0C       		.uleb128 0xc
 1232 0330 72313300 		.ascii	"r13\000"
 1233 0334 08       		.byte	0x8
 1234 0335 3201     		.2byte	0x132
 1235 0337 3D030000 		.4byte	0x33d
 1236 033b 00       		.byte	0
 1237 033c 00       		.byte	0
 1238 033d 09       		.uleb128 0x9
 1239 033e 04       		.byte	0x4
 1240 033f A6020000 		.4byte	0x2a6
 1241 0343 04       		.uleb128 0x4
 1242 0344 04       		.byte	0x4
 1243 0345 07       		.byte	0x7
 1244 0346 61030000 		.4byte	.LASF54
 1245 034a 0D       		.uleb128 0xd
 1246 034b 29010000 		.4byte	0x129
 1247 034f 08       		.uleb128 0x8
 1248 0350 1C       		.byte	0x1c
 1249 0351 09       		.byte	0x9
 1250 0352 5E       		.byte	0x5e
 1251 0353 A0030000 		.4byte	0x3a0
 1252 0357 06       		.uleb128 0x6
 1253 0358 F4040000 		.4byte	.LASF55
 1254 035c 09       		.byte	0x9
 1255 035d 5F       		.byte	0x5f
 1256 035e 63020000 		.4byte	0x263
 1257 0362 00       		.byte	0
 1258 0363 06       		.uleb128 0x6
 1259 0364 83040000 		.4byte	.LASF56
 1260 0368 09       		.byte	0x9
 1261 0369 60       		.byte	0x60
 1262 036a 08010000 		.4byte	0x108
 1263 036e 08       		.byte	0x8
 1264 036f 06       		.uleb128 0x6
 1265 0370 9A030000 		.4byte	.LASF57
 1266 0374 09       		.byte	0x9
 1267 0375 62       		.byte	0x62
 1268 0376 22030000 		.4byte	0x322
 1269 037a 0C       		.byte	0xc
 1270 037b 06       		.uleb128 0x6
 1271 037c 42020000 		.4byte	.LASF58
 1272 0380 09       		.byte	0x9
 1273 0381 65       		.byte	0x65
 1274 0382 5D020000 		.4byte	0x25d
 1275 0386 10       		.byte	0x10
 1276 0387 06       		.uleb128 0x6
 1277 0388 E2030000 		.4byte	.LASF59
 1278 038c 09       		.byte	0x9
 1279 038d 66       		.byte	0x66
 1280 038e 5D020000 		.4byte	0x25d
 1281 0392 14       		.byte	0x14
 1282 0393 06       		.uleb128 0x6
ARM GAS  /tmp/ccSXLDVe.s 			page 24


 1283 0394 D8030000 		.4byte	.LASF60
 1284 0398 09       		.byte	0x9
 1285 0399 69       		.byte	0x69
 1286 039a 5D020000 		.4byte	0x25d
 1287 039e 18       		.byte	0x18
 1288 039f 00       		.byte	0
 1289 03a0 03       		.uleb128 0x3
 1290 03a1 BB050000 		.4byte	.LASF61
 1291 03a5 09       		.byte	0x9
 1292 03a6 6B       		.byte	0x6b
 1293 03a7 4F030000 		.4byte	0x34f
 1294 03ab 05       		.uleb128 0x5
 1295 03ac 6A020000 		.4byte	.LASF62
 1296 03b0 10       		.byte	0x10
 1297 03b1 0A       		.byte	0xa
 1298 03b2 2C       		.byte	0x2c
 1299 03b3 DC030000 		.4byte	0x3dc
 1300 03b7 06       		.uleb128 0x6
 1301 03b8 DA000000 		.4byte	.LASF63
 1302 03bc 0A       		.byte	0xa
 1303 03bd 2D       		.byte	0x2d
 1304 03be 63020000 		.4byte	0x263
 1305 03c2 00       		.byte	0
 1306 03c3 06       		.uleb128 0x6
 1307 03c4 0D060000 		.4byte	.LASF64
 1308 03c8 0A       		.byte	0xa
 1309 03c9 2F       		.byte	0x2f
 1310 03ca 5D020000 		.4byte	0x25d
 1311 03ce 08       		.byte	0x8
 1312 03cf 06       		.uleb128 0x6
 1313 03d0 40050000 		.4byte	.LASF65
 1314 03d4 0A       		.byte	0xa
 1315 03d5 31       		.byte	0x31
 1316 03d6 DC030000 		.4byte	0x3dc
 1317 03da 0C       		.byte	0xc
 1318 03db 00       		.byte	0
 1319 03dc 09       		.uleb128 0x9
 1320 03dd 04       		.byte	0x4
 1321 03de AB030000 		.4byte	0x3ab
 1322 03e2 03       		.uleb128 0x3
 1323 03e3 6A020000 		.4byte	.LASF62
 1324 03e7 0A       		.byte	0xa
 1325 03e8 33       		.byte	0x33
 1326 03e9 AB030000 		.4byte	0x3ab
 1327 03ed 03       		.uleb128 0x3
 1328 03ee 3F000000 		.4byte	.LASF66
 1329 03f2 0B       		.byte	0xb
 1330 03f3 2C       		.byte	0x2c
 1331 03f4 F8030000 		.4byte	0x3f8
 1332 03f8 09       		.uleb128 0x9
 1333 03f9 04       		.byte	0x4
 1334 03fa FE030000 		.4byte	0x3fe
 1335 03fe 0E       		.uleb128 0xe
 1336 03ff 99020000 		.4byte	0x299
 1337 0403 0D040000 		.4byte	0x40d
 1338 0407 0F       		.uleb128 0xf
 1339 0408 28000000 		.4byte	0x28
ARM GAS  /tmp/ccSXLDVe.s 			page 25


 1340 040c 00       		.byte	0
 1341 040d 03       		.uleb128 0x3
 1342 040e EA030000 		.4byte	.LASF67
 1343 0412 0C       		.byte	0xc
 1344 0413 34       		.byte	0x34
 1345 0414 18040000 		.4byte	0x418
 1346 0418 05       		.uleb128 0x5
 1347 0419 2B060000 		.4byte	.LASF68
 1348 041d 20       		.byte	0x20
 1349 041e 0C       		.byte	0xc
 1350 041f 47       		.byte	0x47
 1351 0420 49040000 		.4byte	0x449
 1352 0424 06       		.uleb128 0x6
 1353 0425 4A040000 		.4byte	.LASF69
 1354 0429 0C       		.byte	0xc
 1355 042a 48       		.byte	0x48
 1356 042b ED030000 		.4byte	0x3ed
 1357 042f 00       		.byte	0
 1358 0430 06       		.uleb128 0x6
 1359 0431 6C000000 		.4byte	.LASF70
 1360 0435 0C       		.byte	0xc
 1361 0436 4A       		.byte	0x4a
 1362 0437 68040000 		.4byte	0x468
 1363 043b 08       		.byte	0x8
 1364 043c 06       		.uleb128 0x6
 1365 043d C5000000 		.4byte	.LASF71
 1366 0441 0C       		.byte	0xc
 1367 0442 4C       		.byte	0x4c
 1368 0443 E2030000 		.4byte	0x3e2
 1369 0447 10       		.byte	0x10
 1370 0448 00       		.byte	0
 1371 0449 10       		.uleb128 0x10
 1372 044a 04       		.byte	0x4
 1373 044b 0C       		.byte	0xc
 1374 044c 3C       		.byte	0x3c
 1375 044d 68040000 		.4byte	0x468
 1376 0451 11       		.uleb128 0x11
 1377 0452 94000000 		.4byte	.LASF72
 1378 0456 0C       		.byte	0xc
 1379 0457 3D       		.byte	0x3d
 1380 0458 89040000 		.4byte	0x489
 1381 045c 11       		.uleb128 0x11
 1382 045d FC040000 		.4byte	.LASF73
 1383 0461 0C       		.byte	0xc
 1384 0462 3E       		.byte	0x3e
 1385 0463 8F040000 		.4byte	0x48f
 1386 0467 00       		.byte	0
 1387 0468 12       		.uleb128 0x12
 1388 0469 8A040000 		.4byte	.LASF93
 1389 046d 08       		.byte	0x8
 1390 046e 0C       		.byte	0xc
 1391 046f 39       		.byte	0x39
 1392 0470 89040000 		.4byte	0x489
 1393 0474 11       		.uleb128 0x11
 1394 0475 8B010000 		.4byte	.LASF74
 1395 0479 0C       		.byte	0xc
 1396 047a 3A       		.byte	0x3a
ARM GAS  /tmp/ccSXLDVe.s 			page 26


 1397 047b 9B020000 		.4byte	0x29b
 1398 047f 13       		.uleb128 0x13
 1399 0480 6800     		.ascii	"h\000"
 1400 0482 0C       		.byte	0xc
 1401 0483 41       		.byte	0x41
 1402 0484 95040000 		.4byte	0x495
 1403 0488 00       		.byte	0
 1404 0489 09       		.uleb128 0x9
 1405 048a 04       		.byte	0x4
 1406 048b 68040000 		.4byte	0x468
 1407 048f 09       		.uleb128 0x9
 1408 0490 04       		.byte	0x4
 1409 0491 0D040000 		.4byte	0x40d
 1410 0495 08       		.uleb128 0x8
 1411 0496 08       		.byte	0x8
 1412 0497 0C       		.byte	0xc
 1413 0498 3B       		.byte	0x3b
 1414 0499 B4040000 		.4byte	0x4b4
 1415 049d 07       		.uleb128 0x7
 1416 049e 7500     		.ascii	"u\000"
 1417 04a0 0C       		.byte	0xc
 1418 04a1 3F       		.byte	0x3f
 1419 04a2 49040000 		.4byte	0x449
 1420 04a6 00       		.byte	0
 1421 04a7 06       		.uleb128 0x6
 1422 04a8 D1010000 		.4byte	.LASF75
 1423 04ac 0C       		.byte	0xc
 1424 04ad 40       		.byte	0x40
 1425 04ae 28000000 		.4byte	0x28
 1426 04b2 04       		.byte	0x4
 1427 04b3 00       		.byte	0
 1428 04b4 05       		.uleb128 0x5
 1429 04b5 A8050000 		.4byte	.LASF76
 1430 04b9 04       		.byte	0x4
 1431 04ba 0D       		.byte	0xd
 1432 04bb 2C       		.byte	0x2c
 1433 04bc CD040000 		.4byte	0x4cd
 1434 04c0 06       		.uleb128 0x6
 1435 04c1 00040000 		.4byte	.LASF77
 1436 04c5 0D       		.byte	0xd
 1437 04c6 2D       		.byte	0x2d
 1438 04c7 CD040000 		.4byte	0x4cd
 1439 04cb 00       		.byte	0
 1440 04cc 00       		.byte	0
 1441 04cd 09       		.uleb128 0x9
 1442 04ce 04       		.byte	0x4
 1443 04cf B4040000 		.4byte	0x4b4
 1444 04d3 08       		.uleb128 0x8
 1445 04d4 0C       		.byte	0xc
 1446 04d5 0D       		.byte	0xd
 1447 04d6 34       		.byte	0x34
 1448 04d7 00050000 		.4byte	0x500
 1449 04db 06       		.uleb128 0x6
 1450 04dc 2D010000 		.4byte	.LASF78
 1451 04e0 0D       		.byte	0xd
 1452 04e1 35       		.byte	0x35
 1453 04e2 CD040000 		.4byte	0x4cd
ARM GAS  /tmp/ccSXLDVe.s 			page 27


 1454 04e6 00       		.byte	0
 1455 04e7 06       		.uleb128 0x6
 1456 04e8 AD030000 		.4byte	.LASF79
 1457 04ec 0D       		.byte	0xd
 1458 04ed 36       		.byte	0x36
 1459 04ee 28000000 		.4byte	0x28
 1460 04f2 04       		.byte	0x4
 1461 04f3 06       		.uleb128 0x6
 1462 04f4 76010000 		.4byte	.LASF80
 1463 04f8 0D       		.byte	0xd
 1464 04f9 38       		.byte	0x38
 1465 04fa ED030000 		.4byte	0x3ed
 1466 04fe 08       		.byte	0x8
 1467 04ff 00       		.byte	0
 1468 0500 03       		.uleb128 0x3
 1469 0501 34000000 		.4byte	.LASF81
 1470 0505 0D       		.byte	0xd
 1471 0506 3A       		.byte	0x3a
 1472 0507 D3040000 		.4byte	0x4d3
 1473 050b 10       		.uleb128 0x10
 1474 050c 04       		.byte	0x4
 1475 050d 07       		.byte	0x7
 1476 050e 96       		.byte	0x96
 1477 050f 40050000 		.4byte	0x540
 1478 0513 11       		.uleb128 0x11
 1479 0514 1A000000 		.4byte	.LASF82
 1480 0518 07       		.byte	0x7
 1481 0519 9D       		.byte	0x9d
 1482 051a 13010000 		.4byte	0x113
 1483 051e 11       		.uleb128 0x11
 1484 051f 63000000 		.4byte	.LASF83
 1485 0523 07       		.byte	0x7
 1486 0524 A4       		.byte	0xa4
 1487 0525 13010000 		.4byte	0x113
 1488 0529 11       		.uleb128 0x11
 1489 052a F2050000 		.4byte	.LASF84
 1490 052e 07       		.byte	0x7
 1491 052f AB       		.byte	0xab
 1492 0530 99020000 		.4byte	0x299
 1493 0534 11       		.uleb128 0x11
 1494 0535 96040000 		.4byte	.LASF85
 1495 0539 07       		.byte	0x7
 1496 053a B2       		.byte	0xb2
 1497 053b 1E010000 		.4byte	0x11e
 1498 053f 00       		.byte	0
 1499 0540 09       		.uleb128 0x9
 1500 0541 04       		.byte	0x4
 1501 0542 46050000 		.4byte	0x546
 1502 0546 14       		.uleb128 0x14
 1503 0547 4B050000 		.4byte	0x54b
 1504 054b 04       		.uleb128 0x4
 1505 054c 01       		.byte	0x1
 1506 054d 08       		.byte	0x8
 1507 054e 01050000 		.4byte	.LASF86
 1508 0552 09       		.uleb128 0x9
 1509 0553 04       		.byte	0x4
 1510 0554 E2030000 		.4byte	0x3e2
ARM GAS  /tmp/ccSXLDVe.s 			page 28


 1511 0558 03       		.uleb128 0x3
 1512 0559 00000000 		.4byte	.LASF87
 1513 055d 07       		.byte	0x7
 1514 055e E5       		.byte	0xe5
 1515 055f 63050000 		.4byte	0x563
 1516 0563 09       		.uleb128 0x9
 1517 0564 04       		.byte	0x4
 1518 0565 69050000 		.4byte	0x569
 1519 0569 0E       		.uleb128 0xe
 1520 056a 13010000 		.4byte	0x113
 1521 056e 78050000 		.4byte	0x578
 1522 0572 0F       		.uleb128 0xf
 1523 0573 99020000 		.4byte	0x299
 1524 0577 00       		.byte	0
 1525 0578 05       		.uleb128 0x5
 1526 0579 CC040000 		.4byte	.LASF88
 1527 057d 10       		.byte	0x10
 1528 057e 0E       		.byte	0xe
 1529 057f 3B       		.byte	0x3b
 1530 0580 B5050000 		.4byte	0x5b5
 1531 0584 06       		.uleb128 0x6
 1532 0585 C4010000 		.4byte	.LASF89
 1533 0589 0E       		.byte	0xe
 1534 058a 3C       		.byte	0x3c
 1535 058b 40050000 		.4byte	0x540
 1536 058f 00       		.byte	0
 1537 0590 06       		.uleb128 0x6
 1538 0591 BC030000 		.4byte	.LASF90
 1539 0595 0E       		.byte	0xe
 1540 0596 3D       		.byte	0x3d
 1541 0597 B6050000 		.4byte	0x5b6
 1542 059b 04       		.byte	0x4
 1543 059c 06       		.uleb128 0x6
 1544 059d B0010000 		.4byte	.LASF91
 1545 05a1 0E       		.byte	0xe
 1546 05a2 3E       		.byte	0x3e
 1547 05a3 B6050000 		.4byte	0x5b6
 1548 05a7 08       		.byte	0x8
 1549 05a8 06       		.uleb128 0x6
 1550 05a9 17040000 		.4byte	.LASF92
 1551 05ad 0E       		.byte	0xe
 1552 05ae 3F       		.byte	0x3f
 1553 05af B6050000 		.4byte	0x5b6
 1554 05b3 0C       		.byte	0xc
 1555 05b4 00       		.byte	0
 1556 05b5 15       		.uleb128 0x15
 1557 05b6 09       		.uleb128 0x9
 1558 05b7 04       		.byte	0x4
 1559 05b8 B5050000 		.4byte	0x5b5
 1560 05bc 16       		.uleb128 0x16
 1561 05bd 9006     		.2byte	0x690
 1562 05bf 0E       		.byte	0xe
 1563 05c0 44       		.byte	0x44
 1564 05c1 01060000 		.4byte	0x601
 1565 05c5 07       		.uleb128 0x7
 1566 05c6 543000   		.ascii	"T0\000"
 1567 05c9 0E       		.byte	0xe
ARM GAS  /tmp/ccSXLDVe.s 			page 29


 1568 05ca 45       		.byte	0x45
 1569 05cb 01060000 		.4byte	0x601
 1570 05cf 00       		.byte	0
 1571 05d0 17       		.uleb128 0x17
 1572 05d1 543100   		.ascii	"T1\000"
 1573 05d4 0E       		.byte	0xe
 1574 05d5 46       		.byte	0x46
 1575 05d6 01060000 		.4byte	0x601
 1576 05da 5001     		.2byte	0x150
 1577 05dc 17       		.uleb128 0x17
 1578 05dd 543200   		.ascii	"T2\000"
 1579 05e0 0E       		.byte	0xe
 1580 05e1 47       		.byte	0x47
 1581 05e2 01060000 		.4byte	0x601
 1582 05e6 A002     		.2byte	0x2a0
 1583 05e8 17       		.uleb128 0x17
 1584 05e9 543300   		.ascii	"T3\000"
 1585 05ec 0E       		.byte	0xe
 1586 05ed 48       		.byte	0x48
 1587 05ee 01060000 		.4byte	0x601
 1588 05f2 F003     		.2byte	0x3f0
 1589 05f4 17       		.uleb128 0x17
 1590 05f5 543400   		.ascii	"T4\000"
 1591 05f8 0E       		.byte	0xe
 1592 05f9 49       		.byte	0x49
 1593 05fa 01060000 		.4byte	0x601
 1594 05fe 4005     		.2byte	0x540
 1595 0600 00       		.byte	0
 1596 0601 18       		.uleb128 0x18
 1597 0602 9B020000 		.4byte	0x29b
 1598 0606 11060000 		.4byte	0x611
 1599 060a 19       		.uleb128 0x19
 1600 060b 43030000 		.4byte	0x343
 1601 060f 29       		.byte	0x29
 1602 0610 00       		.byte	0
 1603 0611 1A       		.uleb128 0x1a
 1604 0612 9B050000 		.4byte	.LASF94
 1605 0616 9006     		.2byte	0x690
 1606 0618 0E       		.byte	0xe
 1607 0619 43       		.byte	0x43
 1608 061a 34060000 		.4byte	0x634
 1609 061e 13       		.uleb128 0x13
 1610 061f 776100   		.ascii	"wa\000"
 1611 0622 0E       		.byte	0xe
 1612 0623 4A       		.byte	0x4a
 1613 0624 BC050000 		.4byte	0x5bc
 1614 0628 11       		.uleb128 0x11
 1615 0629 42010000 		.4byte	.LASF95
 1616 062d 0E       		.byte	0xe
 1617 062e 4B       		.byte	0x4b
 1618 062f 34060000 		.4byte	0x634
 1619 0633 00       		.byte	0
 1620 0634 18       		.uleb128 0x18
 1621 0635 9E000000 		.4byte	0x9e
 1622 0639 45060000 		.4byte	0x645
 1623 063d 1B       		.uleb128 0x1b
 1624 063e 43030000 		.4byte	0x343
ARM GAS  /tmp/ccSXLDVe.s 			page 30


 1625 0642 8F06     		.2byte	0x68f
 1626 0644 00       		.byte	0
 1627 0645 1C       		.uleb128 0x1c
 1628 0646 35010000 		.4byte	.LASF97
 1629 064a 01       		.byte	0x1
 1630 064b 53       		.byte	0x53
 1631 064c 00000000 		.4byte	.LFB9
 1632 0650 F4000000 		.4byte	.LFE9-.LFB9
 1633 0654 01       		.uleb128 0x1
 1634 0655 9C       		.byte	0x9c
 1635 0656 10080000 		.4byte	0x810
 1636 065a 1D       		.uleb128 0x1d
 1637 065b 6E00     		.ascii	"n\000"
 1638 065d 01       		.byte	0x1
 1639 065e 54       		.byte	0x54
 1640 065f 28000000 		.4byte	0x28
 1641 0663 02       		.uleb128 0x2
 1642 0664 91       		.byte	0x91
 1643 0665 68       		.sleb128 -24
 1644 0666 1D       		.uleb128 0x1d
 1645 0667 737A00   		.ascii	"sz\000"
 1646 066a 01       		.byte	0x1
 1647 066b 54       		.byte	0x54
 1648 066c 28000000 		.4byte	0x28
 1649 0670 02       		.uleb128 0x2
 1650 0671 91       		.byte	0x91
 1651 0672 6C       		.sleb128 -20
 1652 0673 1E       		.uleb128 0x1e
 1653 0674 703100   		.ascii	"p1\000"
 1654 0677 01       		.byte	0x1
 1655 0678 55       		.byte	0x55
 1656 0679 99020000 		.4byte	0x299
 1657 067d 00000000 		.4byte	.LLST0
 1658 0681 1F       		.uleb128 0x1f
 1659 0682 15000000 		.4byte	.LASF96
 1660 0686 01       		.byte	0x1
 1661 0687 56       		.byte	0x56
 1662 0688 08010000 		.4byte	0x108
 1663 068c 01       		.uleb128 0x1
 1664 068d 55       		.byte	0x55
 1665 068e 20       		.uleb128 0x20
 1666 068f 14000000 		.4byte	.LVL1
 1667 0693 C20D0000 		.4byte	0xdc2
 1668 0697 AB060000 		.4byte	0x6ab
 1669 069b 21       		.uleb128 0x21
 1670 069c 01       		.uleb128 0x1
 1671 069d 51       		.byte	0x51
 1672 069e 02       		.uleb128 0x2
 1673 069f 91       		.byte	0x91
 1674 06a0 6C       		.sleb128 -20
 1675 06a1 21       		.uleb128 0x21
 1676 06a2 01       		.uleb128 0x1
 1677 06a3 50       		.byte	0x50
 1678 06a4 05       		.uleb128 0x5
 1679 06a5 03       		.byte	0x3
 1680 06a6 00000000 		.4byte	.LANCHOR0
 1681 06aa 00       		.byte	0
ARM GAS  /tmp/ccSXLDVe.s 			page 31


 1682 06ab 20       		.uleb128 0x20
 1683 06ac 26000000 		.4byte	.LVL2
 1684 06b0 E20D0000 		.4byte	0xde2
 1685 06b4 E2060000 		.4byte	0x6e2
 1686 06b8 21       		.uleb128 0x21
 1687 06b9 01       		.uleb128 0x1
 1688 06ba 53       		.byte	0x53
 1689 06bb 05       		.uleb128 0x5
 1690 06bc 03       		.byte	0x3
 1691 06bd 00000000 		.4byte	thread
 1692 06c1 21       		.uleb128 0x21
 1693 06c2 01       		.uleb128 0x1
 1694 06c3 52       		.byte	0x52
 1695 06c4 02       		.uleb128 0x2
 1696 06c5 75       		.byte	0x75
 1697 06c6 7F       		.sleb128 -1
 1698 06c7 21       		.uleb128 0x21
 1699 06c8 01       		.uleb128 0x1
 1700 06c9 51       		.byte	0x51
 1701 06ca 03       		.uleb128 0x3
 1702 06cb 0A       		.byte	0xa
 1703 06cc 5001     		.2byte	0x150
 1704 06ce 21       		.uleb128 0x21
 1705 06cf 01       		.uleb128 0x1
 1706 06d0 50       		.byte	0x50
 1707 06d1 05       		.uleb128 0x5
 1708 06d2 03       		.byte	0x3
 1709 06d3 00000000 		.4byte	.LANCHOR0
 1710 06d7 21       		.uleb128 0x21
 1711 06d8 02       		.uleb128 0x2
 1712 06d9 7D       		.byte	0x7d
 1713 06da 00       		.sleb128 0
 1714 06db 05       		.uleb128 0x5
 1715 06dc 03       		.byte	0x3
 1716 06dd 00000000 		.4byte	.LC0
 1717 06e1 00       		.byte	0
 1718 06e2 20       		.uleb128 0x20
 1719 06e3 3A000000 		.4byte	.LVL3
 1720 06e7 E20D0000 		.4byte	0xde2
 1721 06eb 19070000 		.4byte	0x719
 1722 06ef 21       		.uleb128 0x21
 1723 06f0 01       		.uleb128 0x1
 1724 06f1 53       		.byte	0x53
 1725 06f2 05       		.uleb128 0x5
 1726 06f3 03       		.byte	0x3
 1727 06f4 00000000 		.4byte	thread
 1728 06f8 21       		.uleb128 0x21
 1729 06f9 01       		.uleb128 0x1
 1730 06fa 52       		.byte	0x52
 1731 06fb 02       		.uleb128 0x2
 1732 06fc 75       		.byte	0x75
 1733 06fd 7E       		.sleb128 -2
 1734 06fe 21       		.uleb128 0x21
 1735 06ff 01       		.uleb128 0x1
 1736 0700 51       		.byte	0x51
 1737 0701 03       		.uleb128 0x3
 1738 0702 0A       		.byte	0xa
ARM GAS  /tmp/ccSXLDVe.s 			page 32


 1739 0703 5001     		.2byte	0x150
 1740 0705 21       		.uleb128 0x21
 1741 0706 01       		.uleb128 0x1
 1742 0707 50       		.byte	0x50
 1743 0708 05       		.uleb128 0x5
 1744 0709 03       		.byte	0x3
 1745 070a 00000000 		.4byte	.LANCHOR0
 1746 070e 21       		.uleb128 0x21
 1747 070f 02       		.uleb128 0x2
 1748 0710 7D       		.byte	0x7d
 1749 0711 00       		.sleb128 0
 1750 0712 05       		.uleb128 0x5
 1751 0713 03       		.byte	0x3
 1752 0714 04000000 		.4byte	.LC1
 1753 0718 00       		.byte	0
 1754 0719 20       		.uleb128 0x20
 1755 071a 44000000 		.4byte	.LVL4
 1756 071e C20D0000 		.4byte	0xdc2
 1757 0722 36070000 		.4byte	0x736
 1758 0726 21       		.uleb128 0x21
 1759 0727 01       		.uleb128 0x1
 1760 0728 51       		.byte	0x51
 1761 0729 02       		.uleb128 0x2
 1762 072a 91       		.byte	0x91
 1763 072b 68       		.sleb128 -24
 1764 072c 21       		.uleb128 0x21
 1765 072d 01       		.uleb128 0x1
 1766 072e 50       		.byte	0x50
 1767 072f 05       		.uleb128 0x5
 1768 0730 03       		.byte	0x3
 1769 0731 00000000 		.4byte	.LANCHOR0
 1770 0735 00       		.byte	0
 1771 0736 20       		.uleb128 0x20
 1772 0737 4C000000 		.4byte	.LVL5
 1773 073b 0B0E0000 		.4byte	0xe0b
 1774 073f 4D070000 		.4byte	0x74d
 1775 0743 21       		.uleb128 0x21
 1776 0744 01       		.uleb128 0x1
 1777 0745 50       		.byte	0x50
 1778 0746 05       		.uleb128 0x5
 1779 0747 03       		.byte	0x3
 1780 0748 00000000 		.4byte	.LANCHOR0
 1781 074c 00       		.byte	0
 1782 074d 20       		.uleb128 0x20
 1783 074e 60000000 		.4byte	.LVL8
 1784 0752 E20D0000 		.4byte	0xde2
 1785 0756 84070000 		.4byte	0x784
 1786 075a 21       		.uleb128 0x21
 1787 075b 01       		.uleb128 0x1
 1788 075c 53       		.byte	0x53
 1789 075d 05       		.uleb128 0x5
 1790 075e 03       		.byte	0x3
 1791 075f 00000000 		.4byte	thread
 1792 0763 21       		.uleb128 0x21
 1793 0764 01       		.uleb128 0x1
 1794 0765 52       		.byte	0x52
 1795 0766 02       		.uleb128 0x2
ARM GAS  /tmp/ccSXLDVe.s 			page 33


 1796 0767 75       		.byte	0x75
 1797 0768 7D       		.sleb128 -3
 1798 0769 21       		.uleb128 0x21
 1799 076a 01       		.uleb128 0x1
 1800 076b 51       		.byte	0x51
 1801 076c 03       		.uleb128 0x3
 1802 076d 0A       		.byte	0xa
 1803 076e 5001     		.2byte	0x150
 1804 0770 21       		.uleb128 0x21
 1805 0771 01       		.uleb128 0x1
 1806 0772 50       		.byte	0x50
 1807 0773 05       		.uleb128 0x5
 1808 0774 03       		.byte	0x3
 1809 0775 00000000 		.4byte	.LANCHOR0
 1810 0779 21       		.uleb128 0x21
 1811 077a 02       		.uleb128 0x2
 1812 077b 7D       		.byte	0x7d
 1813 077c 00       		.sleb128 0
 1814 077d 05       		.uleb128 0x5
 1815 077e 03       		.byte	0x3
 1816 077f 08000000 		.4byte	.LC2
 1817 0783 00       		.byte	0
 1818 0784 20       		.uleb128 0x20
 1819 0785 68000000 		.4byte	.LVL9
 1820 0789 250E0000 		.4byte	0xe25
 1821 078d 98070000 		.4byte	0x798
 1822 0791 21       		.uleb128 0x21
 1823 0792 01       		.uleb128 0x1
 1824 0793 50       		.byte	0x50
 1825 0794 02       		.uleb128 0x2
 1826 0795 76       		.byte	0x76
 1827 0796 00       		.sleb128 0
 1828 0797 00       		.byte	0
 1829 0798 20       		.uleb128 0x20
 1830 0799 7C000000 		.4byte	.LVL10
 1831 079d 360E0000 		.4byte	0xe36
 1832 07a1 AB070000 		.4byte	0x7ab
 1833 07a5 21       		.uleb128 0x21
 1834 07a6 01       		.uleb128 0x1
 1835 07a7 50       		.byte	0x50
 1836 07a8 01       		.uleb128 0x1
 1837 07a9 31       		.byte	0x31
 1838 07aa 00       		.byte	0
 1839 07ab 22       		.uleb128 0x22
 1840 07ac 86000000 		.4byte	.LVL12
 1841 07b0 500E0000 		.4byte	0xe50
 1842 07b4 20       		.uleb128 0x20
 1843 07b5 8E000000 		.4byte	.LVL13
 1844 07b9 570E0000 		.4byte	0xe57
 1845 07bd D0070000 		.4byte	0x7d0
 1846 07c1 21       		.uleb128 0x21
 1847 07c2 01       		.uleb128 0x1
 1848 07c3 51       		.byte	0x51
 1849 07c4 05       		.uleb128 0x5
 1850 07c5 03       		.byte	0x3
 1851 07c6 0C000000 		.4byte	.LC3
 1852 07ca 21       		.uleb128 0x21
ARM GAS  /tmp/ccSXLDVe.s 			page 34


 1853 07cb 01       		.uleb128 0x1
 1854 07cc 50       		.byte	0x50
 1855 07cd 01       		.uleb128 0x1
 1856 07ce 32       		.byte	0x32
 1857 07cf 00       		.byte	0
 1858 07d0 20       		.uleb128 0x20
 1859 07d1 9A000000 		.4byte	.LVL14
 1860 07d5 C20D0000 		.4byte	0xdc2
 1861 07d9 ED070000 		.4byte	0x7ed
 1862 07dd 21       		.uleb128 0x21
 1863 07de 01       		.uleb128 0x1
 1864 07df 51       		.byte	0x51
 1865 07e0 02       		.uleb128 0x2
 1866 07e1 91       		.byte	0x91
 1867 07e2 68       		.sleb128 -24
 1868 07e3 21       		.uleb128 0x21
 1869 07e4 01       		.uleb128 0x1
 1870 07e5 50       		.byte	0x50
 1871 07e6 05       		.uleb128 0x5
 1872 07e7 03       		.byte	0x3
 1873 07e8 00000000 		.4byte	.LANCHOR0
 1874 07ec 00       		.byte	0
 1875 07ed 20       		.uleb128 0x20
 1876 07ee AA000000 		.4byte	.LVL15
 1877 07f2 360E0000 		.4byte	0xe36
 1878 07f6 00080000 		.4byte	0x800
 1879 07fa 21       		.uleb128 0x21
 1880 07fb 01       		.uleb128 0x1
 1881 07fc 50       		.byte	0x50
 1882 07fd 01       		.uleb128 0x1
 1883 07fe 33       		.byte	0x33
 1884 07ff 00       		.byte	0
 1885 0800 23       		.uleb128 0x23
 1886 0801 C0000000 		.4byte	.LVL16
 1887 0805 360E0000 		.4byte	0xe36
 1888 0809 21       		.uleb128 0x21
 1889 080a 01       		.uleb128 0x1
 1890 080b 50       		.byte	0x50
 1891 080c 01       		.uleb128 0x1
 1892 080d 34       		.byte	0x34
 1893 080e 00       		.byte	0
 1894 080f 00       		.byte	0
 1895 0810 24       		.uleb128 0x24
 1896 0811 27040000 		.4byte	.LASF102
 1897 0815 01       		.byte	0x1
 1898 0816 47       		.byte	0x47
 1899 0817 13010000 		.4byte	0x113
 1900 081b 00000000 		.4byte	.LFB7
 1901 081f 0C000000 		.4byte	.LFE7-.LFB7
 1902 0823 01       		.uleb128 0x1
 1903 0824 9C       		.byte	0x9c
 1904 0825 40080000 		.4byte	0x840
 1905 0829 25       		.uleb128 0x25
 1906 082a 7000     		.ascii	"p\000"
 1907 082c 01       		.byte	0x1
 1908 082d 47       		.byte	0x47
 1909 082e 99020000 		.4byte	0x299
ARM GAS  /tmp/ccSXLDVe.s 			page 35


 1910 0832 1E000000 		.4byte	.LLST1
 1911 0836 22       		.uleb128 0x22
 1912 0837 08000000 		.4byte	.LVL19
 1913 083b 770E0000 		.4byte	0xe77
 1914 083f 00       		.byte	0
 1915 0840 1C       		.uleb128 0x1c
 1916 0841 B9010000 		.4byte	.LASF98
 1917 0845 01       		.byte	0x1
 1918 0846 4E       		.byte	0x4e
 1919 0847 00000000 		.4byte	.LFB8
 1920 084b 14000000 		.4byte	.LFE8-.LFB8
 1921 084f 01       		.uleb128 0x1
 1922 0850 9C       		.byte	0x9c
 1923 0851 70080000 		.4byte	0x870
 1924 0855 26       		.uleb128 0x26
 1925 0856 0C000000 		.4byte	.LVL20
 1926 085a 880E0000 		.4byte	0xe88
 1927 085e 21       		.uleb128 0x21
 1928 085f 01       		.uleb128 0x1
 1929 0860 52       		.byte	0x52
 1930 0861 03       		.uleb128 0x3
 1931 0862 0A       		.byte	0xa
 1932 0863 9006     		.2byte	0x690
 1933 0865 21       		.uleb128 0x21
 1934 0866 01       		.uleb128 0x1
 1935 0867 50       		.byte	0x50
 1936 0868 05       		.uleb128 0x5
 1937 0869 03       		.byte	0x3
 1938 086a 00000000 		.4byte	.LANCHOR0
 1939 086e 00       		.byte	0
 1940 086f 00       		.byte	0
 1941 0870 1C       		.uleb128 0x1c
 1942 0871 16050000 		.4byte	.LASF99
 1943 0875 01       		.byte	0x1
 1944 0876 CB       		.byte	0xcb
 1945 0877 00000000 		.4byte	.LFB13
 1946 087b 14000000 		.4byte	.LFE13-.LFB13
 1947 087f 01       		.uleb128 0x1
 1948 0880 9C       		.byte	0x9c
 1949 0881 A0080000 		.4byte	0x8a0
 1950 0885 26       		.uleb128 0x26
 1951 0886 0C000000 		.4byte	.LVL21
 1952 088a 880E0000 		.4byte	0xe88
 1953 088e 21       		.uleb128 0x21
 1954 088f 01       		.uleb128 0x1
 1955 0890 52       		.byte	0x52
 1956 0891 03       		.uleb128 0x3
 1957 0892 0A       		.byte	0xa
 1958 0893 9006     		.2byte	0x690
 1959 0895 21       		.uleb128 0x21
 1960 0896 01       		.uleb128 0x1
 1961 0897 50       		.byte	0x50
 1962 0898 05       		.uleb128 0x5
 1963 0899 03       		.byte	0x3
 1964 089a 00000000 		.4byte	.LANCHOR0
 1965 089e 00       		.byte	0
 1966 089f 00       		.byte	0
ARM GAS  /tmp/ccSXLDVe.s 			page 36


 1967 08a0 1C       		.uleb128 0x1c
 1968 08a1 E9010000 		.4byte	.LASF100
 1969 08a5 01       		.byte	0x1
 1970 08a6 8D       		.byte	0x8d
 1971 08a7 00000000 		.4byte	.LFB11
 1972 08ab F4000000 		.4byte	.LFE11-.LFB11
 1973 08af 01       		.uleb128 0x1
 1974 08b0 9C       		.byte	0x9c
 1975 08b1 5C0A0000 		.4byte	0xa5c
 1976 08b5 1E       		.uleb128 0x1e
 1977 08b6 6900     		.ascii	"i\000"
 1978 08b8 01       		.byte	0x1
 1979 08b9 8E       		.byte	0x8e
 1980 08ba 21000000 		.4byte	0x21
 1981 08be 3F000000 		.4byte	.LLST2
 1982 08c2 27       		.uleb128 0x27
 1983 08c3 15000000 		.4byte	.LASF96
 1984 08c7 01       		.byte	0x1
 1985 08c8 8F       		.byte	0x8f
 1986 08c9 08010000 		.4byte	0x108
 1987 08cd 80000000 		.4byte	.LLST3
 1988 08d1 20       		.uleb128 0x20
 1989 08d2 18000000 		.4byte	.LVL24
 1990 08d6 A30E0000 		.4byte	0xea3
 1991 08da E8080000 		.4byte	0x8e8
 1992 08de 21       		.uleb128 0x21
 1993 08df 01       		.uleb128 0x1
 1994 08e0 50       		.byte	0x50
 1995 08e1 05       		.uleb128 0x5
 1996 08e2 03       		.byte	0x3
 1997 08e3 00000000 		.4byte	.LANCHOR1
 1998 08e7 00       		.byte	0
 1999 08e8 20       		.uleb128 0x20
 2000 08e9 2A000000 		.4byte	.LVL25
 2001 08ed BF0E0000 		.4byte	0xebf
 2002 08f1 17090000 		.4byte	0x917
 2003 08f5 21       		.uleb128 0x21
 2004 08f6 01       		.uleb128 0x1
 2005 08f7 53       		.byte	0x53
 2006 08f8 05       		.uleb128 0x5
 2007 08f9 03       		.byte	0x3
 2008 08fa 00000000 		.4byte	.LC0
 2009 08fe 21       		.uleb128 0x21
 2010 08ff 01       		.uleb128 0x1
 2011 0900 52       		.byte	0x52
 2012 0901 05       		.uleb128 0x5
 2013 0902 03       		.byte	0x3
 2014 0903 00000000 		.4byte	thread
 2015 0907 21       		.uleb128 0x21
 2016 0908 01       		.uleb128 0x1
 2017 0909 51       		.byte	0x51
 2018 090a 02       		.uleb128 0x2
 2019 090b 75       		.byte	0x75
 2020 090c 7F       		.sleb128 -1
 2021 090d 21       		.uleb128 0x21
 2022 090e 01       		.uleb128 0x1
 2023 090f 50       		.byte	0x50
ARM GAS  /tmp/ccSXLDVe.s 			page 37


 2024 0910 05       		.uleb128 0x5
 2025 0911 03       		.byte	0x3
 2026 0912 00000000 		.4byte	.LANCHOR1
 2027 0916 00       		.byte	0
 2028 0917 20       		.uleb128 0x20
 2029 0918 38000000 		.4byte	.LVL26
 2030 091c BF0E0000 		.4byte	0xebf
 2031 0920 46090000 		.4byte	0x946
 2032 0924 21       		.uleb128 0x21
 2033 0925 01       		.uleb128 0x1
 2034 0926 53       		.byte	0x53
 2035 0927 05       		.uleb128 0x5
 2036 0928 03       		.byte	0x3
 2037 0929 04000000 		.4byte	.LC1
 2038 092d 21       		.uleb128 0x21
 2039 092e 01       		.uleb128 0x1
 2040 092f 52       		.byte	0x52
 2041 0930 05       		.uleb128 0x5
 2042 0931 03       		.byte	0x3
 2043 0932 00000000 		.4byte	thread
 2044 0936 21       		.uleb128 0x21
 2045 0937 01       		.uleb128 0x1
 2046 0938 51       		.byte	0x51
 2047 0939 02       		.uleb128 0x2
 2048 093a 75       		.byte	0x75
 2049 093b 7E       		.sleb128 -2
 2050 093c 21       		.uleb128 0x21
 2051 093d 01       		.uleb128 0x1
 2052 093e 50       		.byte	0x50
 2053 093f 05       		.uleb128 0x5
 2054 0940 03       		.byte	0x3
 2055 0941 00000000 		.4byte	.LANCHOR1
 2056 0945 00       		.byte	0
 2057 0946 20       		.uleb128 0x20
 2058 0947 46000000 		.4byte	.LVL27
 2059 094b BF0E0000 		.4byte	0xebf
 2060 094f 75090000 		.4byte	0x975
 2061 0953 21       		.uleb128 0x21
 2062 0954 01       		.uleb128 0x1
 2063 0955 53       		.byte	0x53
 2064 0956 05       		.uleb128 0x5
 2065 0957 03       		.byte	0x3
 2066 0958 08000000 		.4byte	.LC2
 2067 095c 21       		.uleb128 0x21
 2068 095d 01       		.uleb128 0x1
 2069 095e 52       		.byte	0x52
 2070 095f 05       		.uleb128 0x5
 2071 0960 03       		.byte	0x3
 2072 0961 00000000 		.4byte	thread
 2073 0965 21       		.uleb128 0x21
 2074 0966 01       		.uleb128 0x1
 2075 0967 51       		.byte	0x51
 2076 0968 02       		.uleb128 0x2
 2077 0969 75       		.byte	0x75
 2078 096a 7D       		.sleb128 -3
 2079 096b 21       		.uleb128 0x21
 2080 096c 01       		.uleb128 0x1
ARM GAS  /tmp/ccSXLDVe.s 			page 38


 2081 096d 50       		.byte	0x50
 2082 096e 05       		.uleb128 0x5
 2083 096f 03       		.byte	0x3
 2084 0970 00000000 		.4byte	.LANCHOR1
 2085 0974 00       		.byte	0
 2086 0975 20       		.uleb128 0x20
 2087 0976 54000000 		.4byte	.LVL28
 2088 097a BF0E0000 		.4byte	0xebf
 2089 097e A4090000 		.4byte	0x9a4
 2090 0982 21       		.uleb128 0x21
 2091 0983 01       		.uleb128 0x1
 2092 0984 53       		.byte	0x53
 2093 0985 05       		.uleb128 0x5
 2094 0986 03       		.byte	0x3
 2095 0987 10000000 		.4byte	.LC4
 2096 098b 21       		.uleb128 0x21
 2097 098c 01       		.uleb128 0x1
 2098 098d 52       		.byte	0x52
 2099 098e 05       		.uleb128 0x5
 2100 098f 03       		.byte	0x3
 2101 0990 00000000 		.4byte	thread
 2102 0994 21       		.uleb128 0x21
 2103 0995 01       		.uleb128 0x1
 2104 0996 51       		.byte	0x51
 2105 0997 02       		.uleb128 0x2
 2106 0998 75       		.byte	0x75
 2107 0999 7C       		.sleb128 -4
 2108 099a 21       		.uleb128 0x21
 2109 099b 01       		.uleb128 0x1
 2110 099c 50       		.byte	0x50
 2111 099d 05       		.uleb128 0x5
 2112 099e 03       		.byte	0x3
 2113 099f 00000000 		.4byte	.LANCHOR1
 2114 09a3 00       		.byte	0
 2115 09a4 20       		.uleb128 0x20
 2116 09a5 62000000 		.4byte	.LVL29
 2117 09a9 BF0E0000 		.4byte	0xebf
 2118 09ad D3090000 		.4byte	0x9d3
 2119 09b1 21       		.uleb128 0x21
 2120 09b2 01       		.uleb128 0x1
 2121 09b3 53       		.byte	0x53
 2122 09b4 05       		.uleb128 0x5
 2123 09b5 03       		.byte	0x3
 2124 09b6 14000000 		.4byte	.LC5
 2125 09ba 21       		.uleb128 0x21
 2126 09bb 01       		.uleb128 0x1
 2127 09bc 52       		.byte	0x52
 2128 09bd 05       		.uleb128 0x5
 2129 09be 03       		.byte	0x3
 2130 09bf 00000000 		.4byte	thread
 2131 09c3 21       		.uleb128 0x21
 2132 09c4 01       		.uleb128 0x1
 2133 09c5 51       		.byte	0x51
 2134 09c6 02       		.uleb128 0x2
 2135 09c7 75       		.byte	0x75
 2136 09c8 7B       		.sleb128 -5
 2137 09c9 21       		.uleb128 0x21
ARM GAS  /tmp/ccSXLDVe.s 			page 39


 2138 09ca 01       		.uleb128 0x1
 2139 09cb 50       		.byte	0x50
 2140 09cc 05       		.uleb128 0x5
 2141 09cd 03       		.byte	0x3
 2142 09ce 00000000 		.4byte	.LANCHOR1
 2143 09d2 00       		.byte	0
 2144 09d3 20       		.uleb128 0x20
 2145 09d4 80000000 		.4byte	.LVL30
 2146 09d8 360E0000 		.4byte	0xe36
 2147 09dc E6090000 		.4byte	0x9e6
 2148 09e0 21       		.uleb128 0x21
 2149 09e1 01       		.uleb128 0x1
 2150 09e2 50       		.byte	0x50
 2151 09e3 01       		.uleb128 0x1
 2152 09e4 31       		.byte	0x31
 2153 09e5 00       		.byte	0
 2154 09e6 22       		.uleb128 0x22
 2155 09e7 88000000 		.4byte	.LVL32
 2156 09eb 500E0000 		.4byte	0xe50
 2157 09ef 20       		.uleb128 0x20
 2158 09f0 90000000 		.4byte	.LVL33
 2159 09f4 570E0000 		.4byte	0xe57
 2160 09f8 0B0A0000 		.4byte	0xa0b
 2161 09fc 21       		.uleb128 0x21
 2162 09fd 01       		.uleb128 0x1
 2163 09fe 51       		.byte	0x51
 2164 09ff 05       		.uleb128 0x5
 2165 0a00 03       		.byte	0x3
 2166 0a01 18000000 		.4byte	.LC6
 2167 0a05 21       		.uleb128 0x21
 2168 0a06 01       		.uleb128 0x1
 2169 0a07 50       		.byte	0x50
 2170 0a08 01       		.uleb128 0x1
 2171 0a09 32       		.byte	0x32
 2172 0a0a 00       		.byte	0
 2173 0a0b 20       		.uleb128 0x20
 2174 0a0c 9C000000 		.4byte	.LVL35
 2175 0a10 E30E0000 		.4byte	0xee3
 2176 0a14 220A0000 		.4byte	0xa22
 2177 0a18 21       		.uleb128 0x21
 2178 0a19 01       		.uleb128 0x1
 2179 0a1a 50       		.byte	0x50
 2180 0a1b 05       		.uleb128 0x5
 2181 0a1c 03       		.byte	0x3
 2182 0a1d 00000000 		.4byte	.LANCHOR1
 2183 0a21 00       		.byte	0
 2184 0a22 20       		.uleb128 0x20
 2185 0a23 A8000000 		.4byte	.LVL36
 2186 0a27 360E0000 		.4byte	0xe36
 2187 0a2b 350A0000 		.4byte	0xa35
 2188 0a2f 21       		.uleb128 0x21
 2189 0a30 01       		.uleb128 0x1
 2190 0a31 50       		.byte	0x50
 2191 0a32 01       		.uleb128 0x1
 2192 0a33 33       		.byte	0x33
 2193 0a34 00       		.byte	0
 2194 0a35 20       		.uleb128 0x20
ARM GAS  /tmp/ccSXLDVe.s 			page 40


 2195 0a36 B6000000 		.4byte	.LVL38
 2196 0a3a E30E0000 		.4byte	0xee3
 2197 0a3e 4C0A0000 		.4byte	0xa4c
 2198 0a42 21       		.uleb128 0x21
 2199 0a43 01       		.uleb128 0x1
 2200 0a44 50       		.byte	0x50
 2201 0a45 05       		.uleb128 0x5
 2202 0a46 03       		.byte	0x3
 2203 0a47 00000000 		.4byte	.LANCHOR1
 2204 0a4b 00       		.byte	0
 2205 0a4c 26       		.uleb128 0x26
 2206 0a4d C6000000 		.4byte	.LVL40
 2207 0a51 360E0000 		.4byte	0xe36
 2208 0a55 21       		.uleb128 0x21
 2209 0a56 01       		.uleb128 0x1
 2210 0a57 50       		.byte	0x50
 2211 0a58 01       		.uleb128 0x1
 2212 0a59 34       		.byte	0x34
 2213 0a5a 00       		.byte	0
 2214 0a5b 00       		.byte	0
 2215 0a5c 1C       		.uleb128 0x1c
 2216 0a5d A0000000 		.4byte	.LASF101
 2217 0a61 01       		.byte	0x1
 2218 0a62 88       		.byte	0x88
 2219 0a63 00000000 		.4byte	.LFB10
 2220 0a67 10000000 		.4byte	.LFE10-.LFB10
 2221 0a6b 01       		.uleb128 0x1
 2222 0a6c 9C       		.byte	0x9c
 2223 0a6d 910A0000 		.4byte	0xa91
 2224 0a71 26       		.uleb128 0x26
 2225 0a72 0C000000 		.4byte	.LVL41
 2226 0a76 F80E0000 		.4byte	0xef8
 2227 0a7a 21       		.uleb128 0x21
 2228 0a7b 01       		.uleb128 0x1
 2229 0a7c 52       		.byte	0x52
 2230 0a7d 01       		.uleb128 0x1
 2231 0a7e 30       		.byte	0x30
 2232 0a7f 21       		.uleb128 0x21
 2233 0a80 01       		.uleb128 0x1
 2234 0a81 51       		.byte	0x51
 2235 0a82 03       		.uleb128 0x3
 2236 0a83 0A       		.byte	0xa
 2237 0a84 5001     		.2byte	0x150
 2238 0a86 21       		.uleb128 0x21
 2239 0a87 01       		.uleb128 0x1
 2240 0a88 50       		.byte	0x50
 2241 0a89 05       		.uleb128 0x5
 2242 0a8a 03       		.byte	0x3
 2243 0a8b 00000000 		.4byte	.LANCHOR1
 2244 0a8f 00       		.byte	0
 2245 0a90 00       		.byte	0
 2246 0a91 24       		.uleb128 0x24
 2247 0a92 C5050000 		.4byte	.LASF103
 2248 0a96 01       		.byte	0x1
 2249 0a97 BF       		.byte	0xbf
 2250 0a98 CA000000 		.4byte	0xca
 2251 0a9c 00000000 		.4byte	.LFB12
ARM GAS  /tmp/ccSXLDVe.s 			page 41


 2252 0aa0 24000000 		.4byte	.LFE12-.LFB12
 2253 0aa4 01       		.uleb128 0x1
 2254 0aa5 9C       		.byte	0x9c
 2255 0aa6 E90A0000 		.4byte	0xae9
 2256 0aaa 25       		.uleb128 0x25
 2257 0aab 747000   		.ascii	"tp\000"
 2258 0aae 01       		.byte	0x1
 2259 0aaf BF       		.byte	0xbf
 2260 0ab0 5D020000 		.4byte	0x25d
 2261 0ab4 93000000 		.4byte	.LLST4
 2262 0ab8 1E       		.uleb128 0x1e
 2263 0ab9 66747000 		.ascii	"ftp\000"
 2264 0abd 01       		.byte	0x1
 2265 0abe C0       		.byte	0xc0
 2266 0abf 5D020000 		.4byte	0x25d
 2267 0ac3 B1000000 		.4byte	.LLST5
 2268 0ac7 27       		.uleb128 0x27
 2269 0ac8 95050000 		.4byte	.LASF104
 2270 0acc 01       		.byte	0x1
 2271 0acd C1       		.byte	0xc1
 2272 0ace CA000000 		.4byte	0xca
 2273 0ad2 DA000000 		.4byte	.LLST6
 2274 0ad6 22       		.uleb128 0x22
 2275 0ad7 08000000 		.4byte	.LVL43
 2276 0adb 130F0000 		.4byte	0xf13
 2277 0adf 22       		.uleb128 0x22
 2278 0ae0 1A000000 		.4byte	.LVL46
 2279 0ae4 1E0F0000 		.4byte	0xf1e
 2280 0ae8 00       		.byte	0
 2281 0ae9 1C       		.uleb128 0x1c
 2282 0aea 85030000 		.4byte	.LASF105
 2283 0aee 01       		.byte	0x1
 2284 0aef D0       		.byte	0xd0
 2285 0af0 00000000 		.4byte	.LFB14
 2286 0af4 30010000 		.4byte	.LFE14-.LFB14
 2287 0af8 01       		.uleb128 0x1
 2288 0af9 9C       		.byte	0x9c
 2289 0afa F10C0000 		.4byte	0xcf1
 2290 0afe 1E       		.uleb128 0x1e
 2291 0aff 747000   		.ascii	"tp\000"
 2292 0b02 01       		.byte	0x1
 2293 0b03 D1       		.byte	0xd1
 2294 0b04 5D020000 		.4byte	0x25d
 2295 0b08 F9000000 		.4byte	.LLST7
 2296 0b0c 28       		.uleb128 0x28
 2297 0b0d 15000000 		.4byte	.LASF96
 2298 0b11 01       		.byte	0x1
 2299 0b12 D2       		.byte	0xd2
 2300 0b13 08010000 		.4byte	0x108
 2301 0b17 20       		.uleb128 0x20
 2302 0b18 1C000000 		.4byte	.LVL50
 2303 0b1c E20D0000 		.4byte	0xde2
 2304 0b20 480B0000 		.4byte	0xb48
 2305 0b24 21       		.uleb128 0x21
 2306 0b25 01       		.uleb128 0x1
 2307 0b26 53       		.byte	0x53
 2308 0b27 05       		.uleb128 0x5
ARM GAS  /tmp/ccSXLDVe.s 			page 42


 2309 0b28 03       		.byte	0x3
 2310 0b29 00000000 		.4byte	thread
 2311 0b2d 21       		.uleb128 0x21
 2312 0b2e 01       		.uleb128 0x1
 2313 0b2f 51       		.byte	0x51
 2314 0b30 03       		.uleb128 0x3
 2315 0b31 0A       		.byte	0xa
 2316 0b32 5001     		.2byte	0x150
 2317 0b34 21       		.uleb128 0x21
 2318 0b35 01       		.uleb128 0x1
 2319 0b36 50       		.byte	0x50
 2320 0b37 05       		.uleb128 0x5
 2321 0b38 03       		.byte	0x3
 2322 0b39 00000000 		.4byte	.LANCHOR0
 2323 0b3d 21       		.uleb128 0x21
 2324 0b3e 02       		.uleb128 0x2
 2325 0b3f 7D       		.byte	0x7d
 2326 0b40 00       		.sleb128 0
 2327 0b41 05       		.uleb128 0x5
 2328 0b42 03       		.byte	0x3
 2329 0b43 00000000 		.4byte	.LC0
 2330 0b47 00       		.byte	0
 2331 0b48 20       		.uleb128 0x20
 2332 0b49 2E000000 		.4byte	.LVL53
 2333 0b4d 360E0000 		.4byte	0xe36
 2334 0b51 5B0B0000 		.4byte	0xb5b
 2335 0b55 21       		.uleb128 0x21
 2336 0b56 01       		.uleb128 0x1
 2337 0b57 50       		.byte	0x50
 2338 0b58 01       		.uleb128 0x1
 2339 0b59 31       		.byte	0x31
 2340 0b5a 00       		.byte	0
 2341 0b5b 20       		.uleb128 0x20
 2342 0b5c 3A000000 		.4byte	.LVL55
 2343 0b60 330F0000 		.4byte	0xf33
 2344 0b64 6F0B0000 		.4byte	0xb6f
 2345 0b68 21       		.uleb128 0x21
 2346 0b69 01       		.uleb128 0x1
 2347 0b6a 50       		.byte	0x50
 2348 0b6b 02       		.uleb128 0x2
 2349 0b6c 74       		.byte	0x74
 2350 0b6d 00       		.sleb128 0
 2351 0b6e 00       		.byte	0
 2352 0b6f 20       		.uleb128 0x20
 2353 0b70 4A000000 		.4byte	.LVL56
 2354 0b74 360E0000 		.4byte	0xe36
 2355 0b78 820B0000 		.4byte	0xb82
 2356 0b7c 21       		.uleb128 0x21
 2357 0b7d 01       		.uleb128 0x1
 2358 0b7e 50       		.byte	0x50
 2359 0b7f 01       		.uleb128 0x1
 2360 0b80 32       		.byte	0x32
 2361 0b81 00       		.byte	0
 2362 0b82 20       		.uleb128 0x20
 2363 0b83 54000000 		.4byte	.LVL57
 2364 0b87 480F0000 		.4byte	0xf48
 2365 0b8b 960B0000 		.4byte	0xb96
ARM GAS  /tmp/ccSXLDVe.s 			page 43


 2366 0b8f 21       		.uleb128 0x21
 2367 0b90 01       		.uleb128 0x1
 2368 0b91 50       		.byte	0x50
 2369 0b92 02       		.uleb128 0x2
 2370 0b93 74       		.byte	0x74
 2371 0b94 00       		.sleb128 0
 2372 0b95 00       		.byte	0
 2373 0b96 20       		.uleb128 0x20
 2374 0b97 66000000 		.4byte	.LVL58
 2375 0b9b 360E0000 		.4byte	0xe36
 2376 0b9f A90B0000 		.4byte	0xba9
 2377 0ba3 21       		.uleb128 0x21
 2378 0ba4 01       		.uleb128 0x1
 2379 0ba5 50       		.byte	0x50
 2380 0ba6 01       		.uleb128 0x1
 2381 0ba7 33       		.byte	0x33
 2382 0ba8 00       		.byte	0
 2383 0ba9 20       		.uleb128 0x20
 2384 0baa 70000000 		.4byte	.LVL59
 2385 0bae 910A0000 		.4byte	0xa91
 2386 0bb2 BD0B0000 		.4byte	0xbbd
 2387 0bb6 21       		.uleb128 0x21
 2388 0bb7 01       		.uleb128 0x1
 2389 0bb8 50       		.byte	0x50
 2390 0bb9 02       		.uleb128 0x2
 2391 0bba 74       		.byte	0x74
 2392 0bbb 00       		.sleb128 0
 2393 0bbc 00       		.byte	0
 2394 0bbd 20       		.uleb128 0x20
 2395 0bbe 78000000 		.4byte	.LVL60
 2396 0bc2 360E0000 		.4byte	0xe36
 2397 0bc6 D00B0000 		.4byte	0xbd0
 2398 0bca 21       		.uleb128 0x21
 2399 0bcb 01       		.uleb128 0x1
 2400 0bcc 50       		.byte	0x50
 2401 0bcd 01       		.uleb128 0x1
 2402 0bce 34       		.byte	0x34
 2403 0bcf 00       		.byte	0
 2404 0bd0 20       		.uleb128 0x20
 2405 0bd1 82000000 		.4byte	.LVL61
 2406 0bd5 910A0000 		.4byte	0xa91
 2407 0bd9 E40B0000 		.4byte	0xbe4
 2408 0bdd 21       		.uleb128 0x21
 2409 0bde 01       		.uleb128 0x1
 2410 0bdf 50       		.byte	0x50
 2411 0be0 02       		.uleb128 0x2
 2412 0be1 74       		.byte	0x74
 2413 0be2 00       		.sleb128 0
 2414 0be3 00       		.byte	0
 2415 0be4 20       		.uleb128 0x20
 2416 0be5 8A000000 		.4byte	.LVL62
 2417 0be9 360E0000 		.4byte	0xe36
 2418 0bed F70B0000 		.4byte	0xbf7
 2419 0bf1 21       		.uleb128 0x21
 2420 0bf2 01       		.uleb128 0x1
 2421 0bf3 50       		.byte	0x50
 2422 0bf4 01       		.uleb128 0x1
ARM GAS  /tmp/ccSXLDVe.s 			page 44


 2423 0bf5 35       		.byte	0x35
 2424 0bf6 00       		.byte	0
 2425 0bf7 20       		.uleb128 0x20
 2426 0bf8 94000000 		.4byte	.LVL63
 2427 0bfc 480F0000 		.4byte	0xf48
 2428 0c00 0B0C0000 		.4byte	0xc0b
 2429 0c04 21       		.uleb128 0x21
 2430 0c05 01       		.uleb128 0x1
 2431 0c06 50       		.byte	0x50
 2432 0c07 02       		.uleb128 0x2
 2433 0c08 74       		.byte	0x74
 2434 0c09 00       		.sleb128 0
 2435 0c0a 00       		.byte	0
 2436 0c0b 20       		.uleb128 0x20
 2437 0c0c A2000000 		.4byte	.LVL64
 2438 0c10 360E0000 		.4byte	0xe36
 2439 0c14 1E0C0000 		.4byte	0xc1e
 2440 0c18 21       		.uleb128 0x21
 2441 0c19 01       		.uleb128 0x1
 2442 0c1a 50       		.byte	0x50
 2443 0c1b 01       		.uleb128 0x1
 2444 0c1c 36       		.byte	0x36
 2445 0c1d 00       		.byte	0
 2446 0c1e 20       		.uleb128 0x20
 2447 0c1f B4000000 		.4byte	.LVL65
 2448 0c23 360E0000 		.4byte	0xe36
 2449 0c27 310C0000 		.4byte	0xc31
 2450 0c2b 21       		.uleb128 0x21
 2451 0c2c 01       		.uleb128 0x1
 2452 0c2d 50       		.byte	0x50
 2453 0c2e 01       		.uleb128 0x1
 2454 0c2f 37       		.byte	0x37
 2455 0c30 00       		.byte	0
 2456 0c31 20       		.uleb128 0x20
 2457 0c32 BE000000 		.4byte	.LVL66
 2458 0c36 910A0000 		.4byte	0xa91
 2459 0c3a 450C0000 		.4byte	0xc45
 2460 0c3e 21       		.uleb128 0x21
 2461 0c3f 01       		.uleb128 0x1
 2462 0c40 50       		.byte	0x50
 2463 0c41 02       		.uleb128 0x2
 2464 0c42 74       		.byte	0x74
 2465 0c43 00       		.sleb128 0
 2466 0c44 00       		.byte	0
 2467 0c45 20       		.uleb128 0x20
 2468 0c46 C6000000 		.4byte	.LVL67
 2469 0c4a 360E0000 		.4byte	0xe36
 2470 0c4e 580C0000 		.4byte	0xc58
 2471 0c52 21       		.uleb128 0x21
 2472 0c53 01       		.uleb128 0x1
 2473 0c54 50       		.byte	0x50
 2474 0c55 01       		.uleb128 0x1
 2475 0c56 38       		.byte	0x38
 2476 0c57 00       		.byte	0
 2477 0c58 20       		.uleb128 0x20
 2478 0c59 D0000000 		.4byte	.LVL68
 2479 0c5d 910A0000 		.4byte	0xa91
ARM GAS  /tmp/ccSXLDVe.s 			page 45


 2480 0c61 6C0C0000 		.4byte	0xc6c
 2481 0c65 21       		.uleb128 0x21
 2482 0c66 01       		.uleb128 0x1
 2483 0c67 50       		.byte	0x50
 2484 0c68 02       		.uleb128 0x2
 2485 0c69 74       		.byte	0x74
 2486 0c6a 00       		.sleb128 0
 2487 0c6b 00       		.byte	0
 2488 0c6c 20       		.uleb128 0x20
 2489 0c6d D8000000 		.4byte	.LVL69
 2490 0c71 360E0000 		.4byte	0xe36
 2491 0c75 7F0C0000 		.4byte	0xc7f
 2492 0c79 21       		.uleb128 0x21
 2493 0c7a 01       		.uleb128 0x1
 2494 0c7b 50       		.byte	0x50
 2495 0c7c 01       		.uleb128 0x1
 2496 0c7d 39       		.byte	0x39
 2497 0c7e 00       		.byte	0
 2498 0c7f 20       		.uleb128 0x20
 2499 0c80 E2000000 		.4byte	.LVL70
 2500 0c84 590F0000 		.4byte	0xf59
 2501 0c88 930C0000 		.4byte	0xc93
 2502 0c8c 21       		.uleb128 0x21
 2503 0c8d 01       		.uleb128 0x1
 2504 0c8e 50       		.byte	0x50
 2505 0c8f 02       		.uleb128 0x2
 2506 0c90 08       		.byte	0x8
 2507 0c91 32       		.byte	0x32
 2508 0c92 00       		.byte	0
 2509 0c93 20       		.uleb128 0x20
 2510 0c94 F2000000 		.4byte	.LVL71
 2511 0c98 360E0000 		.4byte	0xe36
 2512 0c9c A60C0000 		.4byte	0xca6
 2513 0ca0 21       		.uleb128 0x21
 2514 0ca1 01       		.uleb128 0x1
 2515 0ca2 50       		.byte	0x50
 2516 0ca3 01       		.uleb128 0x1
 2517 0ca4 3A       		.byte	0x3a
 2518 0ca5 00       		.byte	0
 2519 0ca6 20       		.uleb128 0x20
 2520 0ca7 FC000000 		.4byte	.LVL72
 2521 0cab 910A0000 		.4byte	0xa91
 2522 0caf BA0C0000 		.4byte	0xcba
 2523 0cb3 21       		.uleb128 0x21
 2524 0cb4 01       		.uleb128 0x1
 2525 0cb5 50       		.byte	0x50
 2526 0cb6 02       		.uleb128 0x2
 2527 0cb7 74       		.byte	0x74
 2528 0cb8 00       		.sleb128 0
 2529 0cb9 00       		.byte	0
 2530 0cba 20       		.uleb128 0x20
 2531 0cbb 04010000 		.4byte	.LVL73
 2532 0cbf 360E0000 		.4byte	0xe36
 2533 0cc3 CD0C0000 		.4byte	0xccd
 2534 0cc7 21       		.uleb128 0x21
 2535 0cc8 01       		.uleb128 0x1
 2536 0cc9 50       		.byte	0x50
ARM GAS  /tmp/ccSXLDVe.s 			page 46


 2537 0cca 01       		.uleb128 0x1
 2538 0ccb 3B       		.byte	0x3b
 2539 0ccc 00       		.byte	0
 2540 0ccd 20       		.uleb128 0x20
 2541 0cce 0E010000 		.4byte	.LVL74
 2542 0cd2 910A0000 		.4byte	0xa91
 2543 0cd6 E10C0000 		.4byte	0xce1
 2544 0cda 21       		.uleb128 0x21
 2545 0cdb 01       		.uleb128 0x1
 2546 0cdc 50       		.byte	0x50
 2547 0cdd 02       		.uleb128 0x2
 2548 0cde 74       		.byte	0x74
 2549 0cdf 00       		.sleb128 0
 2550 0ce0 00       		.byte	0
 2551 0ce1 26       		.uleb128 0x26
 2552 0ce2 20010000 		.4byte	.LVL76
 2553 0ce6 360E0000 		.4byte	0xe36
 2554 0cea 21       		.uleb128 0x21
 2555 0ceb 01       		.uleb128 0x1
 2556 0cec 50       		.byte	0x50
 2557 0ced 01       		.uleb128 0x1
 2558 0cee 3C       		.byte	0x3c
 2559 0cef 00       		.byte	0
 2560 0cf0 00       		.byte	0
 2561 0cf1 1F       		.uleb128 0x1f
 2562 0cf2 25060000 		.4byte	.LASF106
 2563 0cf6 01       		.byte	0x1
 2564 0cf7 36       		.byte	0x36
 2565 0cf8 0D040000 		.4byte	0x40d
 2566 0cfc 05       		.uleb128 0x5
 2567 0cfd 03       		.byte	0x3
 2568 0cfe 00000000 		.4byte	heap1
 2569 0d02 1D       		.uleb128 0x1d
 2570 0d03 6D703100 		.ascii	"mp1\000"
 2571 0d07 01       		.byte	0x1
 2572 0d08 39       		.byte	0x39
 2573 0d09 00050000 		.4byte	0x500
 2574 0d0d 05       		.uleb128 0x5
 2575 0d0e 03       		.byte	0x3
 2576 0d0f 00000000 		.4byte	mp1
 2577 0d13 29       		.uleb128 0x29
 2578 0d14 CD050000 		.4byte	.LASF107
 2579 0d18 09       		.byte	0x9
 2580 0d19 6F       		.byte	0x6f
 2581 0d1a A0030000 		.4byte	0x3a0
 2582 0d1e 18       		.uleb128 0x18
 2583 0d1f 5D020000 		.4byte	0x25d
 2584 0d23 2E0D0000 		.4byte	0xd2e
 2585 0d27 19       		.uleb128 0x19
 2586 0d28 43030000 		.4byte	0x343
 2587 0d2c 04       		.byte	0x4
 2588 0d2d 00       		.byte	0
 2589 0d2e 29       		.uleb128 0x29
 2590 0d2f 7B040000 		.4byte	.LASF108
 2591 0d33 0E       		.byte	0xe
 2592 0d34 A5       		.byte	0xa5
 2593 0d35 1E0D0000 		.4byte	0xd1e
ARM GAS  /tmp/ccSXLDVe.s 			page 47


 2594 0d39 29       		.uleb128 0x29
 2595 0d3a 73000000 		.4byte	.LASF109
 2596 0d3e 0E       		.byte	0xe
 2597 0d3f A6       		.byte	0xa6
 2598 0d40 11060000 		.4byte	0x611
 2599 0d44 18       		.uleb128 0x18
 2600 0d45 99020000 		.4byte	0x299
 2601 0d49 4F0D0000 		.4byte	0xd4f
 2602 0d4d 2A       		.uleb128 0x2a
 2603 0d4e 00       		.byte	0
 2604 0d4f 2B       		.uleb128 0x2b
 2605 0d50 776100   		.ascii	"wa\000"
 2606 0d53 0E       		.byte	0xe
 2607 0d54 A7       		.byte	0xa7
 2608 0d55 590D0000 		.4byte	0xd59
 2609 0d59 14       		.uleb128 0x14
 2610 0d5a 440D0000 		.4byte	0xd44
 2611 0d5e 2C       		.uleb128 0x2c
 2612 0d5f 6A030000 		.4byte	.LASF110
 2613 0d63 01       		.byte	0x1
 2614 0d64 75       		.byte	0x75
 2615 0d65 6F0D0000 		.4byte	0xd6f
 2616 0d69 05       		.uleb128 0x5
 2617 0d6a 03       		.byte	0x3
 2618 0d6b 00000000 		.4byte	testdyn1
 2619 0d6f 14       		.uleb128 0x14
 2620 0d70 78050000 		.4byte	0x578
 2621 0d74 2C       		.uleb128 0x2c
 2622 0d75 73030000 		.4byte	.LASF111
 2623 0d79 01       		.byte	0x1
 2624 0d7a AD       		.byte	0xad
 2625 0d7b 6F0D0000 		.4byte	0xd6f
 2626 0d7f 05       		.uleb128 0x5
 2627 0d80 03       		.byte	0x3
 2628 0d81 00000000 		.4byte	testdyn2
 2629 0d85 2C       		.uleb128 0x2c
 2630 0d86 7C030000 		.4byte	.LASF112
 2631 0d8a 01       		.byte	0x1
 2632 0d8b EE       		.byte	0xee
 2633 0d8c 6F0D0000 		.4byte	0xd6f
 2634 0d90 05       		.uleb128 0x5
 2635 0d91 03       		.byte	0x3
 2636 0d92 00000000 		.4byte	testdyn3
 2637 0d96 18       		.uleb128 0x18
 2638 0d97 A60D0000 		.4byte	0xda6
 2639 0d9b A60D0000 		.4byte	0xda6
 2640 0d9f 19       		.uleb128 0x19
 2641 0da0 43030000 		.4byte	0x343
 2642 0da4 03       		.byte	0x3
 2643 0da5 00       		.byte	0
 2644 0da6 09       		.uleb128 0x9
 2645 0da7 04       		.byte	0x4
 2646 0da8 6F0D0000 		.4byte	0xd6f
 2647 0dac 2C       		.uleb128 0x2c
 2648 0dad 66050000 		.4byte	.LASF113
 2649 0db1 01       		.byte	0x1
 2650 0db2 FA       		.byte	0xfa
ARM GAS  /tmp/ccSXLDVe.s 			page 48


 2651 0db3 BD0D0000 		.4byte	0xdbd
 2652 0db7 05       		.uleb128 0x5
 2653 0db8 03       		.byte	0x3
 2654 0db9 00000000 		.4byte	patterndyn
 2655 0dbd 14       		.uleb128 0x14
 2656 0dbe 960D0000 		.4byte	0xd96
 2657 0dc2 2D       		.uleb128 0x2d
 2658 0dc3 21050000 		.4byte	.LASF114
 2659 0dc7 0C       		.byte	0xc
 2660 0dc8 5B       		.byte	0x5b
 2661 0dc9 28000000 		.4byte	0x28
 2662 0dcd DC0D0000 		.4byte	0xddc
 2663 0dd1 0F       		.uleb128 0xf
 2664 0dd2 8F040000 		.4byte	0x48f
 2665 0dd6 0F       		.uleb128 0xf
 2666 0dd7 DC0D0000 		.4byte	0xddc
 2667 0ddb 00       		.byte	0
 2668 0ddc 09       		.uleb128 0x9
 2669 0ddd 04       		.byte	0x4
 2670 0dde 28000000 		.4byte	0x28
 2671 0de2 2D       		.uleb128 0x2d
 2672 0de3 10010000 		.4byte	.LASF115
 2673 0de7 0F       		.byte	0xf
 2674 0de8 3C       		.byte	0x3c
 2675 0de9 5D020000 		.4byte	0x25d
 2676 0ded 0B0E0000 		.4byte	0xe0b
 2677 0df1 0F       		.uleb128 0xf
 2678 0df2 8F040000 		.4byte	0x48f
 2679 0df6 0F       		.uleb128 0xf
 2680 0df7 28000000 		.4byte	0x28
 2681 0dfb 0F       		.uleb128 0xf
 2682 0dfc 08010000 		.4byte	0x108
 2683 0e00 0F       		.uleb128 0xf
 2684 0e01 58050000 		.4byte	0x558
 2685 0e05 0F       		.uleb128 0xf
 2686 0e06 99020000 		.4byte	0x299
 2687 0e0a 00       		.byte	0
 2688 0e0b 2D       		.uleb128 0x2d
 2689 0e0c C0040000 		.4byte	.LASF116
 2690 0e10 0C       		.byte	0xc
 2691 0e11 59       		.byte	0x59
 2692 0e12 99020000 		.4byte	0x299
 2693 0e16 250E0000 		.4byte	0xe25
 2694 0e1a 0F       		.uleb128 0xf
 2695 0e1b 8F040000 		.4byte	0x48f
 2696 0e1f 0F       		.uleb128 0xf
 2697 0e20 28000000 		.4byte	0x28
 2698 0e24 00       		.byte	0
 2699 0e25 2E       		.uleb128 0x2e
 2700 0e26 F2000000 		.4byte	.LASF119
 2701 0e2a 0C       		.byte	0xc
 2702 0e2b 5A       		.byte	0x5a
 2703 0e2c 360E0000 		.4byte	0xe36
 2704 0e30 0F       		.uleb128 0xf
 2705 0e31 99020000 		.4byte	0x299
 2706 0e35 00       		.byte	0
 2707 0e36 2D       		.uleb128 0x2d
ARM GAS  /tmp/ccSXLDVe.s 			page 49


 2708 0e37 00060000 		.4byte	.LASF117
 2709 0e3b 0E       		.byte	0xe
 2710 0e3c 58       		.byte	0x58
 2711 0e3d CA000000 		.4byte	0xca
 2712 0e41 500E0000 		.4byte	0xe50
 2713 0e45 0F       		.uleb128 0xf
 2714 0e46 33000000 		.4byte	0x33
 2715 0e4a 0F       		.uleb128 0xf
 2716 0e4b CA000000 		.4byte	0xca
 2717 0e4f 00       		.byte	0
 2718 0e50 2F       		.uleb128 0x2f
 2719 0e51 2E050000 		.4byte	.LASF131
 2720 0e55 0E       		.byte	0xe
 2721 0e56 5C       		.byte	0x5c
 2722 0e57 2D       		.uleb128 0x2d
 2723 0e58 C2030000 		.4byte	.LASF118
 2724 0e5c 0E       		.byte	0xe
 2725 0e5d 59       		.byte	0x59
 2726 0e5e CA000000 		.4byte	0xca
 2727 0e62 710E0000 		.4byte	0xe71
 2728 0e66 0F       		.uleb128 0xf
 2729 0e67 33000000 		.4byte	0x33
 2730 0e6b 0F       		.uleb128 0xf
 2731 0e6c 710E0000 		.4byte	0xe71
 2732 0e70 00       		.byte	0
 2733 0e71 09       		.uleb128 0x9
 2734 0e72 04       		.byte	0x4
 2735 0e73 4B050000 		.4byte	0x54b
 2736 0e77 2E       		.uleb128 0x2e
 2737 0e78 E2000000 		.4byte	.LASF120
 2738 0e7c 0E       		.byte	0xe
 2739 0e7d 56       		.byte	0x56
 2740 0e7e 880E0000 		.4byte	0xe88
 2741 0e82 0F       		.uleb128 0xf
 2742 0e83 4B050000 		.4byte	0x54b
 2743 0e87 00       		.byte	0
 2744 0e88 2E       		.uleb128 0x2e
 2745 0e89 89000000 		.4byte	.LASF121
 2746 0e8d 0C       		.byte	0xc
 2747 0e8e 57       		.byte	0x57
 2748 0e8f A30E0000 		.4byte	0xea3
 2749 0e93 0F       		.uleb128 0xf
 2750 0e94 8F040000 		.4byte	0x48f
 2751 0e98 0F       		.uleb128 0xf
 2752 0e99 99020000 		.4byte	0x299
 2753 0e9d 0F       		.uleb128 0xf
 2754 0e9e 28000000 		.4byte	0x28
 2755 0ea2 00       		.byte	0
 2756 0ea3 2E       		.uleb128 0x2e
 2757 0ea4 E7050000 		.4byte	.LASF122
 2758 0ea8 0D       		.byte	0xd
 2759 0ea9 84       		.byte	0x84
 2760 0eaa B90E0000 		.4byte	0xeb9
 2761 0eae 0F       		.uleb128 0xf
 2762 0eaf B90E0000 		.4byte	0xeb9
 2763 0eb3 0F       		.uleb128 0xf
 2764 0eb4 99020000 		.4byte	0x299
ARM GAS  /tmp/ccSXLDVe.s 			page 50


 2765 0eb8 00       		.byte	0
 2766 0eb9 09       		.uleb128 0x9
 2767 0eba 04       		.byte	0x4
 2768 0ebb 00050000 		.4byte	0x500
 2769 0ebf 2D       		.uleb128 0x2d
 2770 0ec0 51010000 		.4byte	.LASF123
 2771 0ec4 0F       		.byte	0xf
 2772 0ec5 40       		.byte	0x40
 2773 0ec6 5D020000 		.4byte	0x25d
 2774 0eca E30E0000 		.4byte	0xee3
 2775 0ece 0F       		.uleb128 0xf
 2776 0ecf B90E0000 		.4byte	0xeb9
 2777 0ed3 0F       		.uleb128 0xf
 2778 0ed4 08010000 		.4byte	0x108
 2779 0ed8 0F       		.uleb128 0xf
 2780 0ed9 58050000 		.4byte	0x558
 2781 0edd 0F       		.uleb128 0xf
 2782 0ede 99020000 		.4byte	0x299
 2783 0ee2 00       		.byte	0
 2784 0ee3 2D       		.uleb128 0x2d
 2785 0ee4 DB050000 		.4byte	.LASF124
 2786 0ee8 0D       		.byte	0xd
 2787 0ee9 82       		.byte	0x82
 2788 0eea 99020000 		.4byte	0x299
 2789 0eee F80E0000 		.4byte	0xef8
 2790 0ef2 0F       		.uleb128 0xf
 2791 0ef3 B90E0000 		.4byte	0xeb9
 2792 0ef7 00       		.byte	0
 2793 0ef8 2E       		.uleb128 0x2e
 2794 0ef9 8A050000 		.4byte	.LASF125
 2795 0efd 0D       		.byte	0xd
 2796 0efe 7F       		.byte	0x7f
 2797 0eff 130F0000 		.4byte	0xf13
 2798 0f03 0F       		.uleb128 0xf
 2799 0f04 B90E0000 		.4byte	0xeb9
 2800 0f08 0F       		.uleb128 0xf
 2801 0f09 28000000 		.4byte	0x28
 2802 0f0d 0F       		.uleb128 0xf
 2803 0f0e ED030000 		.4byte	0x3ed
 2804 0f12 00       		.byte	0
 2805 0f13 30       		.uleb128 0x30
 2806 0f14 78000000 		.4byte	.LASF132
 2807 0f18 10       		.byte	0x10
 2808 0f19 7F       		.byte	0x7f
 2809 0f1a 5D020000 		.4byte	0x25d
 2810 0f1e 2D       		.uleb128 0x2d
 2811 0f1f 06050000 		.4byte	.LASF126
 2812 0f23 10       		.byte	0x10
 2813 0f24 80       		.byte	0x80
 2814 0f25 5D020000 		.4byte	0x25d
 2815 0f29 330F0000 		.4byte	0xf33
 2816 0f2d 0F       		.uleb128 0xf
 2817 0f2e 5D020000 		.4byte	0x25d
 2818 0f32 00       		.byte	0
 2819 0f33 2D       		.uleb128 0x2d
 2820 0f34 70020000 		.4byte	.LASF127
 2821 0f38 0F       		.byte	0xf
ARM GAS  /tmp/ccSXLDVe.s 			page 51


 2822 0f39 39       		.byte	0x39
 2823 0f3a 5D020000 		.4byte	0x25d
 2824 0f3e 480F0000 		.4byte	0xf48
 2825 0f42 0F       		.uleb128 0xf
 2826 0f43 5D020000 		.4byte	0x25d
 2827 0f47 00       		.byte	0
 2828 0f48 2E       		.uleb128 0x2e
 2829 0f49 AC040000 		.4byte	.LASF128
 2830 0f4d 0F       		.byte	0xf
 2831 0f4e 3A       		.byte	0x3a
 2832 0f4f 590F0000 		.4byte	0xf59
 2833 0f53 0F       		.uleb128 0xf
 2834 0f54 5D020000 		.4byte	0x25d
 2835 0f58 00       		.byte	0
 2836 0f59 31       		.uleb128 0x31
 2837 0f5a E0040000 		.4byte	.LASF133
 2838 0f5e 07       		.byte	0x7
 2839 0f5f 7501     		.2byte	0x175
 2840 0f61 0F       		.uleb128 0xf
 2841 0f62 29010000 		.4byte	0x129
 2842 0f66 00       		.byte	0
 2843 0f67 00       		.byte	0
 2844              		.section	.debug_abbrev,"",%progbits
 2845              	.Ldebug_abbrev0:
 2846 0000 01       		.uleb128 0x1
 2847 0001 11       		.uleb128 0x11
 2848 0002 01       		.byte	0x1
 2849 0003 25       		.uleb128 0x25
 2850 0004 0E       		.uleb128 0xe
 2851 0005 13       		.uleb128 0x13
 2852 0006 0B       		.uleb128 0xb
 2853 0007 03       		.uleb128 0x3
 2854 0008 0E       		.uleb128 0xe
 2855 0009 55       		.uleb128 0x55
 2856 000a 17       		.uleb128 0x17
 2857 000b 11       		.uleb128 0x11
 2858 000c 01       		.uleb128 0x1
 2859 000d 10       		.uleb128 0x10
 2860 000e 17       		.uleb128 0x17
 2861 000f 00       		.byte	0
 2862 0010 00       		.byte	0
 2863 0011 02       		.uleb128 0x2
 2864 0012 24       		.uleb128 0x24
 2865 0013 00       		.byte	0
 2866 0014 0B       		.uleb128 0xb
 2867 0015 0B       		.uleb128 0xb
 2868 0016 3E       		.uleb128 0x3e
 2869 0017 0B       		.uleb128 0xb
 2870 0018 03       		.uleb128 0x3
 2871 0019 08       		.uleb128 0x8
 2872 001a 00       		.byte	0
 2873 001b 00       		.byte	0
 2874 001c 03       		.uleb128 0x3
 2875 001d 16       		.uleb128 0x16
 2876 001e 00       		.byte	0
 2877 001f 03       		.uleb128 0x3
 2878 0020 0E       		.uleb128 0xe
ARM GAS  /tmp/ccSXLDVe.s 			page 52


 2879 0021 3A       		.uleb128 0x3a
 2880 0022 0B       		.uleb128 0xb
 2881 0023 3B       		.uleb128 0x3b
 2882 0024 0B       		.uleb128 0xb
 2883 0025 49       		.uleb128 0x49
 2884 0026 13       		.uleb128 0x13
 2885 0027 00       		.byte	0
 2886 0028 00       		.byte	0
 2887 0029 04       		.uleb128 0x4
 2888 002a 24       		.uleb128 0x24
 2889 002b 00       		.byte	0
 2890 002c 0B       		.uleb128 0xb
 2891 002d 0B       		.uleb128 0xb
 2892 002e 3E       		.uleb128 0x3e
 2893 002f 0B       		.uleb128 0xb
 2894 0030 03       		.uleb128 0x3
 2895 0031 0E       		.uleb128 0xe
 2896 0032 00       		.byte	0
 2897 0033 00       		.byte	0
 2898 0034 05       		.uleb128 0x5
 2899 0035 13       		.uleb128 0x13
 2900 0036 01       		.byte	0x1
 2901 0037 03       		.uleb128 0x3
 2902 0038 0E       		.uleb128 0xe
 2903 0039 0B       		.uleb128 0xb
 2904 003a 0B       		.uleb128 0xb
 2905 003b 3A       		.uleb128 0x3a
 2906 003c 0B       		.uleb128 0xb
 2907 003d 3B       		.uleb128 0x3b
 2908 003e 0B       		.uleb128 0xb
 2909 003f 01       		.uleb128 0x1
 2910 0040 13       		.uleb128 0x13
 2911 0041 00       		.byte	0
 2912 0042 00       		.byte	0
 2913 0043 06       		.uleb128 0x6
 2914 0044 0D       		.uleb128 0xd
 2915 0045 00       		.byte	0
 2916 0046 03       		.uleb128 0x3
 2917 0047 0E       		.uleb128 0xe
 2918 0048 3A       		.uleb128 0x3a
 2919 0049 0B       		.uleb128 0xb
 2920 004a 3B       		.uleb128 0x3b
 2921 004b 0B       		.uleb128 0xb
 2922 004c 49       		.uleb128 0x49
 2923 004d 13       		.uleb128 0x13
 2924 004e 38       		.uleb128 0x38
 2925 004f 0B       		.uleb128 0xb
 2926 0050 00       		.byte	0
 2927 0051 00       		.byte	0
 2928 0052 07       		.uleb128 0x7
 2929 0053 0D       		.uleb128 0xd
 2930 0054 00       		.byte	0
 2931 0055 03       		.uleb128 0x3
 2932 0056 08       		.uleb128 0x8
 2933 0057 3A       		.uleb128 0x3a
 2934 0058 0B       		.uleb128 0xb
 2935 0059 3B       		.uleb128 0x3b
ARM GAS  /tmp/ccSXLDVe.s 			page 53


 2936 005a 0B       		.uleb128 0xb
 2937 005b 49       		.uleb128 0x49
 2938 005c 13       		.uleb128 0x13
 2939 005d 38       		.uleb128 0x38
 2940 005e 0B       		.uleb128 0xb
 2941 005f 00       		.byte	0
 2942 0060 00       		.byte	0
 2943 0061 08       		.uleb128 0x8
 2944 0062 13       		.uleb128 0x13
 2945 0063 01       		.byte	0x1
 2946 0064 0B       		.uleb128 0xb
 2947 0065 0B       		.uleb128 0xb
 2948 0066 3A       		.uleb128 0x3a
 2949 0067 0B       		.uleb128 0xb
 2950 0068 3B       		.uleb128 0x3b
 2951 0069 0B       		.uleb128 0xb
 2952 006a 01       		.uleb128 0x1
 2953 006b 13       		.uleb128 0x13
 2954 006c 00       		.byte	0
 2955 006d 00       		.byte	0
 2956 006e 09       		.uleb128 0x9
 2957 006f 0F       		.uleb128 0xf
 2958 0070 00       		.byte	0
 2959 0071 0B       		.uleb128 0xb
 2960 0072 0B       		.uleb128 0xb
 2961 0073 49       		.uleb128 0x49
 2962 0074 13       		.uleb128 0x13
 2963 0075 00       		.byte	0
 2964 0076 00       		.byte	0
 2965 0077 0A       		.uleb128 0xa
 2966 0078 0F       		.uleb128 0xf
 2967 0079 00       		.byte	0
 2968 007a 0B       		.uleb128 0xb
 2969 007b 0B       		.uleb128 0xb
 2970 007c 00       		.byte	0
 2971 007d 00       		.byte	0
 2972 007e 0B       		.uleb128 0xb
 2973 007f 13       		.uleb128 0x13
 2974 0080 01       		.byte	0x1
 2975 0081 03       		.uleb128 0x3
 2976 0082 0E       		.uleb128 0xe
 2977 0083 0B       		.uleb128 0xb
 2978 0084 0B       		.uleb128 0xb
 2979 0085 3A       		.uleb128 0x3a
 2980 0086 0B       		.uleb128 0xb
 2981 0087 3B       		.uleb128 0x3b
 2982 0088 05       		.uleb128 0x5
 2983 0089 01       		.uleb128 0x1
 2984 008a 13       		.uleb128 0x13
 2985 008b 00       		.byte	0
 2986 008c 00       		.byte	0
 2987 008d 0C       		.uleb128 0xc
 2988 008e 0D       		.uleb128 0xd
 2989 008f 00       		.byte	0
 2990 0090 03       		.uleb128 0x3
 2991 0091 08       		.uleb128 0x8
 2992 0092 3A       		.uleb128 0x3a
ARM GAS  /tmp/ccSXLDVe.s 			page 54


 2993 0093 0B       		.uleb128 0xb
 2994 0094 3B       		.uleb128 0x3b
 2995 0095 05       		.uleb128 0x5
 2996 0096 49       		.uleb128 0x49
 2997 0097 13       		.uleb128 0x13
 2998 0098 38       		.uleb128 0x38
 2999 0099 0B       		.uleb128 0xb
 3000 009a 00       		.byte	0
 3001 009b 00       		.byte	0
 3002 009c 0D       		.uleb128 0xd
 3003 009d 35       		.uleb128 0x35
 3004 009e 00       		.byte	0
 3005 009f 49       		.uleb128 0x49
 3006 00a0 13       		.uleb128 0x13
 3007 00a1 00       		.byte	0
 3008 00a2 00       		.byte	0
 3009 00a3 0E       		.uleb128 0xe
 3010 00a4 15       		.uleb128 0x15
 3011 00a5 01       		.byte	0x1
 3012 00a6 27       		.uleb128 0x27
 3013 00a7 19       		.uleb128 0x19
 3014 00a8 49       		.uleb128 0x49
 3015 00a9 13       		.uleb128 0x13
 3016 00aa 01       		.uleb128 0x1
 3017 00ab 13       		.uleb128 0x13
 3018 00ac 00       		.byte	0
 3019 00ad 00       		.byte	0
 3020 00ae 0F       		.uleb128 0xf
 3021 00af 05       		.uleb128 0x5
 3022 00b0 00       		.byte	0
 3023 00b1 49       		.uleb128 0x49
 3024 00b2 13       		.uleb128 0x13
 3025 00b3 00       		.byte	0
 3026 00b4 00       		.byte	0
 3027 00b5 10       		.uleb128 0x10
 3028 00b6 17       		.uleb128 0x17
 3029 00b7 01       		.byte	0x1
 3030 00b8 0B       		.uleb128 0xb
 3031 00b9 0B       		.uleb128 0xb
 3032 00ba 3A       		.uleb128 0x3a
 3033 00bb 0B       		.uleb128 0xb
 3034 00bc 3B       		.uleb128 0x3b
 3035 00bd 0B       		.uleb128 0xb
 3036 00be 01       		.uleb128 0x1
 3037 00bf 13       		.uleb128 0x13
 3038 00c0 00       		.byte	0
 3039 00c1 00       		.byte	0
 3040 00c2 11       		.uleb128 0x11
 3041 00c3 0D       		.uleb128 0xd
 3042 00c4 00       		.byte	0
 3043 00c5 03       		.uleb128 0x3
 3044 00c6 0E       		.uleb128 0xe
 3045 00c7 3A       		.uleb128 0x3a
 3046 00c8 0B       		.uleb128 0xb
 3047 00c9 3B       		.uleb128 0x3b
 3048 00ca 0B       		.uleb128 0xb
 3049 00cb 49       		.uleb128 0x49
ARM GAS  /tmp/ccSXLDVe.s 			page 55


 3050 00cc 13       		.uleb128 0x13
 3051 00cd 00       		.byte	0
 3052 00ce 00       		.byte	0
 3053 00cf 12       		.uleb128 0x12
 3054 00d0 17       		.uleb128 0x17
 3055 00d1 01       		.byte	0x1
 3056 00d2 03       		.uleb128 0x3
 3057 00d3 0E       		.uleb128 0xe
 3058 00d4 0B       		.uleb128 0xb
 3059 00d5 0B       		.uleb128 0xb
 3060 00d6 3A       		.uleb128 0x3a
 3061 00d7 0B       		.uleb128 0xb
 3062 00d8 3B       		.uleb128 0x3b
 3063 00d9 0B       		.uleb128 0xb
 3064 00da 01       		.uleb128 0x1
 3065 00db 13       		.uleb128 0x13
 3066 00dc 00       		.byte	0
 3067 00dd 00       		.byte	0
 3068 00de 13       		.uleb128 0x13
 3069 00df 0D       		.uleb128 0xd
 3070 00e0 00       		.byte	0
 3071 00e1 03       		.uleb128 0x3
 3072 00e2 08       		.uleb128 0x8
 3073 00e3 3A       		.uleb128 0x3a
 3074 00e4 0B       		.uleb128 0xb
 3075 00e5 3B       		.uleb128 0x3b
 3076 00e6 0B       		.uleb128 0xb
 3077 00e7 49       		.uleb128 0x49
 3078 00e8 13       		.uleb128 0x13
 3079 00e9 00       		.byte	0
 3080 00ea 00       		.byte	0
 3081 00eb 14       		.uleb128 0x14
 3082 00ec 26       		.uleb128 0x26
 3083 00ed 00       		.byte	0
 3084 00ee 49       		.uleb128 0x49
 3085 00ef 13       		.uleb128 0x13
 3086 00f0 00       		.byte	0
 3087 00f1 00       		.byte	0
 3088 00f2 15       		.uleb128 0x15
 3089 00f3 15       		.uleb128 0x15
 3090 00f4 00       		.byte	0
 3091 00f5 27       		.uleb128 0x27
 3092 00f6 19       		.uleb128 0x19
 3093 00f7 00       		.byte	0
 3094 00f8 00       		.byte	0
 3095 00f9 16       		.uleb128 0x16
 3096 00fa 13       		.uleb128 0x13
 3097 00fb 01       		.byte	0x1
 3098 00fc 0B       		.uleb128 0xb
 3099 00fd 05       		.uleb128 0x5
 3100 00fe 3A       		.uleb128 0x3a
 3101 00ff 0B       		.uleb128 0xb
 3102 0100 3B       		.uleb128 0x3b
 3103 0101 0B       		.uleb128 0xb
 3104 0102 01       		.uleb128 0x1
 3105 0103 13       		.uleb128 0x13
 3106 0104 00       		.byte	0
ARM GAS  /tmp/ccSXLDVe.s 			page 56


 3107 0105 00       		.byte	0
 3108 0106 17       		.uleb128 0x17
 3109 0107 0D       		.uleb128 0xd
 3110 0108 00       		.byte	0
 3111 0109 03       		.uleb128 0x3
 3112 010a 08       		.uleb128 0x8
 3113 010b 3A       		.uleb128 0x3a
 3114 010c 0B       		.uleb128 0xb
 3115 010d 3B       		.uleb128 0x3b
 3116 010e 0B       		.uleb128 0xb
 3117 010f 49       		.uleb128 0x49
 3118 0110 13       		.uleb128 0x13
 3119 0111 38       		.uleb128 0x38
 3120 0112 05       		.uleb128 0x5
 3121 0113 00       		.byte	0
 3122 0114 00       		.byte	0
 3123 0115 18       		.uleb128 0x18
 3124 0116 01       		.uleb128 0x1
 3125 0117 01       		.byte	0x1
 3126 0118 49       		.uleb128 0x49
 3127 0119 13       		.uleb128 0x13
 3128 011a 01       		.uleb128 0x1
 3129 011b 13       		.uleb128 0x13
 3130 011c 00       		.byte	0
 3131 011d 00       		.byte	0
 3132 011e 19       		.uleb128 0x19
 3133 011f 21       		.uleb128 0x21
 3134 0120 00       		.byte	0
 3135 0121 49       		.uleb128 0x49
 3136 0122 13       		.uleb128 0x13
 3137 0123 2F       		.uleb128 0x2f
 3138 0124 0B       		.uleb128 0xb
 3139 0125 00       		.byte	0
 3140 0126 00       		.byte	0
 3141 0127 1A       		.uleb128 0x1a
 3142 0128 17       		.uleb128 0x17
 3143 0129 01       		.byte	0x1
 3144 012a 03       		.uleb128 0x3
 3145 012b 0E       		.uleb128 0xe
 3146 012c 0B       		.uleb128 0xb
 3147 012d 05       		.uleb128 0x5
 3148 012e 3A       		.uleb128 0x3a
 3149 012f 0B       		.uleb128 0xb
 3150 0130 3B       		.uleb128 0x3b
 3151 0131 0B       		.uleb128 0xb
 3152 0132 01       		.uleb128 0x1
 3153 0133 13       		.uleb128 0x13
 3154 0134 00       		.byte	0
 3155 0135 00       		.byte	0
 3156 0136 1B       		.uleb128 0x1b
 3157 0137 21       		.uleb128 0x21
 3158 0138 00       		.byte	0
 3159 0139 49       		.uleb128 0x49
 3160 013a 13       		.uleb128 0x13
 3161 013b 2F       		.uleb128 0x2f
 3162 013c 05       		.uleb128 0x5
 3163 013d 00       		.byte	0
ARM GAS  /tmp/ccSXLDVe.s 			page 57


 3164 013e 00       		.byte	0
 3165 013f 1C       		.uleb128 0x1c
 3166 0140 2E       		.uleb128 0x2e
 3167 0141 01       		.byte	0x1
 3168 0142 03       		.uleb128 0x3
 3169 0143 0E       		.uleb128 0xe
 3170 0144 3A       		.uleb128 0x3a
 3171 0145 0B       		.uleb128 0xb
 3172 0146 3B       		.uleb128 0x3b
 3173 0147 0B       		.uleb128 0xb
 3174 0148 27       		.uleb128 0x27
 3175 0149 19       		.uleb128 0x19
 3176 014a 11       		.uleb128 0x11
 3177 014b 01       		.uleb128 0x1
 3178 014c 12       		.uleb128 0x12
 3179 014d 06       		.uleb128 0x6
 3180 014e 40       		.uleb128 0x40
 3181 014f 18       		.uleb128 0x18
 3182 0150 9742     		.uleb128 0x2117
 3183 0152 19       		.uleb128 0x19
 3184 0153 01       		.uleb128 0x1
 3185 0154 13       		.uleb128 0x13
 3186 0155 00       		.byte	0
 3187 0156 00       		.byte	0
 3188 0157 1D       		.uleb128 0x1d
 3189 0158 34       		.uleb128 0x34
 3190 0159 00       		.byte	0
 3191 015a 03       		.uleb128 0x3
 3192 015b 08       		.uleb128 0x8
 3193 015c 3A       		.uleb128 0x3a
 3194 015d 0B       		.uleb128 0xb
 3195 015e 3B       		.uleb128 0x3b
 3196 015f 0B       		.uleb128 0xb
 3197 0160 49       		.uleb128 0x49
 3198 0161 13       		.uleb128 0x13
 3199 0162 02       		.uleb128 0x2
 3200 0163 18       		.uleb128 0x18
 3201 0164 00       		.byte	0
 3202 0165 00       		.byte	0
 3203 0166 1E       		.uleb128 0x1e
 3204 0167 34       		.uleb128 0x34
 3205 0168 00       		.byte	0
 3206 0169 03       		.uleb128 0x3
 3207 016a 08       		.uleb128 0x8
 3208 016b 3A       		.uleb128 0x3a
 3209 016c 0B       		.uleb128 0xb
 3210 016d 3B       		.uleb128 0x3b
 3211 016e 0B       		.uleb128 0xb
 3212 016f 49       		.uleb128 0x49
 3213 0170 13       		.uleb128 0x13
 3214 0171 02       		.uleb128 0x2
 3215 0172 17       		.uleb128 0x17
 3216 0173 00       		.byte	0
 3217 0174 00       		.byte	0
 3218 0175 1F       		.uleb128 0x1f
 3219 0176 34       		.uleb128 0x34
 3220 0177 00       		.byte	0
ARM GAS  /tmp/ccSXLDVe.s 			page 58


 3221 0178 03       		.uleb128 0x3
 3222 0179 0E       		.uleb128 0xe
 3223 017a 3A       		.uleb128 0x3a
 3224 017b 0B       		.uleb128 0xb
 3225 017c 3B       		.uleb128 0x3b
 3226 017d 0B       		.uleb128 0xb
 3227 017e 49       		.uleb128 0x49
 3228 017f 13       		.uleb128 0x13
 3229 0180 02       		.uleb128 0x2
 3230 0181 18       		.uleb128 0x18
 3231 0182 00       		.byte	0
 3232 0183 00       		.byte	0
 3233 0184 20       		.uleb128 0x20
 3234 0185 898201   		.uleb128 0x4109
 3235 0188 01       		.byte	0x1
 3236 0189 11       		.uleb128 0x11
 3237 018a 01       		.uleb128 0x1
 3238 018b 31       		.uleb128 0x31
 3239 018c 13       		.uleb128 0x13
 3240 018d 01       		.uleb128 0x1
 3241 018e 13       		.uleb128 0x13
 3242 018f 00       		.byte	0
 3243 0190 00       		.byte	0
 3244 0191 21       		.uleb128 0x21
 3245 0192 8A8201   		.uleb128 0x410a
 3246 0195 00       		.byte	0
 3247 0196 02       		.uleb128 0x2
 3248 0197 18       		.uleb128 0x18
 3249 0198 9142     		.uleb128 0x2111
 3250 019a 18       		.uleb128 0x18
 3251 019b 00       		.byte	0
 3252 019c 00       		.byte	0
 3253 019d 22       		.uleb128 0x22
 3254 019e 898201   		.uleb128 0x4109
 3255 01a1 00       		.byte	0
 3256 01a2 11       		.uleb128 0x11
 3257 01a3 01       		.uleb128 0x1
 3258 01a4 31       		.uleb128 0x31
 3259 01a5 13       		.uleb128 0x13
 3260 01a6 00       		.byte	0
 3261 01a7 00       		.byte	0
 3262 01a8 23       		.uleb128 0x23
 3263 01a9 898201   		.uleb128 0x4109
 3264 01ac 01       		.byte	0x1
 3265 01ad 11       		.uleb128 0x11
 3266 01ae 01       		.uleb128 0x1
 3267 01af 31       		.uleb128 0x31
 3268 01b0 13       		.uleb128 0x13
 3269 01b1 00       		.byte	0
 3270 01b2 00       		.byte	0
 3271 01b3 24       		.uleb128 0x24
 3272 01b4 2E       		.uleb128 0x2e
 3273 01b5 01       		.byte	0x1
 3274 01b6 03       		.uleb128 0x3
 3275 01b7 0E       		.uleb128 0xe
 3276 01b8 3A       		.uleb128 0x3a
 3277 01b9 0B       		.uleb128 0xb
ARM GAS  /tmp/ccSXLDVe.s 			page 59


 3278 01ba 3B       		.uleb128 0x3b
 3279 01bb 0B       		.uleb128 0xb
 3280 01bc 27       		.uleb128 0x27
 3281 01bd 19       		.uleb128 0x19
 3282 01be 49       		.uleb128 0x49
 3283 01bf 13       		.uleb128 0x13
 3284 01c0 11       		.uleb128 0x11
 3285 01c1 01       		.uleb128 0x1
 3286 01c2 12       		.uleb128 0x12
 3287 01c3 06       		.uleb128 0x6
 3288 01c4 40       		.uleb128 0x40
 3289 01c5 18       		.uleb128 0x18
 3290 01c6 9742     		.uleb128 0x2117
 3291 01c8 19       		.uleb128 0x19
 3292 01c9 01       		.uleb128 0x1
 3293 01ca 13       		.uleb128 0x13
 3294 01cb 00       		.byte	0
 3295 01cc 00       		.byte	0
 3296 01cd 25       		.uleb128 0x25
 3297 01ce 05       		.uleb128 0x5
 3298 01cf 00       		.byte	0
 3299 01d0 03       		.uleb128 0x3
 3300 01d1 08       		.uleb128 0x8
 3301 01d2 3A       		.uleb128 0x3a
 3302 01d3 0B       		.uleb128 0xb
 3303 01d4 3B       		.uleb128 0x3b
 3304 01d5 0B       		.uleb128 0xb
 3305 01d6 49       		.uleb128 0x49
 3306 01d7 13       		.uleb128 0x13
 3307 01d8 02       		.uleb128 0x2
 3308 01d9 17       		.uleb128 0x17
 3309 01da 00       		.byte	0
 3310 01db 00       		.byte	0
 3311 01dc 26       		.uleb128 0x26
 3312 01dd 898201   		.uleb128 0x4109
 3313 01e0 01       		.byte	0x1
 3314 01e1 11       		.uleb128 0x11
 3315 01e2 01       		.uleb128 0x1
 3316 01e3 9542     		.uleb128 0x2115
 3317 01e5 19       		.uleb128 0x19
 3318 01e6 31       		.uleb128 0x31
 3319 01e7 13       		.uleb128 0x13
 3320 01e8 00       		.byte	0
 3321 01e9 00       		.byte	0
 3322 01ea 27       		.uleb128 0x27
 3323 01eb 34       		.uleb128 0x34
 3324 01ec 00       		.byte	0
 3325 01ed 03       		.uleb128 0x3
 3326 01ee 0E       		.uleb128 0xe
 3327 01ef 3A       		.uleb128 0x3a
 3328 01f0 0B       		.uleb128 0xb
 3329 01f1 3B       		.uleb128 0x3b
 3330 01f2 0B       		.uleb128 0xb
 3331 01f3 49       		.uleb128 0x49
 3332 01f4 13       		.uleb128 0x13
 3333 01f5 02       		.uleb128 0x2
 3334 01f6 17       		.uleb128 0x17
ARM GAS  /tmp/ccSXLDVe.s 			page 60


 3335 01f7 00       		.byte	0
 3336 01f8 00       		.byte	0
 3337 01f9 28       		.uleb128 0x28
 3338 01fa 34       		.uleb128 0x34
 3339 01fb 00       		.byte	0
 3340 01fc 03       		.uleb128 0x3
 3341 01fd 0E       		.uleb128 0xe
 3342 01fe 3A       		.uleb128 0x3a
 3343 01ff 0B       		.uleb128 0xb
 3344 0200 3B       		.uleb128 0x3b
 3345 0201 0B       		.uleb128 0xb
 3346 0202 49       		.uleb128 0x49
 3347 0203 13       		.uleb128 0x13
 3348 0204 00       		.byte	0
 3349 0205 00       		.byte	0
 3350 0206 29       		.uleb128 0x29
 3351 0207 34       		.uleb128 0x34
 3352 0208 00       		.byte	0
 3353 0209 03       		.uleb128 0x3
 3354 020a 0E       		.uleb128 0xe
 3355 020b 3A       		.uleb128 0x3a
 3356 020c 0B       		.uleb128 0xb
 3357 020d 3B       		.uleb128 0x3b
 3358 020e 0B       		.uleb128 0xb
 3359 020f 49       		.uleb128 0x49
 3360 0210 13       		.uleb128 0x13
 3361 0211 3F       		.uleb128 0x3f
 3362 0212 19       		.uleb128 0x19
 3363 0213 3C       		.uleb128 0x3c
 3364 0214 19       		.uleb128 0x19
 3365 0215 00       		.byte	0
 3366 0216 00       		.byte	0
 3367 0217 2A       		.uleb128 0x2a
 3368 0218 21       		.uleb128 0x21
 3369 0219 00       		.byte	0
 3370 021a 00       		.byte	0
 3371 021b 00       		.byte	0
 3372 021c 2B       		.uleb128 0x2b
 3373 021d 34       		.uleb128 0x34
 3374 021e 00       		.byte	0
 3375 021f 03       		.uleb128 0x3
 3376 0220 08       		.uleb128 0x8
 3377 0221 3A       		.uleb128 0x3a
 3378 0222 0B       		.uleb128 0xb
 3379 0223 3B       		.uleb128 0x3b
 3380 0224 0B       		.uleb128 0xb
 3381 0225 49       		.uleb128 0x49
 3382 0226 13       		.uleb128 0x13
 3383 0227 3F       		.uleb128 0x3f
 3384 0228 19       		.uleb128 0x19
 3385 0229 3C       		.uleb128 0x3c
 3386 022a 19       		.uleb128 0x19
 3387 022b 00       		.byte	0
 3388 022c 00       		.byte	0
 3389 022d 2C       		.uleb128 0x2c
 3390 022e 34       		.uleb128 0x34
 3391 022f 00       		.byte	0
ARM GAS  /tmp/ccSXLDVe.s 			page 61


 3392 0230 03       		.uleb128 0x3
 3393 0231 0E       		.uleb128 0xe
 3394 0232 3A       		.uleb128 0x3a
 3395 0233 0B       		.uleb128 0xb
 3396 0234 3B       		.uleb128 0x3b
 3397 0235 0B       		.uleb128 0xb
 3398 0236 49       		.uleb128 0x49
 3399 0237 13       		.uleb128 0x13
 3400 0238 3F       		.uleb128 0x3f
 3401 0239 19       		.uleb128 0x19
 3402 023a 02       		.uleb128 0x2
 3403 023b 18       		.uleb128 0x18
 3404 023c 00       		.byte	0
 3405 023d 00       		.byte	0
 3406 023e 2D       		.uleb128 0x2d
 3407 023f 2E       		.uleb128 0x2e
 3408 0240 01       		.byte	0x1
 3409 0241 3F       		.uleb128 0x3f
 3410 0242 19       		.uleb128 0x19
 3411 0243 03       		.uleb128 0x3
 3412 0244 0E       		.uleb128 0xe
 3413 0245 3A       		.uleb128 0x3a
 3414 0246 0B       		.uleb128 0xb
 3415 0247 3B       		.uleb128 0x3b
 3416 0248 0B       		.uleb128 0xb
 3417 0249 27       		.uleb128 0x27
 3418 024a 19       		.uleb128 0x19
 3419 024b 49       		.uleb128 0x49
 3420 024c 13       		.uleb128 0x13
 3421 024d 3C       		.uleb128 0x3c
 3422 024e 19       		.uleb128 0x19
 3423 024f 01       		.uleb128 0x1
 3424 0250 13       		.uleb128 0x13
 3425 0251 00       		.byte	0
 3426 0252 00       		.byte	0
 3427 0253 2E       		.uleb128 0x2e
 3428 0254 2E       		.uleb128 0x2e
 3429 0255 01       		.byte	0x1
 3430 0256 3F       		.uleb128 0x3f
 3431 0257 19       		.uleb128 0x19
 3432 0258 03       		.uleb128 0x3
 3433 0259 0E       		.uleb128 0xe
 3434 025a 3A       		.uleb128 0x3a
 3435 025b 0B       		.uleb128 0xb
 3436 025c 3B       		.uleb128 0x3b
 3437 025d 0B       		.uleb128 0xb
 3438 025e 27       		.uleb128 0x27
 3439 025f 19       		.uleb128 0x19
 3440 0260 3C       		.uleb128 0x3c
 3441 0261 19       		.uleb128 0x19
 3442 0262 01       		.uleb128 0x1
 3443 0263 13       		.uleb128 0x13
 3444 0264 00       		.byte	0
 3445 0265 00       		.byte	0
 3446 0266 2F       		.uleb128 0x2f
 3447 0267 2E       		.uleb128 0x2e
 3448 0268 00       		.byte	0
ARM GAS  /tmp/ccSXLDVe.s 			page 62


 3449 0269 3F       		.uleb128 0x3f
 3450 026a 19       		.uleb128 0x19
 3451 026b 03       		.uleb128 0x3
 3452 026c 0E       		.uleb128 0xe
 3453 026d 3A       		.uleb128 0x3a
 3454 026e 0B       		.uleb128 0xb
 3455 026f 3B       		.uleb128 0x3b
 3456 0270 0B       		.uleb128 0xb
 3457 0271 27       		.uleb128 0x27
 3458 0272 19       		.uleb128 0x19
 3459 0273 3C       		.uleb128 0x3c
 3460 0274 19       		.uleb128 0x19
 3461 0275 00       		.byte	0
 3462 0276 00       		.byte	0
 3463 0277 30       		.uleb128 0x30
 3464 0278 2E       		.uleb128 0x2e
 3465 0279 00       		.byte	0
 3466 027a 3F       		.uleb128 0x3f
 3467 027b 19       		.uleb128 0x19
 3468 027c 03       		.uleb128 0x3
 3469 027d 0E       		.uleb128 0xe
 3470 027e 3A       		.uleb128 0x3a
 3471 027f 0B       		.uleb128 0xb
 3472 0280 3B       		.uleb128 0x3b
 3473 0281 0B       		.uleb128 0xb
 3474 0282 27       		.uleb128 0x27
 3475 0283 19       		.uleb128 0x19
 3476 0284 49       		.uleb128 0x49
 3477 0285 13       		.uleb128 0x13
 3478 0286 3C       		.uleb128 0x3c
 3479 0287 19       		.uleb128 0x19
 3480 0288 00       		.byte	0
 3481 0289 00       		.byte	0
 3482 028a 31       		.uleb128 0x31
 3483 028b 2E       		.uleb128 0x2e
 3484 028c 01       		.byte	0x1
 3485 028d 3F       		.uleb128 0x3f
 3486 028e 19       		.uleb128 0x19
 3487 028f 03       		.uleb128 0x3
 3488 0290 0E       		.uleb128 0xe
 3489 0291 3A       		.uleb128 0x3a
 3490 0292 0B       		.uleb128 0xb
 3491 0293 3B       		.uleb128 0x3b
 3492 0294 05       		.uleb128 0x5
 3493 0295 27       		.uleb128 0x27
 3494 0296 19       		.uleb128 0x19
 3495 0297 3C       		.uleb128 0x3c
 3496 0298 19       		.uleb128 0x19
 3497 0299 00       		.byte	0
 3498 029a 00       		.byte	0
 3499 029b 00       		.byte	0
 3500              		.section	.debug_loc,"",%progbits
 3501              	.Ldebug_loc0:
 3502              	.LLST0:
 3503 0000 56000000 		.4byte	.LVL6
 3504 0004 5C000000 		.4byte	.LVL7
 3505 0008 0100     		.2byte	0x1
ARM GAS  /tmp/ccSXLDVe.s 			page 63


 3506 000a 50       		.byte	0x50
 3507 000b 5C000000 		.4byte	.LVL7
 3508 000f F4000000 		.4byte	.LFE9
 3509 0013 0100     		.2byte	0x1
 3510 0015 56       		.byte	0x56
 3511 0016 00000000 		.4byte	0
 3512 001a 00000000 		.4byte	0
 3513              	.LLST1:
 3514 001e 00000000 		.4byte	.LVL17
 3515 0022 04000000 		.4byte	.LVL18
 3516 0026 0100     		.2byte	0x1
 3517 0028 50       		.byte	0x50
 3518 0029 04000000 		.4byte	.LVL18
 3519 002d 0C000000 		.4byte	.LFE7
 3520 0031 0400     		.2byte	0x4
 3521 0033 F3       		.byte	0xf3
 3522 0034 01       		.uleb128 0x1
 3523 0035 50       		.byte	0x50
 3524 0036 9F       		.byte	0x9f
 3525 0037 00000000 		.4byte	0
 3526 003b 00000000 		.4byte	0
 3527              	.LLST2:
 3528 003f 0A000000 		.4byte	.LVL22
 3529 0043 0E000000 		.4byte	.LVL23
 3530 0047 0200     		.2byte	0x2
 3531 0049 30       		.byte	0x30
 3532 004a 9F       		.byte	0x9f
 3533 004b 96000000 		.4byte	.LVL34
 3534 004f A8000000 		.4byte	.LVL36
 3535 0053 0500     		.2byte	0x5
 3536 0055 34       		.byte	0x34
 3537 0056 74       		.byte	0x74
 3538 0057 00       		.sleb128 0
 3539 0058 1C       		.byte	0x1c
 3540 0059 9F       		.byte	0x9f
 3541 005a A8000000 		.4byte	.LVL36
 3542 005e AE000000 		.4byte	.LVL37
 3543 0062 0500     		.2byte	0x5
 3544 0064 35       		.byte	0x35
 3545 0065 74       		.byte	0x74
 3546 0066 00       		.sleb128 0
 3547 0067 1C       		.byte	0x1c
 3548 0068 9F       		.byte	0x9f
 3549 0069 AE000000 		.4byte	.LVL37
 3550 006d BA000000 		.4byte	.LVL39
 3551 0071 0500     		.2byte	0x5
 3552 0073 34       		.byte	0x34
 3553 0074 74       		.byte	0x74
 3554 0075 00       		.sleb128 0
 3555 0076 1C       		.byte	0x1c
 3556 0077 9F       		.byte	0x9f
 3557 0078 00000000 		.4byte	0
 3558 007c 00000000 		.4byte	0
 3559              	.LLST3:
 3560 0080 0A000000 		.4byte	.LVL22
 3561 0084 BA000000 		.4byte	.LVL39
 3562 0088 0100     		.2byte	0x1
ARM GAS  /tmp/ccSXLDVe.s 			page 64


 3563 008a 55       		.byte	0x55
 3564 008b 00000000 		.4byte	0
 3565 008f 00000000 		.4byte	0
 3566              	.LLST4:
 3567 0093 00000000 		.4byte	.LVL42
 3568 0097 07000000 		.4byte	.LVL43-1
 3569 009b 0100     		.2byte	0x1
 3570 009d 50       		.byte	0x50
 3571 009e 07000000 		.4byte	.LVL43-1
 3572 00a2 24000000 		.4byte	.LFE12
 3573 00a6 0100     		.2byte	0x1
 3574 00a8 55       		.byte	0x55
 3575 00a9 00000000 		.4byte	0
 3576 00ad 00000000 		.4byte	0
 3577              	.LLST5:
 3578 00b1 0C000000 		.4byte	.LVL44
 3579 00b5 19000000 		.4byte	.LVL46-1
 3580 00b9 0100     		.2byte	0x1
 3581 00bb 50       		.byte	0x50
 3582 00bc 1A000000 		.4byte	.LVL46
 3583 00c0 22000000 		.4byte	.LVL47
 3584 00c4 0100     		.2byte	0x1
 3585 00c6 50       		.byte	0x50
 3586 00c7 22000000 		.4byte	.LVL47
 3587 00cb 24000000 		.4byte	.LFE12
 3588 00cf 0100     		.2byte	0x1
 3589 00d1 53       		.byte	0x53
 3590 00d2 00000000 		.4byte	0
 3591 00d6 00000000 		.4byte	0
 3592              	.LLST6:
 3593 00da 00000000 		.4byte	.LVL42
 3594 00de 0C000000 		.4byte	.LVL44
 3595 00e2 0200     		.2byte	0x2
 3596 00e4 30       		.byte	0x30
 3597 00e5 9F       		.byte	0x9f
 3598 00e6 0C000000 		.4byte	.LVL44
 3599 00ea 24000000 		.4byte	.LFE12
 3600 00ee 0100     		.2byte	0x1
 3601 00f0 54       		.byte	0x54
 3602 00f1 00000000 		.4byte	0
 3603 00f5 00000000 		.4byte	0
 3604              	.LLST7:
 3605 00f9 1E000000 		.4byte	.LVL51
 3606 00fd 20000000 		.4byte	.LVL52
 3607 0101 0100     		.2byte	0x1
 3608 0103 50       		.byte	0x50
 3609 0104 20000000 		.4byte	.LVL52
 3610 0108 1C010000 		.4byte	.LVL75
 3611 010c 0100     		.2byte	0x1
 3612 010e 54       		.byte	0x54
 3613 010f 00000000 		.4byte	0
 3614 0113 00000000 		.4byte	0
 3615              		.section	.debug_aranges,"",%progbits
 3616 0000 54000000 		.4byte	0x54
 3617 0004 0200     		.2byte	0x2
 3618 0006 00000000 		.4byte	.Ldebug_info0
 3619 000a 04       		.byte	0x4
ARM GAS  /tmp/ccSXLDVe.s 			page 65


 3620 000b 00       		.byte	0
 3621 000c 0000     		.2byte	0
 3622 000e 0000     		.2byte	0
 3623 0010 00000000 		.4byte	.LFB9
 3624 0014 F4000000 		.4byte	.LFE9-.LFB9
 3625 0018 00000000 		.4byte	.LFB7
 3626 001c 0C000000 		.4byte	.LFE7-.LFB7
 3627 0020 00000000 		.4byte	.LFB8
 3628 0024 14000000 		.4byte	.LFE8-.LFB8
 3629 0028 00000000 		.4byte	.LFB13
 3630 002c 14000000 		.4byte	.LFE13-.LFB13
 3631 0030 00000000 		.4byte	.LFB11
 3632 0034 F4000000 		.4byte	.LFE11-.LFB11
 3633 0038 00000000 		.4byte	.LFB10
 3634 003c 10000000 		.4byte	.LFE10-.LFB10
 3635 0040 00000000 		.4byte	.LFB12
 3636 0044 24000000 		.4byte	.LFE12-.LFB12
 3637 0048 00000000 		.4byte	.LFB14
 3638 004c 30010000 		.4byte	.LFE14-.LFB14
 3639 0050 00000000 		.4byte	0
 3640 0054 00000000 		.4byte	0
 3641              		.section	.debug_ranges,"",%progbits
 3642              	.Ldebug_ranges0:
 3643 0000 00000000 		.4byte	.LFB9
 3644 0004 F4000000 		.4byte	.LFE9
 3645 0008 00000000 		.4byte	.LFB7
 3646 000c 0C000000 		.4byte	.LFE7
 3647 0010 00000000 		.4byte	.LFB8
 3648 0014 14000000 		.4byte	.LFE8
 3649 0018 00000000 		.4byte	.LFB13
 3650 001c 14000000 		.4byte	.LFE13
 3651 0020 00000000 		.4byte	.LFB11
 3652 0024 F4000000 		.4byte	.LFE11
 3653 0028 00000000 		.4byte	.LFB10
 3654 002c 10000000 		.4byte	.LFE10
 3655 0030 00000000 		.4byte	.LFB12
 3656 0034 24000000 		.4byte	.LFE12
 3657 0038 00000000 		.4byte	.LFB14
 3658 003c 30010000 		.4byte	.LFE14
 3659 0040 00000000 		.4byte	0
 3660 0044 00000000 		.4byte	0
 3661              		.section	.debug_line,"",%progbits
 3662              	.Ldebug_line0:
 3663 0000 66030000 		.section	.debug_str,"MS",%progbits,1
 3663      02002702 
 3663      00000201 
 3663      FB0E0D00 
 3663      01010101 
 3664              	.LASF87:
 3665 0000 7466756E 		.ascii	"tfunc_t\000"
 3665      635F7400 
 3666              	.LASF43:
 3667 0008 705F6D73 		.ascii	"p_msg\000"
 3667      6700
 3668              	.LASF2:
 3669 000e 73697A65 		.ascii	"size_t\000"
 3669      5F7400
ARM GAS  /tmp/ccSXLDVe.s 			page 66


 3670              	.LASF96:
 3671 0015 7072696F 		.ascii	"prio\000"
 3671      00
 3672              	.LASF82:
 3673 001a 7264796D 		.ascii	"rdymsg\000"
 3673      736700
 3674              	.LASF17:
 3675 0021 75696E74 		.ascii	"uint64_t\000"
 3675      36345F74 
 3675      00
 3676              	.LASF3:
 3677 002a 5F5F7569 		.ascii	"__uint8_t\000"
 3677      6E74385F 
 3677      7400
 3678              	.LASF81:
 3679 0034 4D656D6F 		.ascii	"MemoryPool\000"
 3679      7279506F 
 3679      6F6C00
 3680              	.LASF66:
 3681 003f 6D656D67 		.ascii	"memgetfunc_t\000"
 3681      65746675 
 3681      6E635F74 
 3681      00
 3682              	.LASF13:
 3683 004c 6C6F6E67 		.ascii	"long long unsigned int\000"
 3683      206C6F6E 
 3683      6720756E 
 3683      7369676E 
 3683      65642069 
 3684              	.LASF83:
 3685 0063 65786974 		.ascii	"exitcode\000"
 3685      636F6465 
 3685      00
 3686              	.LASF70:
 3687 006c 685F6672 		.ascii	"h_free\000"
 3687      656500
 3688              	.LASF109:
 3689 0073 74657374 		.ascii	"test\000"
 3689      00
 3690              	.LASF132:
 3691 0078 63685265 		.ascii	"chRegFirstThread\000"
 3691      67466972 
 3691      73745468 
 3691      72656164 
 3691      00
 3692              	.LASF121:
 3693 0089 63684865 		.ascii	"chHeapInit\000"
 3693      6170496E 
 3693      697400
 3694              	.LASF72:
 3695 0094 6E657874 		.ascii	"next\000"
 3695      00
 3696              	.LASF31:
 3697 0099 705F7072 		.ascii	"p_prio\000"
 3697      696F00
 3698              	.LASF101:
 3699 00a0 64796E32 		.ascii	"dyn2_setup\000"
ARM GAS  /tmp/ccSXLDVe.s 			page 67


 3699      5F736574 
 3699      757000
 3700              	.LASF11:
 3701 00ab 6C6F6E67 		.ascii	"long long int\000"
 3701      206C6F6E 
 3701      6720696E 
 3701      7400
 3702              	.LASF1:
 3703 00b9 7369676E 		.ascii	"signed char\000"
 3703      65642063 
 3703      68617200 
 3704              	.LASF71:
 3705 00c5 685F6D74 		.ascii	"h_mtx\000"
 3705      7800
 3706              	.LASF47:
 3707 00cb 705F6D70 		.ascii	"p_mpool\000"
 3707      6F6F6C00 
 3708              	.LASF18:
 3709 00d3 626F6F6C 		.ascii	"bool_t\000"
 3709      5F7400
 3710              	.LASF63:
 3711 00da 6D5F7175 		.ascii	"m_queue\000"
 3711      65756500 
 3712              	.LASF120:
 3713 00e2 74657374 		.ascii	"test_emit_token\000"
 3713      5F656D69 
 3713      745F746F 
 3713      6B656E00 
 3714              	.LASF119:
 3715 00f2 63684865 		.ascii	"chHeapFree\000"
 3715      61704672 
 3715      656500
 3716              	.LASF23:
 3717 00fd 74736C69 		.ascii	"tslices_t\000"
 3717      6365735F 
 3717      7400
 3718              	.LASF8:
 3719 0107 6C6F6E67 		.ascii	"long int\000"
 3719      20696E74 
 3719      00
 3720              	.LASF115:
 3721 0110 63685468 		.ascii	"chThdCreateFromHeap\000"
 3721      64437265 
 3721      61746546 
 3721      726F6D48 
 3721      65617000 
 3722              	.LASF21:
 3723 0124 74737461 		.ascii	"tstate_t\000"
 3723      74655F74 
 3723      00
 3724              	.LASF78:
 3725 012d 6D705F6E 		.ascii	"mp_next\000"
 3725      65787400 
 3726              	.LASF97:
 3727 0135 64796E31 		.ascii	"dyn1_execute\000"
 3727      5F657865 
 3727      63757465 
ARM GAS  /tmp/ccSXLDVe.s 			page 68


 3727      00
 3728              	.LASF95:
 3729 0142 62756666 		.ascii	"buffer\000"
 3729      657200
 3730              	.LASF33:
 3731 0149 705F6E65 		.ascii	"p_newer\000"
 3731      77657200 
 3732              	.LASF123:
 3733 0151 63685468 		.ascii	"chThdCreateFromMemoryPool\000"
 3733      64437265 
 3733      61746546 
 3733      726F6D4D 
 3733      656D6F72 
 3734              	.LASF9:
 3735 016b 5F5F7569 		.ascii	"__uint32_t\000"
 3735      6E743332 
 3735      5F7400
 3736              	.LASF80:
 3737 0176 6D705F70 		.ascii	"mp_provider\000"
 3737      726F7669 
 3737      64657200 
 3738              	.LASF50:
 3739 0182 72656761 		.ascii	"regarm_t\000"
 3739      726D5F74 
 3739      00
 3740              	.LASF74:
 3741 018b 616C6967 		.ascii	"align\000"
 3741      6E00
 3742              	.LASF0:
 3743 0191 756E7369 		.ascii	"unsigned int\000"
 3743      676E6564 
 3743      20696E74 
 3743      00
 3744              	.LASF10:
 3745 019e 6C6F6E67 		.ascii	"long unsigned int\000"
 3745      20756E73 
 3745      69676E65 
 3745      6420696E 
 3745      7400
 3746              	.LASF91:
 3747 01b0 74656172 		.ascii	"teardown\000"
 3747      646F776E 
 3747      00
 3748              	.LASF98:
 3749 01b9 64796E31 		.ascii	"dyn1_setup\000"
 3749      5F736574 
 3749      757000
 3750              	.LASF89:
 3751 01c4 6E616D65 		.ascii	"name\000"
 3751      00
 3752              	.LASF53:
 3753 01c9 636F6E74 		.ascii	"context\000"
 3753      65787400 
 3754              	.LASF75:
 3755 01d1 73697A65 		.ascii	"size\000"
 3755      00
 3756              	.LASF6:
ARM GAS  /tmp/ccSXLDVe.s 			page 69


 3757 01d6 73686F72 		.ascii	"short unsigned int\000"
 3757      7420756E 
 3757      7369676E 
 3757      65642069 
 3757      6E7400
 3758              	.LASF100:
 3759 01e9 64796E32 		.ascii	"dyn2_execute\000"
 3759      5F657865 
 3759      63757465 
 3759      00
 3760              	.LASF130:
 3761 01f6 2F686F6D 		.ascii	"/home/austin/git/personal/school/motor_control/chib"
 3761      652F6175 
 3761      7374696E 
 3761      2F676974 
 3761      2F706572 
 3762 0229 696F732F 		.ascii	"ios/test/testdyn.c\000"
 3762      74657374 
 3762      2F746573 
 3762      7464796E 
 3762      2E6300
 3763              	.LASF25:
 3764 023c 6D73675F 		.ascii	"msg_t\000"
 3764      7400
 3765              	.LASF58:
 3766 0242 725F6E65 		.ascii	"r_newer\000"
 3766      77657200 
 3767              	.LASF20:
 3768 024a 746D6F64 		.ascii	"tmode_t\000"
 3768      655F7400 
 3769              	.LASF49:
 3770 0252 54687265 		.ascii	"ThreadsList\000"
 3770      6164734C 
 3770      69737400 
 3771              	.LASF26:
 3772 025e 6576656E 		.ascii	"eventmask_t\000"
 3772      746D6173 
 3772      6B5F7400 
 3773              	.LASF62:
 3774 026a 4D757465 		.ascii	"Mutex\000"
 3774      7800
 3775              	.LASF127:
 3776 0270 63685468 		.ascii	"chThdAddRef\000"
 3776      64416464 
 3776      52656600 
 3777              	.LASF129:
 3778 027c 474E5520 		.ascii	"GNU C 4.9.3 20141119 (release) [ARM/embedded-4_9-br"
 3778      4320342E 
 3778      392E3320 
 3778      32303134 
 3778      31313139 
 3779 02af 616E6368 		.ascii	"anch revision 218278] -mcpu=cortex-m4 -mno-thumb-in"
 3779      20726576 
 3779      6973696F 
 3779      6E203231 
 3779      38323738 
 3780 02e2 74657277 		.ascii	"terwork -mthumb -ggdb -O2 -fomit-frame-pointer -fal"
ARM GAS  /tmp/ccSXLDVe.s 			page 70


 3780      6F726B20 
 3780      2D6D7468 
 3780      756D6220 
 3780      2D676764 
 3781 0315 69676E2D 		.ascii	"ign-functions=16 -ffunction-sections -fdata-section"
 3781      66756E63 
 3781      74696F6E 
 3781      733D3136 
 3781      202D6666 
 3782 0348 73202D66 		.ascii	"s -fno-common\000"
 3782      6E6F2D63 
 3782      6F6D6D6F 
 3782      6E00
 3783              	.LASF51:
 3784 0356 73746B61 		.ascii	"stkalign_t\000"
 3784      6C69676E 
 3784      5F7400
 3785              	.LASF54:
 3786 0361 73697A65 		.ascii	"sizetype\000"
 3786      74797065 
 3786      00
 3787              	.LASF110:
 3788 036a 74657374 		.ascii	"testdyn1\000"
 3788      64796E31 
 3788      00
 3789              	.LASF111:
 3790 0373 74657374 		.ascii	"testdyn2\000"
 3790      64796E32 
 3790      00
 3791              	.LASF112:
 3792 037c 74657374 		.ascii	"testdyn3\000"
 3792      64796E33 
 3792      00
 3793              	.LASF105:
 3794 0385 64796E33 		.ascii	"dyn3_execute\000"
 3794      5F657865 
 3794      63757465 
 3794      00
 3795              	.LASF34:
 3796 0392 705F6F6C 		.ascii	"p_older\000"
 3796      64657200 
 3797              	.LASF57:
 3798 039a 725F6374 		.ascii	"r_ctx\000"
 3798      7800
 3799              	.LASF48:
 3800 03a0 54687265 		.ascii	"ThreadsQueue\000"
 3800      61647351 
 3800      75657565 
 3800      00
 3801              	.LASF79:
 3802 03ad 6D705F6F 		.ascii	"mp_object_size\000"
 3802      626A6563 
 3802      745F7369 
 3802      7A6500
 3803              	.LASF90:
 3804 03bc 73657475 		.ascii	"setup\000"
 3804      7000
ARM GAS  /tmp/ccSXLDVe.s 			page 71


 3805              	.LASF118:
 3806 03c2 5F746573 		.ascii	"_test_assert_sequence\000"
 3806      745F6173 
 3806      73657274 
 3806      5F736571 
 3806      75656E63 
 3807              	.LASF60:
 3808 03d8 725F6375 		.ascii	"r_current\000"
 3808      7272656E 
 3808      7400
 3809              	.LASF59:
 3810 03e2 725F6F6C 		.ascii	"r_older\000"
 3810      64657200 
 3811              	.LASF67:
 3812 03ea 4D656D6F 		.ascii	"MemoryHeap\000"
 3812      72794865 
 3812      617000
 3813              	.LASF12:
 3814 03f5 5F5F7569 		.ascii	"__uint64_t\000"
 3814      6E743634 
 3814      5F7400
 3815              	.LASF77:
 3816 0400 70685F6E 		.ascii	"ph_next\000"
 3816      65787400 
 3817              	.LASF22:
 3818 0408 74726566 		.ascii	"trefs_t\000"
 3818      735F7400 
 3819              	.LASF30:
 3820 0410 705F7072 		.ascii	"p_prev\000"
 3820      657600
 3821              	.LASF92:
 3822 0417 65786563 		.ascii	"execute\000"
 3822      75746500 
 3823              	.LASF24:
 3824 041f 74707269 		.ascii	"tprio_t\000"
 3824      6F5F7400 
 3825              	.LASF102:
 3826 0427 74687265 		.ascii	"thread\000"
 3826      616400
 3827              	.LASF19:
 3828 042e 5F426F6F 		.ascii	"_Bool\000"
 3828      6C00
 3829              	.LASF15:
 3830 0434 696E7433 		.ascii	"int32_t\000"
 3830      325F7400 
 3831              	.LASF4:
 3832 043c 756E7369 		.ascii	"unsigned char\000"
 3832      676E6564 
 3832      20636861 
 3832      7200
 3833              	.LASF69:
 3834 044a 685F7072 		.ascii	"h_provider\000"
 3834      6F766964 
 3834      657200
 3835              	.LASF45:
 3836 0455 705F6D74 		.ascii	"p_mtxlist\000"
 3836      786C6973 
ARM GAS  /tmp/ccSXLDVe.s 			page 72


 3836      7400
 3837              	.LASF5:
 3838 045f 73686F72 		.ascii	"short int\000"
 3838      7420696E 
 3838      7400
 3839              	.LASF36:
 3840 0469 705F7374 		.ascii	"p_state\000"
 3840      61746500 
 3841              	.LASF39:
 3842 0471 705F7072 		.ascii	"p_preempt\000"
 3842      65656D70 
 3842      7400
 3843              	.LASF108:
 3844 047b 74687265 		.ascii	"threads\000"
 3844      61647300 
 3845              	.LASF56:
 3846 0483 725F7072 		.ascii	"r_prio\000"
 3846      696F00
 3847              	.LASF93:
 3848 048a 68656170 		.ascii	"heap_header\000"
 3848      5F686561 
 3848      64657200 
 3849              	.LASF85:
 3850 0496 65776D61 		.ascii	"ewmask\000"
 3850      736B00
 3851              	.LASF29:
 3852 049d 705F6E65 		.ascii	"p_next\000"
 3852      787400
 3853              	.LASF37:
 3854 04a4 705F666C 		.ascii	"p_flags\000"
 3854      61677300 
 3855              	.LASF128:
 3856 04ac 63685468 		.ascii	"chThdRelease\000"
 3856      6452656C 
 3856      65617365 
 3856      00
 3857              	.LASF28:
 3858 04b9 54687265 		.ascii	"Thread\000"
 3858      616400
 3859              	.LASF116:
 3860 04c0 63684865 		.ascii	"chHeapAlloc\000"
 3860      6170416C 
 3860      6C6F6300 
 3861              	.LASF88:
 3862 04cc 74657374 		.ascii	"testcase\000"
 3862      63617365 
 3862      00
 3863              	.LASF44:
 3864 04d5 705F6570 		.ascii	"p_epending\000"
 3864      656E6469 
 3864      6E6700
 3865              	.LASF133:
 3866 04e0 63685468 		.ascii	"chThdSleep\000"
 3866      64536C65 
 3866      657000
 3867              	.LASF16:
 3868 04eb 75696E74 		.ascii	"uint32_t\000"
ARM GAS  /tmp/ccSXLDVe.s 			page 73


 3868      33325F74 
 3868      00
 3869              	.LASF55:
 3870 04f4 725F7175 		.ascii	"r_queue\000"
 3870      65756500 
 3871              	.LASF73:
 3872 04fc 68656170 		.ascii	"heap\000"
 3872      00
 3873              	.LASF86:
 3874 0501 63686172 		.ascii	"char\000"
 3874      00
 3875              	.LASF126:
 3876 0506 63685265 		.ascii	"chRegNextThread\000"
 3876      674E6578 
 3876      74546872 
 3876      65616400 
 3877              	.LASF99:
 3878 0516 64796E33 		.ascii	"dyn3_setup\000"
 3878      5F736574 
 3878      757000
 3879              	.LASF114:
 3880 0521 63684865 		.ascii	"chHeapStatus\000"
 3880      61705374 
 3880      61747573 
 3880      00
 3881              	.LASF131:
 3882 052e 74657374 		.ascii	"test_wait_threads\000"
 3882      5F776169 
 3882      745F7468 
 3882      72656164 
 3882      7300
 3883              	.LASF65:
 3884 0540 6D5F6E65 		.ascii	"m_next\000"
 3884      787400
 3885              	.LASF27:
 3886 0547 73797374 		.ascii	"systime_t\000"
 3886      696D655F 
 3886      7400
 3887              	.LASF46:
 3888 0551 705F7265 		.ascii	"p_realprio\000"
 3888      616C7072 
 3888      696F00
 3889              	.LASF7:
 3890 055c 5F5F696E 		.ascii	"__int32_t\000"
 3890      7433325F 
 3890      7400
 3891              	.LASF113:
 3892 0566 70617474 		.ascii	"patterndyn\000"
 3892      65726E64 
 3892      796E00
 3893              	.LASF40:
 3894 0571 705F7469 		.ascii	"p_time\000"
 3894      6D6500
 3895              	.LASF52:
 3896 0578 696E7463 		.ascii	"intctx\000"
 3896      747800
 3897              	.LASF42:
ARM GAS  /tmp/ccSXLDVe.s 			page 74


 3898 057f 705F6D73 		.ascii	"p_msgqueue\000"
 3898      67717565 
 3898      756500
 3899              	.LASF125:
 3900 058a 6368506F 		.ascii	"chPoolInit\000"
 3900      6F6C496E 
 3900      697400
 3901              	.LASF104:
 3902 0595 666F756E 		.ascii	"found\000"
 3902      6400
 3903              	.LASF94:
 3904 059b 74657374 		.ascii	"test_buffers\000"
 3904      5F627566 
 3904      66657273 
 3904      00
 3905              	.LASF76:
 3906 05a8 706F6F6C 		.ascii	"pool_header\000"
 3906      5F686561 
 3906      64657200 
 3907              	.LASF38:
 3908 05b4 705F7265 		.ascii	"p_refs\000"
 3908      667300
 3909              	.LASF61:
 3910 05bb 52656164 		.ascii	"ReadyList\000"
 3910      794C6973 
 3910      7400
 3911              	.LASF103:
 3912 05c5 72656766 		.ascii	"regfind\000"
 3912      696E6400 
 3913              	.LASF107:
 3914 05cd 726C6973 		.ascii	"rlist\000"
 3914      7400
 3915              	.LASF14:
 3916 05d3 75696E74 		.ascii	"uint8_t\000"
 3916      385F7400 
 3917              	.LASF124:
 3918 05db 6368506F 		.ascii	"chPoolAlloc\000"
 3918      6F6C416C 
 3918      6C6F6300 
 3919              	.LASF122:
 3920 05e7 6368506F 		.ascii	"chPoolFree\000"
 3920      6F6C4672 
 3920      656500
 3921              	.LASF84:
 3922 05f2 77746F62 		.ascii	"wtobjp\000"
 3922      6A7000
 3923              	.LASF35:
 3924 05f9 705F6E61 		.ascii	"p_name\000"
 3924      6D6500
 3925              	.LASF117:
 3926 0600 5F746573 		.ascii	"_test_assert\000"
 3926      745F6173 
 3926      73657274 
 3926      00
 3927              	.LASF64:
 3928 060d 6D5F6F77 		.ascii	"m_owner\000"
 3928      6E657200 
ARM GAS  /tmp/ccSXLDVe.s 			page 75


 3929              	.LASF32:
 3930 0615 705F6374 		.ascii	"p_ctx\000"
 3930      7800
 3931              	.LASF41:
 3932 061b 705F7761 		.ascii	"p_waiting\000"
 3932      6974696E 
 3932      6700
 3933              	.LASF106:
 3934 0625 68656170 		.ascii	"heap1\000"
 3934      3100
 3935              	.LASF68:
 3936 062b 6D656D6F 		.ascii	"memory_heap\000"
 3936      72795F68 
 3936      65617000 
 3937              		.ident	"GCC: (GNU Tools for ARM Embedded Processors) 4.9.3 20141119 (release) [ARM/embedded-4_9-br
ARM GAS  /tmp/ccSXLDVe.s 			page 76


DEFINED SYMBOLS
                            *ABS*:0000000000000000 testdyn.c
     /tmp/ccSXLDVe.s:19     .text.dyn1_execute:0000000000000000 $t
     /tmp/ccSXLDVe.s:24     .text.dyn1_execute:0000000000000000 dyn1_execute
     /tmp/ccSXLDVe.s:180    .text.dyn1_execute:00000000000000d4 $d
     /tmp/ccSXLDVe.s:197    .text.thread:0000000000000000 thread
     /tmp/ccSXLDVe.s:192    .text.thread:0000000000000000 $t
     /tmp/ccSXLDVe.s:220    .text.dyn1_setup:0000000000000000 $t
     /tmp/ccSXLDVe.s:225    .text.dyn1_setup:0000000000000000 dyn1_setup
     /tmp/ccSXLDVe.s:241    .text.dyn1_setup:000000000000000c $d
     /tmp/ccSXLDVe.s:247    .text.dyn3_setup:0000000000000000 $t
     /tmp/ccSXLDVe.s:252    .text.dyn3_setup:0000000000000000 dyn3_setup
     /tmp/ccSXLDVe.s:268    .text.dyn3_setup:000000000000000c $d
     /tmp/ccSXLDVe.s:274    .text.dyn2_execute:0000000000000000 $t
     /tmp/ccSXLDVe.s:279    .text.dyn2_execute:0000000000000000 dyn2_execute
     /tmp/ccSXLDVe.s:436    .text.dyn2_execute:00000000000000c8 $d
     /tmp/ccSXLDVe.s:451    .text.dyn2_setup:0000000000000000 $t
     /tmp/ccSXLDVe.s:456    .text.dyn2_setup:0000000000000000 dyn2_setup
     /tmp/ccSXLDVe.s:472    .text.dyn2_setup:000000000000000c $d
     /tmp/ccSXLDVe.s:477    .text.regfind:0000000000000000 $t
     /tmp/ccSXLDVe.s:482    .text.regfind:0000000000000000 regfind
     /tmp/ccSXLDVe.s:528    .text.dyn3_execute:0000000000000000 $t
     /tmp/ccSXLDVe.s:533    .text.dyn3_execute:0000000000000000 dyn3_execute
     /tmp/ccSXLDVe.s:722    .text.dyn3_execute:0000000000000120 $d
     /tmp/ccSXLDVe.s:801    .rodata.patterndyn:0000000000000000 patterndyn
     /tmp/ccSXLDVe.s:755    .rodata.testdyn3:0000000000000000 testdyn3
     /tmp/ccSXLDVe.s:746    .rodata.testdyn2:0000000000000000 testdyn2
     /tmp/ccSXLDVe.s:737    .rodata.testdyn1:0000000000000000 testdyn1
     /tmp/ccSXLDVe.s:734    .rodata.testdyn1:0000000000000000 $d
     /tmp/ccSXLDVe.s:743    .rodata.testdyn2:0000000000000000 $d
     /tmp/ccSXLDVe.s:752    .rodata.testdyn3:0000000000000000 $d
     /tmp/ccSXLDVe.s:761    .bss.mp1:0000000000000000 $d
     /tmp/ccSXLDVe.s:765    .bss.mp1:0000000000000000 mp1
     /tmp/ccSXLDVe.s:768    .rodata.str1.4:0000000000000000 $d
     /tmp/ccSXLDVe.s:798    .rodata.patterndyn:0000000000000000 $d
     /tmp/ccSXLDVe.s:807    .bss.heap1:0000000000000000 $d
     /tmp/ccSXLDVe.s:811    .bss.heap1:0000000000000000 heap1
                     .debug_frame:0000000000000010 $d
     /tmp/ccSXLDVe.s:191    .text.dyn1_execute:00000000000000f4 $t
     /tmp/ccSXLDVe.s:246    .text.dyn1_setup:0000000000000014 $t
     /tmp/ccSXLDVe.s:273    .text.dyn3_setup:0000000000000014 $t
     /tmp/ccSXLDVe.s:450    .text.dyn2_execute:00000000000000f4 $t

UNDEFINED SYMBOLS
chHeapStatus
chThdCreateFromHeap
chHeapAlloc
chHeapFree
_test_assert
test_wait_threads
_test_assert_sequence
rlist
threads
test_emit_token
chHeapInit
test
chPoolFree
ARM GAS  /tmp/ccSXLDVe.s 			page 77


chThdCreateFromMemoryPool
chPoolAlloc
wa
chPoolInit
chRegFirstThread
chRegNextThread
chThdAddRef
chThdRelease
chThdSleep
