ARM GAS  /tmp/ccMIZfR9.s 			page 1


   1              		.syntax unified
   2              		.cpu cortex-m4
   3              		.fpu softvfp
   4              		.eabi_attribute 20, 1
   5              		.eabi_attribute 21, 1
   6              		.eabi_attribute 23, 3
   7              		.eabi_attribute 24, 1
   8              		.eabi_attribute 25, 1
   9              		.eabi_attribute 26, 1
  10              		.eabi_attribute 30, 2
  11              		.eabi_attribute 34, 1
  12              		.eabi_attribute 18, 4
  13              		.thumb
  14              		.file	"testevt.c"
  15              		.text
  16              	.Ltext0:
  17              		.cfi_sections	.debug_frame
  18              		.section	.text.evt1_execute,"ax",%progbits
  19              		.align	2
  20              		.p2align 4,,15
  21              		.thumb
  22              		.thumb_func
  23              		.type	evt1_execute, %function
  24              	evt1_execute:
  25              	.LFB11:
  26              		.file 1 "/home/austin/git/personal/school/motor_control/chibios/test/testevt.c"
  27              		.loc 1 85 0
  28              		.cfi_startproc
  29              		@ args = 0, pretend = 0, frame = 32
  30              		@ frame_needed = 0, uses_anonymous_args = 0
  31 0000 10B5     		push	{r4, lr}
  32              		.cfi_def_cfa_offset 8
  33              		.cfi_offset 4, -8
  34              		.cfi_offset 14, -4
  35              		.loc 1 91 0
  36 0002 1D4C     		ldr	r4, .L7
  37              		.loc 1 85 0
  38 0004 88B0     		sub	sp, sp, #32
  39              		.cfi_def_cfa_offset 40
  40              		.loc 1 92 0
  41 0006 2046     		mov	r0, r4
  42 0008 6946     		mov	r1, sp
  43 000a 0122     		movs	r2, #1
  44              		.loc 1 91 0
  45 000c 2460     		str	r4, [r4]
  46              		.loc 1 92 0
  47 000e FFF7FEFF 		bl	chEvtRegisterMask
  48              	.LVL0:
  49              		.loc 1 93 0
  50 0012 2046     		mov	r0, r4
  51 0014 04A9     		add	r1, sp, #16
  52 0016 0222     		movs	r2, #2
  53 0018 FFF7FEFF 		bl	chEvtRegisterMask
  54              	.LVL1:
  55              		.loc 1 94 0
  56 001c 2168     		ldr	r1, [r4]
  57 001e 091B     		subs	r1, r1, r4
ARM GAS  /tmp/ccMIZfR9.s 			page 2


  58 0020 18BF     		it	ne
  59 0022 0121     		movne	r1, #1
  60 0024 0120     		movs	r0, #1
  61 0026 FFF7FEFF 		bl	_test_assert
  62              	.LVL2:
  63 002a 08B1     		cbz	r0, .L6
  64              	.L1:
  65              		.loc 1 105 0
  66 002c 08B0     		add	sp, sp, #32
  67              		.cfi_remember_state
  68              		.cfi_def_cfa_offset 8
  69              		@ sp needed
  70 002e 10BD     		pop	{r4, pc}
  71              	.L6:
  72              		.cfi_restore_state
  73              		.loc 1 95 0
  74 0030 6946     		mov	r1, sp
  75 0032 2046     		mov	r0, r4
  76 0034 FFF7FEFF 		bl	chEvtUnregister
  77              	.LVL3:
  78              		.loc 1 96 0
  79 0038 2168     		ldr	r1, [r4]
  80 003a 091B     		subs	r1, r1, r4
  81 003c 18BF     		it	ne
  82 003e 0121     		movne	r1, #1
  83 0040 0220     		movs	r0, #2
  84 0042 FFF7FEFF 		bl	_test_assert
  85              	.LVL4:
  86 0046 0028     		cmp	r0, #0
  87 0048 F0D1     		bne	.L1
  88              		.loc 1 97 0
  89 004a 04A9     		add	r1, sp, #16
  90 004c 2046     		mov	r0, r4
  91 004e FFF7FEFF 		bl	chEvtUnregister
  92              	.LVL5:
  93              		.loc 1 98 0
  94 0052 2168     		ldr	r1, [r4]
  95 0054 0320     		movs	r0, #3
  96 0056 091B     		subs	r1, r1, r4
  97 0058 B1FA81F1 		clz	r1, r1
  98 005c 4909     		lsrs	r1, r1, #5
  99 005e FFF7FEFF 		bl	_test_assert
 100              	.LVL6:
 101 0062 0028     		cmp	r0, #0
 102 0064 E2D1     		bne	.L1
 103              		.loc 1 103 0
 104 0066 0548     		ldr	r0, .L7+4
 105 0068 0721     		movs	r1, #7
 106 006a FFF7FEFF 		bl	chEvtDispatch
 107              	.LVL7:
 108              		.loc 1 104 0
 109 006e 0449     		ldr	r1, .L7+8
 110 0070 0420     		movs	r0, #4
 111 0072 FFF7FEFF 		bl	_test_assert_sequence
 112              	.LVL8:
 113 0076 D9E7     		b	.L1
 114              	.L8:
ARM GAS  /tmp/ccMIZfR9.s 			page 3


 115              		.align	2
 116              	.L7:
 117 0078 00000000 		.word	.LANCHOR0
 118 007c 00000000 		.word	.LANCHOR1
 119 0080 00000000 		.word	.LC0
 120              		.cfi_endproc
 121              	.LFE11:
 122              		.size	evt1_execute, .-evt1_execute
 123 0084 AFF30080 		.section	.text.h3,"ax",%progbits
 123      AFF30080 
 123      AFF30080 
 124              		.align	2
 125              		.p2align 4,,15
 126              		.thumb
 127              		.thumb_func
 128              		.type	h3, %function
 129              	h3:
 130              	.LFB10:
 131              		.loc 1 82 0
 132              		.cfi_startproc
 133              		@ args = 0, pretend = 0, frame = 0
 134              		@ frame_needed = 0, uses_anonymous_args = 0
 135              		@ link register save eliminated.
 136              	.LVL9:
 137              		.loc 1 82 0
 138 0000 4320     		movs	r0, #67
 139              	.LVL10:
 140 0002 FFF7FEBF 		b	test_emit_token
 141              	.LVL11:
 142              		.cfi_endproc
 143              	.LFE10:
 144              		.size	h3, .-h3
 145 0006 00BFAFF3 		.section	.text.h2,"ax",%progbits
 145      0080AFF3 
 145      0080
 146              		.align	2
 147              		.p2align 4,,15
 148              		.thumb
 149              		.thumb_func
 150              		.type	h2, %function
 151              	h2:
 152              	.LFB9:
 153              		.loc 1 81 0
 154              		.cfi_startproc
 155              		@ args = 0, pretend = 0, frame = 0
 156              		@ frame_needed = 0, uses_anonymous_args = 0
 157              		@ link register save eliminated.
 158              	.LVL12:
 159              		.loc 1 81 0
 160 0000 4220     		movs	r0, #66
 161              	.LVL13:
 162 0002 FFF7FEBF 		b	test_emit_token
 163              	.LVL14:
 164              		.cfi_endproc
 165              	.LFE9:
 166              		.size	h2, .-h2
 167 0006 00BFAFF3 		.section	.text.h1,"ax",%progbits
ARM GAS  /tmp/ccMIZfR9.s 			page 4


 167      0080AFF3 
 167      0080
 168              		.align	2
 169              		.p2align 4,,15
 170              		.thumb
 171              		.thumb_func
 172              		.type	h1, %function
 173              	h1:
 174              	.LFB8:
 175              		.loc 1 80 0
 176              		.cfi_startproc
 177              		@ args = 0, pretend = 0, frame = 0
 178              		@ frame_needed = 0, uses_anonymous_args = 0
 179              		@ link register save eliminated.
 180              	.LVL15:
 181              		.loc 1 80 0
 182 0000 4120     		movs	r0, #65
 183              	.LVL16:
 184 0002 FFF7FEBF 		b	test_emit_token
 185              	.LVL17:
 186              		.cfi_endproc
 187              	.LFE8:
 188              		.size	h1, .-h1
 189 0006 00BFAFF3 		.section	.text.evt1_setup,"ax",%progbits
 189      0080AFF3 
 189      0080
 190              		.align	2
 191              		.p2align 4,,15
 192              		.thumb
 193              		.thumb_func
 194              		.type	evt1_setup, %function
 195              	evt1_setup:
 196              	.LFB7:
 197              		.loc 1 75 0
 198              		.cfi_startproc
 199              		@ args = 0, pretend = 0, frame = 0
 200              		@ frame_needed = 0, uses_anonymous_args = 0
 201              		@ link register save eliminated.
 202              		.loc 1 77 0
 203 0000 4FF0FF30 		mov	r0, #-1
 204 0004 FFF7FEBF 		b	chEvtGetAndClearEvents
 205              	.LVL18:
 206              		.cfi_endproc
 207              	.LFE7:
 208              		.size	evt1_setup, .-evt1_setup
 209 0008 AFF30080 		.section	.text.evt2_setup,"ax",%progbits
 209      AFF30080 
 210              		.align	2
 211              		.p2align 4,,15
 212              		.thumb
 213              		.thumb_func
 214              		.type	evt2_setup, %function
 215              	evt2_setup:
 216              	.LFB12:
 217              		.loc 1 128 0
 218              		.cfi_startproc
 219              		@ args = 0, pretend = 0, frame = 0
ARM GAS  /tmp/ccMIZfR9.s 			page 5


 220              		@ frame_needed = 0, uses_anonymous_args = 0
 221              		@ link register save eliminated.
 222              		.loc 1 130 0
 223 0000 4FF0FF30 		mov	r0, #-1
 224 0004 FFF7FEBF 		b	chEvtGetAndClearEvents
 225              	.LVL19:
 226              		.cfi_endproc
 227              	.LFE12:
 228              		.size	evt2_setup, .-evt2_setup
 229 0008 AFF30080 		.section	.text.evt3_setup,"ax",%progbits
 229      AFF30080 
 230              		.align	2
 231              		.p2align 4,,15
 232              		.thumb
 233              		.thumb_func
 234              		.type	evt3_setup, %function
 235              	evt3_setup:
 236              	.LFB16:
 237              		.loc 1 247 0
 238              		.cfi_startproc
 239              		@ args = 0, pretend = 0, frame = 0
 240              		@ frame_needed = 0, uses_anonymous_args = 0
 241              		@ link register save eliminated.
 242              		.loc 1 249 0
 243 0000 4FF0FF30 		mov	r0, #-1
 244 0004 FFF7FEBF 		b	chEvtGetAndClearEvents
 245              	.LVL20:
 246              		.cfi_endproc
 247              	.LFE16:
 248              		.size	evt3_setup, .-evt3_setup
 249 0008 AFF30080 		.section	.text.evt2_execute,"ax",%progbits
 249      AFF30080 
 250              		.align	2
 251              		.p2align 4,,15
 252              		.thumb
 253              		.thumb_func
 254              		.type	evt2_execute, %function
 255              	evt2_execute:
 256              	.LFB15:
 257              		.loc 1 149 0
 258              		.cfi_startproc
 259              		@ args = 0, pretend = 0, frame = 40
 260              		@ frame_needed = 0, uses_anonymous_args = 0
 261 0000 2DE9F042 		push	{r4, r5, r6, r7, r9, lr}
 262              		.cfi_def_cfa_offset 24
 263              		.cfi_offset 4, -24
 264              		.cfi_offset 5, -20
 265              		.cfi_offset 6, -16
 266              		.cfi_offset 7, -12
 267              		.cfi_offset 9, -8
 268              		.cfi_offset 14, -4
 269              		.loc 1 157 0
 270 0004 0520     		movs	r0, #5
 271              		.loc 1 149 0
 272 0006 8CB0     		sub	sp, sp, #48
 273              		.cfi_def_cfa_offset 72
 274              		.loc 1 157 0
ARM GAS  /tmp/ccMIZfR9.s 			page 6


 275 0008 FFF7FEFF 		bl	chEvtAddEvents
 276              	.LVL21:
 277              		.loc 1 158 0
 278 000c 4FF0FF30 		mov	r0, #-1
 279 0010 FFF7FEFF 		bl	chEvtWaitOne
 280              	.LVL22:
 281              		.loc 1 159 0
 282 0014 A0F10101 		sub	r1, r0, #1
 283 0018 0120     		movs	r0, #1
 284              	.LVL23:
 285 001a B1FA81F1 		clz	r1, r1
 286              	.LVL24:
 287 001e 4909     		lsrs	r1, r1, #5
 288 0020 FFF7FEFF 		bl	_test_assert
 289              	.LVL25:
 290 0024 10B1     		cbz	r0, .L19
 291              	.L15:
 292              		.loc 1 222 0
 293 0026 0CB0     		add	sp, sp, #48
 294              		.cfi_remember_state
 295              		.cfi_def_cfa_offset 24
 296              		@ sp needed
 297 0028 BDE8F082 		pop	{r4, r5, r6, r7, r9, pc}
 298              	.L19:
 299              		.cfi_restore_state
 300              		.loc 1 160 0
 301 002c 4FF0FF30 		mov	r0, #-1
 302 0030 FFF7FEFF 		bl	chEvtWaitOne
 303              	.LVL26:
 304              		.loc 1 161 0
 305 0034 A0F10401 		sub	r1, r0, #4
 306 0038 0220     		movs	r0, #2
 307              	.LVL27:
 308 003a B1FA81F1 		clz	r1, r1
 309              	.LVL28:
 310 003e 4909     		lsrs	r1, r1, #5
 311 0040 FFF7FEFF 		bl	_test_assert
 312              	.LVL29:
 313 0044 0028     		cmp	r0, #0
 314 0046 EED1     		bne	.L15
 315              		.loc 1 162 0
 316 0048 4FF0FF30 		mov	r0, #-1
 317 004c FFF7FEFF 		bl	chEvtGetAndClearEvents
 318              	.LVL30:
 319              		.loc 1 163 0
 320 0050 B0FA80F1 		clz	r1, r0
 321 0054 0320     		movs	r0, #3
 322              	.LVL31:
 323 0056 4909     		lsrs	r1, r1, #5
 324 0058 FFF7FEFF 		bl	_test_assert
 325              	.LVL32:
 326 005c 0028     		cmp	r0, #0
 327 005e E2D1     		bne	.L15
 328              		.loc 1 170 0
 329 0060 704E     		ldr	r6, .L20
 330              		.loc 1 169 0
 331 0062 714F     		ldr	r7, .L20+4
ARM GAS  /tmp/ccMIZfR9.s 			page 7


 332              		.loc 1 170 0
 333 0064 714D     		ldr	r5, .L20+8
 334              		.loc 1 168 0
 335 0066 FFF7FEFF 		bl	test_wait_tick
 336              	.LVL33:
 337              		.loc 1 170 0
 338 006a B369     		ldr	r3, [r6, #24]
 339 006c 7049     		ldr	r1, .L20+12
 340 006e 9A68     		ldr	r2, [r3, #8]
 341 0070 0968     		ldr	r1, [r1]
 342 0072 0093     		str	r3, [sp]
 343 0074 013A     		subs	r2, r2, #1
 344 0076 0391     		str	r1, [sp, #12]
 345 0078 0846     		mov	r0, r1
 346 007a 6E4B     		ldr	r3, .L20+16
 347              		.loc 1 169 0
 348 007c FC68     		ldr	r4, [r7, #12]
 349              	.LVL34:
 350              		.loc 1 170 0
 351 007e 4FF4A871 		mov	r1, #336
 352 0082 FFF7FEFF 		bl	chThdCreateStatic
 353              	.LVL35:
 354 0086 2860     		str	r0, [r5]
 355              		.loc 1 172 0
 356 0088 4FF0FF30 		mov	r0, #-1
 357 008c FFF7FEFF 		bl	chEvtWaitOne
 358              	.LVL36:
 359              		.loc 1 173 0
 360 0090 04F13201 		add	r1, r4, #50
 361              	.LVL37:
 362              		.loc 1 172 0
 363 0094 8146     		mov	r9, r0
 364              	.LVL38:
 365              		.loc 1 173 0
 366 0096 04F13702 		add	r2, r4, #55
 367 009a 0420     		movs	r0, #4
 368              	.LVL39:
 369 009c FFF7FEFF 		bl	_test_assert_time_window
 370              	.LVL40:
 371 00a0 0028     		cmp	r0, #0
 372 00a2 C0D1     		bne	.L15
 373              		.loc 1 174 0
 374 00a4 A9F10101 		sub	r1, r9, #1
 375 00a8 0520     		movs	r0, #5
 376 00aa B1FA81F1 		clz	r1, r1
 377 00ae 4909     		lsrs	r1, r1, #5
 378 00b0 FFF7FEFF 		bl	_test_assert
 379              	.LVL41:
 380 00b4 0028     		cmp	r0, #0
 381 00b6 B6D1     		bne	.L15
 382              		.loc 1 175 0
 383 00b8 4FF0FF30 		mov	r0, #-1
 384 00bc FFF7FEFF 		bl	chEvtGetAndClearEvents
 385              	.LVL42:
 386              		.loc 1 176 0
 387 00c0 B0FA80F1 		clz	r1, r0
 388 00c4 0620     		movs	r0, #6
ARM GAS  /tmp/ccMIZfR9.s 			page 8


 389              	.LVL43:
 390 00c6 4909     		lsrs	r1, r1, #5
 391 00c8 FFF7FEFF 		bl	_test_assert
 392              	.LVL44:
 393 00cc 0028     		cmp	r0, #0
 394 00ce AAD1     		bne	.L15
 395              		.loc 1 177 0
 396 00d0 FFF7FEFF 		bl	test_wait_threads
 397              	.LVL45:
 398              		.loc 1 182 0
 399 00d4 0520     		movs	r0, #5
 400 00d6 FFF7FEFF 		bl	chEvtAddEvents
 401              	.LVL46:
 402              		.loc 1 183 0
 403 00da 4FF0FF30 		mov	r0, #-1
 404 00de FFF7FEFF 		bl	chEvtWaitAny
 405              	.LVL47:
 406              		.loc 1 184 0
 407 00e2 441F     		subs	r4, r0, #5
 408              	.LVL48:
 409 00e4 6142     		rsbs	r1, r4, #0
 410 00e6 6141     		adcs	r1, r1, r4
 411 00e8 0720     		movs	r0, #7
 412              	.LVL49:
 413 00ea FFF7FEFF 		bl	_test_assert
 414              	.LVL50:
 415 00ee 0028     		cmp	r0, #0
 416 00f0 99D1     		bne	.L15
 417              		.loc 1 185 0
 418 00f2 4FF0FF30 		mov	r0, #-1
 419 00f6 FFF7FEFF 		bl	chEvtGetAndClearEvents
 420              	.LVL51:
 421              		.loc 1 186 0
 422 00fa B0FA80F1 		clz	r1, r0
 423 00fe 0820     		movs	r0, #8
 424              	.LVL52:
 425 0100 4909     		lsrs	r1, r1, #5
 426 0102 FFF7FEFF 		bl	_test_assert
 427              	.LVL53:
 428 0106 0028     		cmp	r0, #0
 429 0108 8DD1     		bne	.L15
 430              		.loc 1 191 0
 431 010a FFF7FEFF 		bl	test_wait_tick
 432              	.LVL54:
 433              		.loc 1 193 0
 434 010e B169     		ldr	r1, [r6, #24]
 435 0110 484B     		ldr	r3, .L20+16
 436 0112 8A68     		ldr	r2, [r1, #8]
 437 0114 0398     		ldr	r0, [sp, #12]
 438 0116 0091     		str	r1, [sp]
 439 0118 013A     		subs	r2, r2, #1
 440 011a 4FF4A871 		mov	r1, #336
 441              		.loc 1 192 0
 442 011e FC68     		ldr	r4, [r7, #12]
 443              	.LVL55:
 444              		.loc 1 193 0
 445 0120 FFF7FEFF 		bl	chThdCreateStatic
ARM GAS  /tmp/ccMIZfR9.s 			page 9


 446              	.LVL56:
 447 0124 2860     		str	r0, [r5]
 448              		.loc 1 195 0
 449 0126 4FF0FF30 		mov	r0, #-1
 450 012a FFF7FEFF 		bl	chEvtWaitAny
 451              	.LVL57:
 452              		.loc 1 196 0
 453 012e 04F13201 		add	r1, r4, #50
 454              	.LVL58:
 455              		.loc 1 195 0
 456 0132 8146     		mov	r9, r0
 457              	.LVL59:
 458              		.loc 1 196 0
 459 0134 04F13702 		add	r2, r4, #55
 460 0138 0920     		movs	r0, #9
 461              	.LVL60:
 462 013a FFF7FEFF 		bl	_test_assert_time_window
 463              	.LVL61:
 464 013e 0028     		cmp	r0, #0
 465 0140 7FF471AF 		bne	.L15
 466              		.loc 1 197 0
 467 0144 09F1FF30 		add	r0, r9, #-1
 468 0148 4142     		rsbs	r1, r0, #0
 469 014a 4141     		adcs	r1, r1, r0
 470 014c 0A20     		movs	r0, #10
 471 014e FFF7FEFF 		bl	_test_assert
 472              	.LVL62:
 473 0152 0028     		cmp	r0, #0
 474 0154 7FF467AF 		bne	.L15
 475              		.loc 1 198 0
 476 0158 4FF0FF30 		mov	r0, #-1
 477 015c FFF7FEFF 		bl	chEvtGetAndClearEvents
 478              	.LVL63:
 479              		.loc 1 199 0
 480 0160 B0FA80F1 		clz	r1, r0
 481 0164 0B20     		movs	r0, #11
 482              	.LVL64:
 483 0166 4909     		lsrs	r1, r1, #5
 484 0168 FFF7FEFF 		bl	_test_assert
 485              	.LVL65:
 486 016c 0028     		cmp	r0, #0
 487 016e 7FF45AAF 		bne	.L15
 488              		.loc 1 205 0
 489 0172 DFF8D090 		ldr	r9, .L20+32
 490              		.loc 1 206 0
 491 0176 304C     		ldr	r4, .L20+20
 492              	.LVL66:
 493              		.loc 1 200 0
 494 0178 FFF7FEFF 		bl	test_wait_threads
 495              	.LVL67:
 496              		.loc 1 207 0
 497 017c 4846     		mov	r0, r9
 498 017e 04A9     		add	r1, sp, #16
 499 0180 0122     		movs	r2, #1
 500              		.loc 1 205 0
 501 0182 C9F80090 		str	r9, [r9]
 502              		.loc 1 206 0
ARM GAS  /tmp/ccMIZfR9.s 			page 10


 503 0186 2460     		str	r4, [r4]
 504              		.loc 1 207 0
 505 0188 FFF7FEFF 		bl	chEvtRegisterMask
 506              	.LVL68:
 507              		.loc 1 208 0
 508 018c 08A9     		add	r1, sp, #32
 509 018e 0422     		movs	r2, #4
 510 0190 2046     		mov	r0, r4
 511 0192 FFF7FEFF 		bl	chEvtRegisterMask
 512              	.LVL69:
 513              		.loc 1 209 0
 514 0196 FFF7FEFF 		bl	test_wait_tick
 515              	.LVL70:
 516              		.loc 1 211 0
 517 019a B369     		ldr	r3, [r6, #24]
 518 019c 2749     		ldr	r1, .L20+24
 519 019e 9A68     		ldr	r2, [r3, #8]
 520 01a0 0398     		ldr	r0, [sp, #12]
 521 01a2 0091     		str	r1, [sp]
 522 01a4 013A     		subs	r2, r2, #1
 523 01a6 4FF4A871 		mov	r1, #336
 524 01aa 254B     		ldr	r3, .L20+28
 525              		.loc 1 210 0
 526 01ac FE68     		ldr	r6, [r7, #12]
 527              	.LVL71:
 528              		.loc 1 211 0
 529 01ae FFF7FEFF 		bl	chThdCreateStatic
 530              	.LVL72:
 531 01b2 2860     		str	r0, [r5]
 532              		.loc 1 213 0
 533 01b4 0520     		movs	r0, #5
 534 01b6 FFF7FEFF 		bl	chEvtWaitAll
 535              	.LVL73:
 536              		.loc 1 214 0
 537 01ba 06F13201 		add	r1, r6, #50
 538              	.LVL74:
 539 01be 06F13702 		add	r2, r6, #55
 540 01c2 0C20     		movs	r0, #12
 541 01c4 FFF7FEFF 		bl	_test_assert_time_window
 542              	.LVL75:
 543 01c8 0028     		cmp	r0, #0
 544 01ca 7FF42CAF 		bne	.L15
 545              		.loc 1 215 0
 546 01ce 4FF0FF30 		mov	r0, #-1
 547 01d2 FFF7FEFF 		bl	chEvtGetAndClearEvents
 548              	.LVL76:
 549              		.loc 1 216 0
 550 01d6 B0FA80F1 		clz	r1, r0
 551 01da 0D20     		movs	r0, #13
 552              	.LVL77:
 553 01dc 4909     		lsrs	r1, r1, #5
 554 01de FFF7FEFF 		bl	_test_assert
 555              	.LVL78:
 556 01e2 0028     		cmp	r0, #0
 557 01e4 7FF41FAF 		bne	.L15
 558              		.loc 1 217 0
 559 01e8 FFF7FEFF 		bl	test_wait_threads
ARM GAS  /tmp/ccMIZfR9.s 			page 11


 560              	.LVL79:
 561              		.loc 1 218 0
 562 01ec 4846     		mov	r0, r9
 563 01ee 04A9     		add	r1, sp, #16
 564 01f0 FFF7FEFF 		bl	chEvtUnregister
 565              	.LVL80:
 566              		.loc 1 219 0
 567 01f4 2046     		mov	r0, r4
 568 01f6 08A9     		add	r1, sp, #32
 569 01f8 FFF7FEFF 		bl	chEvtUnregister
 570              	.LVL81:
 571              		.loc 1 220 0
 572 01fc D9F80010 		ldr	r1, [r9]
 573 0200 C9EB0102 		rsb	r2, r9, r1
 574 0204 5142     		rsbs	r1, r2, #0
 575 0206 5141     		adcs	r1, r1, r2
 576 0208 0E20     		movs	r0, #14
 577 020a FFF7FEFF 		bl	_test_assert
 578              	.LVL82:
 579 020e 0028     		cmp	r0, #0
 580 0210 7FF409AF 		bne	.L15
 581              		.loc 1 221 0
 582 0214 2168     		ldr	r1, [r4]
 583 0216 0B1B     		subs	r3, r1, r4
 584 0218 5942     		rsbs	r1, r3, #0
 585 021a 5941     		adcs	r1, r1, r3
 586 021c 0F20     		movs	r0, #15
 587 021e FFF7FEFF 		bl	_test_assert
 588              	.LVL83:
 589 0222 00E7     		b	.L15
 590              	.L21:
 591              		.align	2
 592              	.L20:
 593 0224 00000000 		.word	rlist
 594 0228 00000000 		.word	vtlist
 595 022c 00000000 		.word	threads
 596 0230 00000000 		.word	wa
 597 0234 00000000 		.word	thread1
 598 0238 00000000 		.word	.LANCHOR2
 599 023c 04000000 		.word	.LC1
 600 0240 00000000 		.word	thread2
 601 0244 00000000 		.word	.LANCHOR0
 602              		.cfi_endproc
 603              	.LFE15:
 604              		.size	evt2_execute, .-evt2_execute
 605 0248 AFF30080 		.section	.text.thread2,"ax",%progbits
 605      AFF30080 
 606              		.align	2
 607              		.p2align 4,,15
 608              		.thumb
 609              		.thumb_func
 610              		.type	thread2, %function
 611              	thread2:
 612              	.LFB14:
 613              		.loc 1 140 0
 614              		.cfi_startproc
 615              		@ args = 0, pretend = 0, frame = 0
ARM GAS  /tmp/ccMIZfR9.s 			page 12


 616              		@ frame_needed = 0, uses_anonymous_args = 0
 617              	.LVL84:
 618 0000 08B5     		push	{r3, lr}
 619              		.cfi_def_cfa_offset 8
 620              		.cfi_offset 3, -8
 621              		.cfi_offset 14, -4
 622              		.loc 1 143 0
 623 0002 0021     		movs	r1, #0
 624 0004 0548     		ldr	r0, .L24
 625              	.LVL85:
 626 0006 FFF7FEFF 		bl	chEvtBroadcastFlags
 627              	.LVL86:
 628              		.loc 1 144 0
 629 000a 3220     		movs	r0, #50
 630 000c FFF7FEFF 		bl	chThdSleep
 631              	.LVL87:
 632              		.loc 1 145 0
 633 0010 0348     		ldr	r0, .L24+4
 634 0012 0021     		movs	r1, #0
 635 0014 FFF7FEFF 		bl	chEvtBroadcastFlags
 636              	.LVL88:
 637              		.loc 1 147 0
 638 0018 0020     		movs	r0, #0
 639 001a 08BD     		pop	{r3, pc}
 640              	.L25:
 641              		.align	2
 642              	.L24:
 643 001c 00000000 		.word	.LANCHOR0
 644 0020 00000000 		.word	.LANCHOR2
 645              		.cfi_endproc
 646              	.LFE14:
 647              		.size	thread2, .-thread2
 648 0024 AFF30080 		.section	.text.thread1,"ax",%progbits
 648      AFF30080 
 648      AFF30080 
 649              		.align	2
 650              		.p2align 4,,15
 651              		.thumb
 652              		.thumb_func
 653              		.type	thread1, %function
 654              	thread1:
 655              	.LFB13:
 656              		.loc 1 133 0
 657              		.cfi_startproc
 658              		@ args = 0, pretend = 0, frame = 0
 659              		@ frame_needed = 0, uses_anonymous_args = 0
 660              	.LVL89:
 661 0000 10B5     		push	{r4, lr}
 662              		.cfi_def_cfa_offset 8
 663              		.cfi_offset 4, -8
 664              		.cfi_offset 14, -4
 665              		.loc 1 133 0
 666 0002 0446     		mov	r4, r0
 667              		.loc 1 135 0
 668 0004 3220     		movs	r0, #50
 669              	.LVL90:
 670 0006 FFF7FEFF 		bl	chThdSleep
ARM GAS  /tmp/ccMIZfR9.s 			page 13


 671              	.LVL91:
 672              		.loc 1 136 0
 673 000a 2046     		mov	r0, r4
 674 000c 0121     		movs	r1, #1
 675 000e FFF7FEFF 		bl	chEvtSignal
 676              	.LVL92:
 677              		.loc 1 138 0
 678 0012 0020     		movs	r0, #0
 679 0014 10BD     		pop	{r4, pc}
 680              		.cfi_endproc
 681              	.LFE13:
 682              		.size	thread1, .-thread1
 683 0016 00BFAFF3 		.section	.text.evt3_execute,"ax",%progbits
 683      0080AFF3 
 683      0080
 684              		.align	2
 685              		.p2align 4,,15
 686              		.thumb
 687              		.thumb_func
 688              		.type	evt3_execute, %function
 689              	evt3_execute:
 690              	.LFB17:
 691              		.loc 1 252 0
 692              		.cfi_startproc
 693              		@ args = 0, pretend = 0, frame = 0
 694              		@ frame_needed = 0, uses_anonymous_args = 0
 695 0000 08B5     		push	{r3, lr}
 696              		.cfi_def_cfa_offset 8
 697              		.cfi_offset 3, -8
 698              		.cfi_offset 14, -4
 699              		.loc 1 258 0
 700 0002 0021     		movs	r1, #0
 701 0004 4FF0FF30 		mov	r0, #-1
 702 0008 FFF7FEFF 		bl	chEvtWaitOneTimeout
 703              	.LVL93:
 704              		.loc 1 259 0
 705 000c B0FA80F1 		clz	r1, r0
 706 0010 0120     		movs	r0, #1
 707              	.LVL94:
 708 0012 4909     		lsrs	r1, r1, #5
 709 0014 FFF7FEFF 		bl	_test_assert
 710              	.LVL95:
 711 0018 00B1     		cbz	r0, .L33
 712              	.L28:
 713 001a 08BD     		pop	{r3, pc}
 714              	.L33:
 715              		.loc 1 260 0
 716 001c 0146     		mov	r1, r0
 717 001e 4FF0FF30 		mov	r0, #-1
 718 0022 FFF7FEFF 		bl	chEvtWaitAnyTimeout
 719              	.LVL96:
 720              		.loc 1 261 0
 721 0026 B0FA80F1 		clz	r1, r0
 722 002a 0220     		movs	r0, #2
 723              	.LVL97:
 724 002c 4909     		lsrs	r1, r1, #5
 725 002e FFF7FEFF 		bl	_test_assert
ARM GAS  /tmp/ccMIZfR9.s 			page 14


 726              	.LVL98:
 727 0032 0028     		cmp	r0, #0
 728 0034 F1D1     		bne	.L28
 729              		.loc 1 262 0
 730 0036 0146     		mov	r1, r0
 731 0038 4FF0FF30 		mov	r0, #-1
 732 003c FFF7FEFF 		bl	chEvtWaitAllTimeout
 733              	.LVL99:
 734              		.loc 1 263 0
 735 0040 B0FA80F1 		clz	r1, r0
 736 0044 0320     		movs	r0, #3
 737              	.LVL100:
 738 0046 4909     		lsrs	r1, r1, #5
 739 0048 FFF7FEFF 		bl	_test_assert
 740              	.LVL101:
 741 004c 0028     		cmp	r0, #0
 742 004e E4D1     		bne	.L28
 743              	.LBB4:
 744              	.LBB5:
 745              		.loc 1 264 0
 746 0050 0A21     		movs	r1, #10
 747 0052 4FF0FF30 		mov	r0, #-1
 748 0056 FFF7FEFF 		bl	chEvtWaitOneTimeout
 749              	.LVL102:
 750              		.loc 1 265 0
 751 005a B0FA80F1 		clz	r1, r0
 752 005e 0420     		movs	r0, #4
 753              	.LVL103:
 754 0060 4909     		lsrs	r1, r1, #5
 755 0062 FFF7FEFF 		bl	_test_assert
 756              	.LVL104:
 757 0066 0028     		cmp	r0, #0
 758 0068 D7D1     		bne	.L28
 759              		.loc 1 266 0
 760 006a 0A21     		movs	r1, #10
 761 006c 4FF0FF30 		mov	r0, #-1
 762 0070 FFF7FEFF 		bl	chEvtWaitAnyTimeout
 763              	.LVL105:
 764              		.loc 1 267 0
 765 0074 B0FA80F1 		clz	r1, r0
 766 0078 0520     		movs	r0, #5
 767              	.LVL106:
 768 007a 4909     		lsrs	r1, r1, #5
 769 007c FFF7FEFF 		bl	_test_assert
 770              	.LVL107:
 771 0080 0028     		cmp	r0, #0
 772 0082 CAD1     		bne	.L28
 773              		.loc 1 268 0
 774 0084 0A21     		movs	r1, #10
 775 0086 4FF0FF30 		mov	r0, #-1
 776 008a FFF7FEFF 		bl	chEvtWaitAllTimeout
 777              	.LVL108:
 778              	.LBE5:
 779              	.LBE4:
 780              		.loc 1 270 0
 781 008e BDE80840 		pop	{r3, lr}
 782              		.cfi_restore 14
ARM GAS  /tmp/ccMIZfR9.s 			page 15


 783              		.cfi_restore 3
 784              		.cfi_def_cfa_offset 0
 785              	.LBB7:
 786              	.LBB6:
 787              		.loc 1 269 0
 788 0092 B0FA80F1 		clz	r1, r0
 789 0096 0620     		movs	r0, #6
 790              	.LVL109:
 791 0098 4909     		lsrs	r1, r1, #5
 792 009a FFF7FEBF 		b	_test_assert
 793              	.LVL110:
 794              	.LBE6:
 795              	.LBE7:
 796              		.cfi_endproc
 797              	.LFE17:
 798              		.size	evt3_execute, .-evt3_execute
 799              		.global	patternevt
 800              		.global	testevt3
 801              		.global	testevt2
 802              		.global	testevt1
 803 009e 00BF     		.section	.rodata.patternevt,"a",%progbits
 804              		.align	2
 805              		.type	patternevt, %object
 806              		.size	patternevt, 16
 807              	patternevt:
 808 0000 00000000 		.word	testevt1
 809 0004 00000000 		.word	testevt2
 810 0008 00000000 		.word	testevt3
 811 000c 00000000 		.word	0
 812              		.section	.rodata.testevt2,"a",%progbits
 813              		.align	2
 814              		.type	testevt2, %object
 815              		.size	testevt2, 16
 816              	testevt2:
 817 0000 1C000000 		.word	.LC3
 818 0004 00000000 		.word	evt2_setup
 819 0008 00000000 		.word	0
 820 000c 00000000 		.word	evt2_execute
 821              		.section	.rodata.str1.4,"aMS",%progbits,1
 822              		.align	2
 823              	.LC0:
 824 0000 41424300 		.ascii	"ABC\000"
 825              	.LC1:
 826 0004 4100     		.ascii	"A\000"
 827 0006 0000     		.space	2
 828              	.LC2:
 829 0008 4576656E 		.ascii	"Events, timeouts\000"
 829      74732C20 
 829      74696D65 
 829      6F757473 
 829      00
 830 0019 000000   		.space	3
 831              	.LC3:
 832 001c 4576656E 		.ascii	"Events, wait and broadcast\000"
 832      74732C20 
 832      77616974 
 832      20616E64 
ARM GAS  /tmp/ccMIZfR9.s 			page 16


 832      2062726F 
 833 0037 00       		.space	1
 834              	.LC4:
 835 0038 4576656E 		.ascii	"Events, registration and dispatch\000"
 835      74732C20 
 835      72656769 
 835      73747261 
 835      74696F6E 
 836 005a 0000     		.section	.rodata.testevt1,"a",%progbits
 837              		.align	2
 838              		.type	testevt1, %object
 839              		.size	testevt1, 16
 840              	testevt1:
 841 0000 38000000 		.word	.LC4
 842 0004 00000000 		.word	evt1_setup
 843 0008 00000000 		.word	0
 844 000c 00000000 		.word	evt1_execute
 845              		.section	.rodata.evhndl,"a",%progbits
 846              		.align	2
 847              		.set	.LANCHOR1,. + 0
 848              		.type	evhndl, %object
 849              		.size	evhndl, 12
 850              	evhndl:
 851 0000 00000000 		.word	h1
 852 0004 00000000 		.word	h2
 853 0008 00000000 		.word	h3
 854              		.section	.rodata.testevt3,"a",%progbits
 855              		.align	2
 856              		.type	testevt3, %object
 857              		.size	testevt3, 16
 858              	testevt3:
 859 0000 08000000 		.word	.LC2
 860 0004 00000000 		.word	evt3_setup
 861 0008 00000000 		.word	0
 862 000c 00000000 		.word	evt3_execute
 863              		.section	.data.es1,"aw",%progbits
 864              		.align	2
 865              		.set	.LANCHOR0,. + 0
 866              		.type	es1, %object
 867              		.size	es1, 4
 868              	es1:
 869 0000 00000000 		.word	es1
 870              		.section	.data.es2,"aw",%progbits
 871              		.align	2
 872              		.set	.LANCHOR2,. + 0
 873              		.type	es2, %object
 874              		.size	es2, 4
 875              	es2:
 876 0000 00000000 		.word	es2
 877              		.text
 878              	.Letext0:
 879              		.file 2 "/usr/lib/gcc/arm-none-eabi/4.9.3/include/stddef.h"
 880              		.file 3 "/usr/arm-none-eabi/include/machine/_default_types.h"
 881              		.file 4 "/usr/arm-none-eabi/include/stdint.h"
 882              		.file 5 "/home/austin/git/personal/school/motor_control/chibios/os/ports/GCC/ARMCMx/chtypes.h"
 883              		.file 6 "/home/austin/git/personal/school/motor_control/chibios/os/kernel/include/chlists.h"
 884              		.file 7 "/home/austin/git/personal/school/motor_control/chibios/os/kernel/include/chthreads.h"
ARM GAS  /tmp/ccMIZfR9.s 			page 17


 885              		.file 8 "/home/austin/git/personal/school/motor_control/chibios/os/ports/GCC/ARMCMx/chcore_v7m.h"
 886              		.file 9 "/home/austin/git/personal/school/motor_control/chibios/os/kernel/include/chvt.h"
 887              		.file 10 "/home/austin/git/personal/school/motor_control/chibios/os/kernel/include/chschd.h"
 888              		.file 11 "/home/austin/git/personal/school/motor_control/chibios/os/kernel/include/chmtx.h"
 889              		.file 12 "/home/austin/git/personal/school/motor_control/chibios/os/kernel/include/chevents.h"
 890              		.file 13 "/home/austin/git/personal/school/motor_control/chibios/test/test.h"