ARM GAS  /tmp/ccSXLDVe.s 			page 1


   1              		.syntax unified
   2              		.cpu cortex-m4
   3              		.fpu softvfp
   4              		.eabi_attribute 20, 1
   5              		.eabi_attribute 21, 1
   6              		.eabi_attribute 23, 3
   7              		.eabi_attribute 24, 1
   8              		.eabi_attribute 25, 1
   9              		.eabi_attribute 26, 1
  10              		.eabi_attribute 30, 2
  11              		.eabi_attribute 34, 1
  12              		.eabi_attribute 18, 4
  13              		.thumb
  14              		.file	"testdyn.c"
  15              		.text
  16              	.Ltext0:
  17              		.cfi_sections	.debug_frame
  18              		.section	.text.dyn1_execute,"ax",%progbits
  19              		.align	2
  20              		.p2align 4,,15
  21              		.thumb
  22              		.thumb_func
  23              		.type	dyn1_execute, %function
  24              	dyn1_execute:
  25              	.LFB9:
  26              		.file 1 "/home/austin/git/personal/school/motor_control/chibios/test/testdyn.c"
  27              		.loc 1 83 0
  28              		.cfi_startproc
  29              		@ args = 0, pretend = 0, frame = 8
  30              		@ frame_needed = 0, uses_anonymous_args = 0
  31 0000 70B5     		push	{r4, r5, r6, lr}
  32              		.cfi_def_cfa_offset 16
  33              		.cfi_offset 4, -16
  34              		.cfi_offset 5, -12
  35              		.cfi_offset 6, -8
  36              		.cfi_offset 14, -4
  37              		.loc 1 86 0
  38 0002 344B     		ldr	r3, .L13
  39              		.loc 1 88 0
  40 0004 3448     		ldr	r0, .L13+4
  41              		.loc 1 86 0
  42 0006 9B69     		ldr	r3, [r3, #24]
  43              		.loc 1 90 0
  44 0008 344C     		ldr	r4, .L13+8
  45              		.loc 1 86 0
  46 000a 9D68     		ldr	r5, [r3, #8]
  47              	.LVL0:
  48              		.loc 1 83 0
  49 000c 84B0     		sub	sp, sp, #16
  50              		.cfi_def_cfa_offset 32
  51              		.loc 1 88 0
  52 000e 03A9     		add	r1, sp, #12
  53 0010 FFF7FEFF 		bl	chHeapStatus
  54              	.LVL1:
  55              		.loc 1 90 0
  56 0014 324B     		ldr	r3, .L13+12
  57 0016 0093     		str	r3, [sp]
ARM GAS  /tmp/ccSXLDVe.s 			page 2


  58 0018 6A1E     		subs	r2, r5, #1
  59 001a 324B     		ldr	r3, .L13+16
  60 001c 2E48     		ldr	r0, .L13+4
  61 001e 4FF4A871 		mov	r1, #336
  62 0022 FFF7FEFF 		bl	chThdCreateFromHeap
  63              	.LVL2:
  64              		.loc 1 92 0
  65 0026 304B     		ldr	r3, .L13+20
  66              		.loc 1 90 0
  67 0028 2060     		str	r0, [r4]
  68              		.loc 1 92 0
  69 002a AA1E     		subs	r2, r5, #2
  70 002c 0093     		str	r3, [sp]
  71 002e 4FF4A871 		mov	r1, #336
  72 0032 2C4B     		ldr	r3, .L13+16
  73 0034 2848     		ldr	r0, .L13+4
  74 0036 FFF7FEFF 		bl	chThdCreateFromHeap
  75              	.LVL3:
  76              		.loc 1 95 0
  77 003a 02A9     		add	r1, sp, #8
  78              		.loc 1 92 0
  79 003c 6060     		str	r0, [r4, #4]
  80              		.loc 1 95 0
  81 003e 2648     		ldr	r0, .L13+4
  82 0040 FFF7FEFF 		bl	chHeapStatus
  83              	.LVL4:
  84              		.loc 1 96 0
  85 0044 0299     		ldr	r1, [sp, #8]
  86 0046 2448     		ldr	r0, .L13+4
  87 0048 FFF7FEFF 		bl	chHeapAlloc
  88              	.LVL5:
  89              		.loc 1 97 0
  90 004c 274B     		ldr	r3, .L13+24
  91 004e 0093     		str	r3, [sp]
  92 0050 4FF4A871 		mov	r1, #336
  93              		.loc 1 96 0
  94 0054 0646     		mov	r6, r0
  95              	.LVL6:
  96              		.loc 1 97 0
  97 0056 EA1E     		subs	r2, r5, #3
  98 0058 224B     		ldr	r3, .L13+16
  99 005a 1F48     		ldr	r0, .L13+4
 100              	.LVL7:
 101 005c FFF7FEFF 		bl	chThdCreateFromHeap
 102              	.LVL8:
 103 0060 A060     		str	r0, [r4, #8]
 104              		.loc 1 99 0
 105 0062 3046     		mov	r0, r6
 106 0064 FFF7FEFF 		bl	chHeapFree
 107              	.LVL9:
 108              		.loc 1 101 0
 109 0068 2168     		ldr	r1, [r4]
 110 006a 21B1     		cbz	r1, .L2
 111              		.loc 1 101 0 is_stmt 0 discriminator 1
 112 006c 6168     		ldr	r1, [r4, #4]
 113 006e 11B1     		cbz	r1, .L2
 114              		.loc 1 101 0 discriminator 3
ARM GAS  /tmp/ccSXLDVe.s 			page 3


 115 0070 A168     		ldr	r1, [r4, #8]
 116 0072 31B3     		cbz	r1, .L11
 117 0074 0021     		movs	r1, #0
 118              	.L2:
 119              		.loc 1 101 0 discriminator 12
 120 0076 0120     		movs	r0, #1
 121 0078 FFF7FEFF 		bl	_test_assert
 122              	.LVL10:
 123 007c 08B1     		cbz	r0, .L12
 124              	.L1:
 125              		.loc 1 115 0 is_stmt 1
 126 007e 04B0     		add	sp, sp, #16
 127              		.cfi_remember_state
 128              		.cfi_def_cfa_offset 16
 129              		@ sp needed
 130 0080 70BD     		pop	{r4, r5, r6, pc}
 131              	.LVL11:
 132              	.L12:
 133              		.cfi_restore_state
 134              		.loc 1 109 0
 135 0082 FFF7FEFF 		bl	test_wait_threads
 136              	.LVL12:
 137              		.loc 1 110 0
 138 0086 0220     		movs	r0, #2
 139 0088 1949     		ldr	r1, .L13+28
 140 008a FFF7FEFF 		bl	_test_assert_sequence
 141              	.LVL13:
 142 008e 0028     		cmp	r0, #0
 143 0090 F5D1     		bne	.L1
 144              		.loc 1 113 0
 145 0092 02A9     		add	r1, sp, #8
 146 0094 1048     		ldr	r0, .L13+4
 147 0096 FFF7FEFF 		bl	chHeapStatus
 148              	.LVL14:
 149 009a A0F10101 		sub	r1, r0, #1
 150 009e 0320     		movs	r0, #3
 151 00a0 B1FA81F1 		clz	r1, r1
 152 00a4 4909     		lsrs	r1, r1, #5
 153 00a6 FFF7FEFF 		bl	_test_assert
 154              	.LVL15:
 155 00aa 0028     		cmp	r0, #0
 156 00ac E7D1     		bne	.L1
 157              		.loc 1 114 0
 158 00ae 0299     		ldr	r1, [sp, #8]
 159 00b0 039B     		ldr	r3, [sp, #12]
 160 00b2 0420     		movs	r0, #4
 161 00b4 C91A     		subs	r1, r1, r3
 162 00b6 B1FA81F1 		clz	r1, r1
 163 00ba 4909     		lsrs	r1, r1, #5
 164 00bc FFF7FEFF 		bl	_test_assert
 165              	.LVL16:
 166 00c0 DDE7     		b	.L1
 167              	.L11:
 168              		.loc 1 101 0 discriminator 5
 169 00c2 E368     		ldr	r3, [r4, #12]
 170 00c4 002B     		cmp	r3, #0
 171 00c6 D6D1     		bne	.L2
ARM GAS  /tmp/ccSXLDVe.s 			page 4


 172              		.loc 1 101 0 is_stmt 0 discriminator 7
 173 00c8 2169     		ldr	r1, [r4, #16]
 174 00ca B1FA81F1 		clz	r1, r1
 175 00ce 4909     		lsrs	r1, r1, #5
 176 00d0 D1E7     		b	.L2
 177              	.L14:
 178 00d2 00BF     		.align	2
 179              	.L13:
 180 00d4 00000000 		.word	rlist
 181 00d8 00000000 		.word	.LANCHOR0
 182 00dc 00000000 		.word	threads
 183 00e0 00000000 		.word	.LC0
 184 00e4 00000000 		.word	thread
 185 00e8 04000000 		.word	.LC1
 186 00ec 08000000 		.word	.LC2
 187 00f0 0C000000 		.word	.LC3
 188              		.cfi_endproc
 189              	.LFE9:
 190              		.size	dyn1_execute, .-dyn1_execute
 191 00f4 AFF30080 		.section	.text.thread,"ax",%progbits
 191      AFF30080 
 191      AFF30080 
 192              		.align	2
 193              		.p2align 4,,15
 194              		.thumb
 195              		.thumb_func
 196              		.type	thread, %function
 197              	thread:
 198              	.LFB7:
 199              		.loc 1 71 0 is_stmt 1
 200              		.cfi_startproc
 201              		@ args = 0, pretend = 0, frame = 0
 202              		@ frame_needed = 0, uses_anonymous_args = 0
 203              	.LVL17:
 204 0000 08B5     		push	{r3, lr}
 205              		.cfi_def_cfa_offset 8
 206              		.cfi_offset 3, -8
 207              		.cfi_offset 14, -4
 208              		.loc 1 73 0
 209 0002 0078     		ldrb	r0, [r0]	@ zero_extendqisi2
 210              	.LVL18:
 211 0004 FFF7FEFF 		bl	test_emit_token
 212              	.LVL19:
 213              		.loc 1 75 0
 214 0008 0020     		movs	r0, #0
 215 000a 08BD     		pop	{r3, pc}
 216              		.cfi_endproc
 217              	.LFE7:
 218              		.size	thread, .-thread
 219 000c AFF30080 		.section	.text.dyn1_setup,"ax",%progbits
 220              		.align	2
 221              		.p2align 4,,15
 222              		.thumb
 223              		.thumb_func
 224              		.type	dyn1_setup, %function
 225              	dyn1_setup:
 226              	.LFB8:
ARM GAS  /tmp/ccSXLDVe.s 			page 5


 227              		.loc 1 78 0
 228              		.cfi_startproc
 229              		@ args = 0, pretend = 0, frame = 0
 230              		@ frame_needed = 0, uses_anonymous_args = 0
 231              		@ link register save eliminated.
 232              		.loc 1 80 0
 233 0000 0248     		ldr	r0, .L18
 234 0002 0349     		ldr	r1, .L18+4
 235 0004 4FF4D262 		mov	r2, #1680
 236 0008 FFF7FEBF 		b	chHeapInit
 237              	.LVL20:
 238              	.L19:
 239              		.align	2
 240              	.L18:
 241 000c 00000000 		.word	.LANCHOR0
 242 0010 00000000 		.word	test
 243              		.cfi_endproc
 244              	.LFE8:
 245              		.size	dyn1_setup, .-dyn1_setup
 246 0014 AFF30080 		.section	.text.dyn3_setup,"ax",%progbits
 246      AFF30080 
 246      AFF30080 
 247              		.align	2
 248              		.p2align 4,,15
 249              		.thumb
 250              		.thumb_func
 251              		.type	dyn3_setup, %function
 252              	dyn3_setup:
 253              	.LFB13:
 254              		.loc 1 203 0
 255              		.cfi_startproc
 256              		@ args = 0, pretend = 0, frame = 0
 257              		@ frame_needed = 0, uses_anonymous_args = 0
 258              		@ link register save eliminated.
 259              		.loc 1 205 0
 260 0000 0248     		ldr	r0, .L21
 261 0002 0349     		ldr	r1, .L21+4
 262 0004 4FF4D262 		mov	r2, #1680
 263 0008 FFF7FEBF 		b	chHeapInit
 264              	.LVL21:
 265              	.L22:
 266              		.align	2
 267              	.L21:
 268 000c 00000000 		.word	.LANCHOR0
 269 0010 00000000 		.word	test
 270              		.cfi_endproc
 271              	.LFE13:
 272              		.size	dyn3_setup, .-dyn3_setup
 273 0014 AFF30080 		.section	.text.dyn2_execute,"ax",%progbits
 273      AFF30080 
 273      AFF30080 
 274              		.align	2
 275              		.p2align 4,,15
 276              		.thumb
 277              		.thumb_func
 278              		.type	dyn2_execute, %function
 279              	dyn2_execute:
ARM GAS  /tmp/ccSXLDVe.s 			page 6


 280              	.LFB11:
 281              		.loc 1 141 0
 282              		.cfi_startproc
 283              		@ args = 0, pretend = 0, frame = 0
 284              		@ frame_needed = 0, uses_anonymous_args = 0
 285              		.loc 1 143 0
 286 0000 314B     		ldr	r3, .L38
 287 0002 9B69     		ldr	r3, [r3, #24]
 288              		.loc 1 141 0
 289 0004 70B5     		push	{r4, r5, r6, lr}
 290              		.cfi_def_cfa_offset 16
 291              		.cfi_offset 4, -16
 292              		.cfi_offset 5, -12
 293              		.cfi_offset 6, -8
 294              		.cfi_offset 14, -4
 295 0006 314C     		ldr	r4, .L38+4
 296              		.loc 1 143 0
 297 0008 9D68     		ldr	r5, [r3, #8]
 298              	.LVL22:
 299 000a 04F11006 		add	r6, r4, #16
 300              	.LVL23:
 301              	.L24:
 302              		.loc 1 147 0 discriminator 3
 303 000e 54F8041B 		ldr	r1, [r4], #4
 304 0012 2F48     		ldr	r0, .L38+8
 305 0014 FFF7FEFF 		bl	chPoolFree
 306              	.LVL24:
 307              		.loc 1 146 0 discriminator 3
 308 0018 B442     		cmp	r4, r6
 309 001a F8D1     		bne	.L24
 310              		.loc 1 150 0
 311 001c 2D4A     		ldr	r2, .L38+12
 312 001e 2E4B     		ldr	r3, .L38+16
 313 0020 2B48     		ldr	r0, .L38+8
 314 0022 2E4C     		ldr	r4, .L38+20
 315 0024 691E     		subs	r1, r5, #1
 316 0026 FFF7FEFF 		bl	chThdCreateFromMemoryPool
 317              	.LVL25:
 318              		.loc 1 151 0
 319 002a A91E     		subs	r1, r5, #2
 320              		.loc 1 150 0
 321 002c 2060     		str	r0, [r4]
 322              		.loc 1 151 0
 323 002e 294A     		ldr	r2, .L38+12
 324 0030 2B4B     		ldr	r3, .L38+24
 325 0032 2748     		ldr	r0, .L38+8
 326 0034 FFF7FEFF 		bl	chThdCreateFromMemoryPool
 327              	.LVL26:
 328              		.loc 1 152 0
 329 0038 E91E     		subs	r1, r5, #3
 330              		.loc 1 151 0
 331 003a 6060     		str	r0, [r4, #4]
 332              		.loc 1 152 0
 333 003c 254A     		ldr	r2, .L38+12
 334 003e 294B     		ldr	r3, .L38+28
 335 0040 2348     		ldr	r0, .L38+8
 336 0042 FFF7FEFF 		bl	chThdCreateFromMemoryPool
ARM GAS  /tmp/ccSXLDVe.s 			page 7


 337              	.LVL27:
 338              		.loc 1 153 0
 339 0046 291F     		subs	r1, r5, #4
 340              		.loc 1 152 0
 341 0048 A060     		str	r0, [r4, #8]
 342              		.loc 1 153 0
 343 004a 224A     		ldr	r2, .L38+12
 344 004c 264B     		ldr	r3, .L38+32
 345 004e 2048     		ldr	r0, .L38+8
 346 0050 FFF7FEFF 		bl	chThdCreateFromMemoryPool
 347              	.LVL28:
 348              		.loc 1 154 0
 349 0054 691F     		subs	r1, r5, #5
 350              		.loc 1 153 0
 351 0056 E060     		str	r0, [r4, #12]
 352              		.loc 1 154 0
 353 0058 1E4A     		ldr	r2, .L38+12
 354 005a 1D48     		ldr	r0, .L38+8
 355 005c 234B     		ldr	r3, .L38+36
 356 005e FFF7FEFF 		bl	chThdCreateFromMemoryPool
 357              	.LVL29:
 358              		.loc 1 156 0
 359 0062 2168     		ldr	r1, [r4]
 360              		.loc 1 154 0
 361 0064 2061     		str	r0, [r4, #16]
 362              		.loc 1 156 0
 363 0066 41B1     		cbz	r1, .L25
 364              		.loc 1 156 0 is_stmt 0 discriminator 1
 365 0068 6168     		ldr	r1, [r4, #4]
 366 006a 31B1     		cbz	r1, .L25
 367              		.loc 1 156 0 discriminator 3
 368 006c A168     		ldr	r1, [r4, #8]
 369 006e 21B1     		cbz	r1, .L25
 370              		.loc 1 156 0 discriminator 5
 371 0070 E168     		ldr	r1, [r4, #12]
 372 0072 11B1     		cbz	r1, .L25
 373              		.loc 1 156 0 discriminator 7
 374 0074 B0FA80F1 		clz	r1, r0
 375 0078 4909     		lsrs	r1, r1, #5
 376              	.L25:
 377              		.loc 1 156 0 discriminator 12
 378 007a 0120     		movs	r0, #1
 379 007c FFF7FEFF 		bl	_test_assert
 380              	.LVL30:
 381 0080 00B1     		cbz	r0, .L37
 382              	.L23:
 383 0082 70BD     		pop	{r4, r5, r6, pc}
 384              	.LVL31:
 385              	.L37:
 386              		.loc 1 164 0 is_stmt 1
 387 0084 FFF7FEFF 		bl	test_wait_threads
 388              	.LVL32:
 389              		.loc 1 165 0
 390 0088 0220     		movs	r0, #2
 391 008a 1949     		ldr	r1, .L38+40
 392 008c FFF7FEFF 		bl	_test_assert_sequence
 393              	.LVL33:
ARM GAS  /tmp/ccSXLDVe.s 			page 8


 394 0090 0028     		cmp	r0, #0
 395 0092 F6D1     		bne	.L23
 396 0094 0424     		movs	r4, #4
 397              	.L29:
 398              	.LVL34:
 399              		.loc 1 169 0
 400 0096 0E48     		ldr	r0, .L38+8
 401 0098 FFF7FEFF 		bl	chPoolAlloc
 402              	.LVL35:
 403 009c 011C     		adds	r1, r0, #0
 404 009e 18BF     		it	ne
 405 00a0 0121     		movne	r1, #1
 406 00a2 0320     		movs	r0, #3
 407 00a4 FFF7FEFF 		bl	_test_assert
 408              	.LVL36:
 409 00a8 0028     		cmp	r0, #0
 410 00aa EAD1     		bne	.L23
 411              		.loc 1 168 0 discriminator 2
 412 00ac 013C     		subs	r4, r4, #1
 413              	.LVL37:
 414 00ae F2D1     		bne	.L29
 415              		.loc 1 170 0
 416 00b0 0748     		ldr	r0, .L38+8
 417 00b2 FFF7FEFF 		bl	chPoolAlloc
 418              	.LVL38:
 419              		.loc 1 171 0
 420 00b6 BDE87040 		pop	{r4, r5, r6, lr}
 421              		.cfi_restore 14
 422              		.cfi_restore 6
 423              		.cfi_restore 5
 424              		.cfi_restore 4
 425              		.cfi_def_cfa_offset 0
 426              	.LVL39:
 427              		.loc 1 170 0
 428 00ba B0FA80F1 		clz	r1, r0
 429 00be 0420     		movs	r0, #4
 430 00c0 4909     		lsrs	r1, r1, #5
 431 00c2 FFF7FEBF 		b	_test_assert
 432              	.LVL40:
 433              	.L39:
 434 00c6 00BF     		.align	2
 435              	.L38:
 436 00c8 00000000 		.word	rlist
 437 00cc 00000000 		.word	wa
 438 00d0 00000000 		.word	.LANCHOR1
 439 00d4 00000000 		.word	thread
 440 00d8 00000000 		.word	.LC0
 441 00dc 00000000 		.word	threads
 442 00e0 04000000 		.word	.LC1
 443 00e4 08000000 		.word	.LC2
 444 00e8 10000000 		.word	.LC4
 445 00ec 14000000 		.word	.LC5
 446 00f0 18000000 		.word	.LC6
 447              		.cfi_endproc
 448              	.LFE11:
 449              		.size	dyn2_execute, .-dyn2_execute
 450 00f4 AFF30080 		.section	.text.dyn2_setup,"ax",%progbits
ARM GAS  /tmp/ccSXLDVe.s 			page 9


 450      AFF30080 
 450      AFF30080 
 451              		.align	2
 452              		.p2align 4,,15
 453              		.thumb
 454              		.thumb_func
 455              		.type	dyn2_setup, %function
 456              	dyn2_setup:
 457              	.LFB10:
 458              		.loc 1 136 0
 459              		.cfi_startproc
 460              		@ args = 0, pretend = 0, frame = 0
 461              		@ frame_needed = 0, uses_anonymous_args = 0
 462              		@ link register save eliminated.
 463              		.loc 1 138 0
 464 0000 0248     		ldr	r0, .L41
 465 0002 4FF4A871 		mov	r1, #336
 466 0006 0022     		movs	r2, #0
 467 0008 FFF7FEBF 		b	chPoolInit
 468              	.LVL41:
 469              	.L42:
 470              		.align	2
 471              	.L41:
 472 000c 00000000 		.word	.LANCHOR1
 473              		.cfi_endproc
 474              	.LFE10:
 475              		.size	dyn2_setup, .-dyn2_setup
 476              		.section	.text.regfind,"ax",%progbits
 477              		.align	2
 478              		.p2align 4,,15
 479              		.thumb
 480              		.thumb_func
 481              		.type	regfind, %function
 482              	regfind:
 483              	.LFB12:
 484              		.loc 1 191 0
 485              		.cfi_startproc
 486              		@ args = 0, pretend = 0, frame = 0
 487              		@ frame_needed = 0, uses_anonymous_args = 0
 488              	.LVL42:
 489 0000 38B5     		push	{r3, r4, r5, lr}
 490              		.cfi_def_cfa_offset 16
 491              		.cfi_offset 3, -16
 492              		.cfi_offset 4, -12
 493              		.cfi_offset 5, -8
 494              		.cfi_offset 14, -4
 495              		.loc 1 191 0
 496 0002 0546     		mov	r5, r0
 497              		.loc 1 195 0
 498 0004 FFF7FEFF 		bl	chRegFirstThread
 499              	.LVL43:
 500              		.loc 1 193 0
 501 0008 0024     		movs	r4, #0
 502              		.loc 1 195 0
 503 000a 0346     		mov	r3, r0
 504              	.LVL44:
 505              	.L44:
ARM GAS  /tmp/ccSXLDVe.s 			page 10


 506              		.loc 1 198 0 discriminator 1
 507 000c 1846     		mov	r0, r3
 508              		.loc 1 197 0 discriminator 1
 509 000e AB42     		cmp	r3, r5
 510 0010 08BF     		it	eq
 511 0012 44F00104 		orreq	r4, r4, #1
 512              	.LVL45:
 513              		.loc 1 198 0 discriminator 1
 514 0016 FFF7FEFF 		bl	chRegNextThread
 515              	.LVL46:
 516              		.loc 1 199 0 discriminator 1
 517 001a 0346     		mov	r3, r0
 518 001c 0028     		cmp	r0, #0
 519 001e F5D1     		bne	.L44
 520              		.loc 1 201 0
 521 0020 2046     		mov	r0, r4
 522              	.LVL47:
 523 0022 38BD     		pop	{r3, r4, r5, pc}
 524              		.cfi_endproc
 525              	.LFE12:
 526              		.size	regfind, .-regfind
 527 0024 AFF30080 		.section	.text.dyn3_execute,"ax",%progbits
 527      AFF30080 
 527      AFF30080 
 528              		.align	2
 529              		.p2align 4,,15
 530              		.thumb
 531              		.thumb_func
 532              		.type	dyn3_execute, %function
 533              	dyn3_execute:
 534              	.LFB14:
 535              		.loc 1 208 0
 536              		.cfi_startproc
 537              		@ args = 0, pretend = 0, frame = 0
 538              		@ frame_needed = 0, uses_anonymous_args = 0
 539              	.LVL48:
 540 0000 10B5     		push	{r4, lr}
 541              		.cfi_def_cfa_offset 8
 542              		.cfi_offset 4, -8
 543              		.cfi_offset 14, -4
 544              		.loc 1 210 0
 545 0002 474B     		ldr	r3, .L53
 546              		.loc 1 213 0
 547 0004 4749     		ldr	r1, .L53+4
 548              		.loc 1 210 0
 549 0006 9B69     		ldr	r3, [r3, #24]
 550              		.loc 1 213 0
 551 0008 4748     		ldr	r0, .L53+8
 552 000a 9A68     		ldr	r2, [r3, #8]
 553 000c 474B     		ldr	r3, .L53+12
 554              		.loc 1 208 0
 555 000e 82B0     		sub	sp, sp, #8
 556              		.cfi_def_cfa_offset 16
 557              		.loc 1 213 0
 558 0010 013A     		subs	r2, r2, #1
 559 0012 0091     		str	r1, [sp]
 560              	.LVL49:
ARM GAS  /tmp/ccSXLDVe.s 			page 11


 561 0014 4FF4A871 		mov	r1, #336
 562 0018 FFF7FEFF 		bl	chThdCreateFromHeap
 563              	.LVL50:
 564 001c 0446     		mov	r4, r0
 565              	.LVL51:
 566              		.loc 1 214 0
 567 001e 0120     		movs	r0, #1
 568              	.LVL52:
 569 0020 A17F     		ldrb	r1, [r4, #30]	@ zero_extendqisi2
 570 0022 091A     		subs	r1, r1, r0
 571 0024 B1FA81F1 		clz	r1, r1
 572 0028 4909     		lsrs	r1, r1, #5
 573 002a FFF7FEFF 		bl	_test_assert
 574              	.LVL53:
 575 002e 08B1     		cbz	r0, .L52
 576              	.L47:
 577              		.loc 1 236 0
 578 0030 02B0     		add	sp, sp, #8
 579              		.cfi_remember_state
 580              		.cfi_def_cfa_offset 8
 581              		@ sp needed
 582 0032 10BD     		pop	{r4, pc}
 583              	.LVL54:
 584              	.L52:
 585              		.cfi_restore_state
 586              		.loc 1 215 0
 587 0034 2046     		mov	r0, r4
 588 0036 FFF7FEFF 		bl	chThdAddRef
 589              	.LVL55:
 590              		.loc 1 216 0
 591 003a A17F     		ldrb	r1, [r4, #30]	@ zero_extendqisi2
 592 003c 0220     		movs	r0, #2
 593 003e 091A     		subs	r1, r1, r0
 594 0040 B1FA81F1 		clz	r1, r1
 595 0044 4909     		lsrs	r1, r1, #5
 596 0046 FFF7FEFF 		bl	_test_assert
 597              	.LVL56:
 598 004a 0028     		cmp	r0, #0
 599 004c F0D1     		bne	.L47
 600              		.loc 1 217 0
 601 004e 2046     		mov	r0, r4
 602 0050 FFF7FEFF 		bl	chThdRelease
 603              	.LVL57:
 604              		.loc 1 218 0
 605 0054 A17F     		ldrb	r1, [r4, #30]	@ zero_extendqisi2
 606 0056 0320     		movs	r0, #3
 607 0058 A1F10101 		sub	r1, #1
 608 005c B1FA81F1 		clz	r1, r1
 609 0060 4909     		lsrs	r1, r1, #5
 610 0062 FFF7FEFF 		bl	_test_assert
 611              	.LVL58:
 612 0066 0028     		cmp	r0, #0
 613 0068 E2D1     		bne	.L47
 614              		.loc 1 221 0
 615 006a 2046     		mov	r0, r4
 616 006c FFF7FEFF 		bl	regfind
 617              	.LVL59:
ARM GAS  /tmp/ccSXLDVe.s 			page 12


 618 0070 0146     		mov	r1, r0
 619 0072 0420     		movs	r0, #4
 620 0074 FFF7FEFF 		bl	_test_assert
 621              	.LVL60:
 622 0078 0028     		cmp	r0, #0
 623 007a D9D1     		bne	.L47
 624              		.loc 1 222 0
 625 007c 2046     		mov	r0, r4
 626 007e FFF7FEFF 		bl	regfind
 627              	.LVL61:
 628 0082 0146     		mov	r1, r0
 629 0084 0520     		movs	r0, #5
 630 0086 FFF7FEFF 		bl	_test_assert
 631              	.LVL62:
 632 008a 0028     		cmp	r0, #0
 633 008c D0D1     		bne	.L47
 634              		.loc 1 225 0
 635 008e 2046     		mov	r0, r4
 636 0090 FFF7FEFF 		bl	chThdRelease
 637              	.LVL63:
 638              		.loc 1 226 0
 639 0094 A17F     		ldrb	r1, [r4, #30]	@ zero_extendqisi2
 640 0096 B1FA81F1 		clz	r1, r1
 641 009a 0620     		movs	r0, #6
 642 009c 4909     		lsrs	r1, r1, #5
 643 009e FFF7FEFF 		bl	_test_assert
 644              	.LVL64:
 645 00a2 0028     		cmp	r0, #0
 646 00a4 C4D1     		bne	.L47
 647              		.loc 1 227 0
 648 00a6 217F     		ldrb	r1, [r4, #28]	@ zero_extendqisi2
 649 00a8 B1FA81F1 		clz	r1, r1
 650 00ac 0720     		movs	r0, #7
 651 00ae 4909     		lsrs	r1, r1, #5
 652 00b0 FFF7FEFF 		bl	_test_assert
 653              	.LVL65:
 654 00b4 0028     		cmp	r0, #0
 655 00b6 BBD1     		bne	.L47
 656              		.loc 1 228 0
 657 00b8 2046     		mov	r0, r4
 658 00ba FFF7FEFF 		bl	regfind
 659              	.LVL66:
 660 00be 0146     		mov	r1, r0
 661 00c0 0820     		movs	r0, #8
 662 00c2 FFF7FEFF 		bl	_test_assert
 663              	.LVL67:
 664 00c6 0028     		cmp	r0, #0
 665 00c8 B2D1     		bne	.L47
 666              		.loc 1 229 0
 667 00ca 2046     		mov	r0, r4
 668 00cc FFF7FEFF 		bl	regfind
 669              	.LVL68:
 670 00d0 0146     		mov	r1, r0
 671 00d2 0920     		movs	r0, #9
 672 00d4 FFF7FEFF 		bl	_test_assert
 673              	.LVL69:
 674 00d8 0028     		cmp	r0, #0
ARM GAS  /tmp/ccSXLDVe.s 			page 13


 675 00da A9D1     		bne	.L47
 676              		.loc 1 230 0
 677 00dc 3220     		movs	r0, #50
 678 00de FFF7FEFF 		bl	chThdSleep
 679              	.LVL70:
 680              		.loc 1 231 0
 681 00e2 217F     		ldrb	r1, [r4, #28]	@ zero_extendqisi2
 682 00e4 A1F10E03 		sub	r3, r1, #14
 683 00e8 5942     		rsbs	r1, r3, #0
 684 00ea 5941     		adcs	r1, r1, r3
 685 00ec 0A20     		movs	r0, #10
 686 00ee FFF7FEFF 		bl	_test_assert
 687              	.LVL71:
 688 00f2 0028     		cmp	r0, #0
 689 00f4 9CD1     		bne	.L47
 690              		.loc 1 234 0
 691 00f6 2046     		mov	r0, r4
 692 00f8 FFF7FEFF 		bl	regfind
 693              	.LVL72:
 694 00fc 0146     		mov	r1, r0
 695 00fe 0B20     		movs	r0, #11
 696 0100 FFF7FEFF 		bl	_test_assert
 697              	.LVL73:
 698 0104 0028     		cmp	r0, #0
 699 0106 93D1     		bne	.L47
 700              		.loc 1 235 0
 701 0108 2046     		mov	r0, r4
 702 010a FFF7FEFF 		bl	regfind
 703              	.LVL74:
 704 010e 80F00101 		eor	r1, r0, #1
 705 0112 C9B2     		uxtb	r1, r1
 706 0114 0C20     		movs	r0, #12
 707              		.loc 1 236 0
 708 0116 02B0     		add	sp, sp, #8
 709              		.cfi_def_cfa_offset 8
 710              		@ sp needed
 711 0118 BDE81040 		pop	{r4, lr}
 712              		.cfi_restore 14
 713              		.cfi_restore 4
 714              		.cfi_def_cfa_offset 0
 715              	.LVL75:
 716              		.loc 1 235 0
 717 011c FFF7FEBF 		b	_test_assert
 718              	.LVL76:
 719              	.L54:
 720              		.align	2
 721              	.L53:
 722 0120 00000000 		.word	rlist
 723 0124 00000000 		.word	.LC0
 724 0128 00000000 		.word	.LANCHOR0
 725 012c 00000000 		.word	thread
 726              		.cfi_endproc
 727              	.LFE14:
 728              		.size	dyn3_execute, .-dyn3_execute
 729              		.global	patterndyn
 730              		.global	testdyn3
 731              		.global	testdyn2
ARM GAS  /tmp/ccSXLDVe.s 			page 14


 732              		.global	testdyn1
 733              		.section	.rodata.testdyn1,"a",%progbits
 734              		.align	2
 735              		.type	testdyn1, %object
 736              		.size	testdyn1, 16
 737              	testdyn1:
 738 0000 78000000 		.word	.LC9
 739 0004 00000000 		.word	dyn1_setup
 740 0008 00000000 		.word	0
 741 000c 00000000 		.word	dyn1_execute
 742              		.section	.rodata.testdyn2,"a",%progbits
 743              		.align	2
 744              		.type	testdyn2, %object
 745              		.size	testdyn2, 16
 746              	testdyn2:
 747 0000 48000000 		.word	.LC8
 748 0004 00000000 		.word	dyn2_setup
 749 0008 00000000 		.word	0
 750 000c 00000000 		.word	dyn2_execute
 751              		.section	.rodata.testdyn3,"a",%progbits
 752              		.align	2
 753              		.type	testdyn3, %object
 754              		.size	testdyn3, 16
 755              	testdyn3:
 756 0000 20000000 		.word	.LC7
 757 0004 00000000 		.word	dyn3_setup
 758 0008 00000000 		.word	0
 759 000c 00000000 		.word	dyn3_execute
 760              		.section	.bss.mp1,"aw",%nobits
 761              		.align	2
 762              		.set	.LANCHOR1,. + 0
 763              		.type	mp1, %object
 764              		.size	mp1, 12
 765              	mp1:
 766 0000 00000000 		.space	12
 766      00000000 
 766      00000000 
 767              		.section	.rodata.str1.4,"aMS",%progbits,1
 768              		.align	2
 769              	.LC0:
 770 0000 4100     		.ascii	"A\000"
 771 0002 0000     		.space	2
 772              	.LC1:
 773 0004 4200     		.ascii	"B\000"
 774 0006 0000     		.space	2
 775              	.LC2:
 776 0008 4300     		.ascii	"C\000"
 777 000a 0000     		.space	2
 778              	.LC3:
 779 000c 414200   		.ascii	"AB\000"
 780 000f 00       		.space	1
 781              	.LC4:
 782 0010 4400     		.ascii	"D\000"
 783 0012 0000     		.space	2
 784              	.LC5:
 785 0014 4500     		.ascii	"E\000"
 786 0016 0000     		.space	2
ARM GAS  /tmp/ccSXLDVe.s 			page 15


 787              	.LC6:
 788 0018 41424344 		.ascii	"ABCD\000"
 788      00
 789 001d 000000   		.space	3
 790              	.LC7:
 791 0020 44796E61 		.ascii	"Dynamic APIs, registry and references\000"
 791      6D696320 
 791      41504973 
 791      2C207265 
 791      67697374 
 792 0046 0000     		.space	2
 793              	.LC8:
 794 0048 44796E61 		.ascii	"Dynamic APIs, threads creation from memory pool\000"
 794      6D696320 
 794      41504973 
 794      2C207468 
 794      72656164 
 795              	.LC9:
 796 0078 44796E61 		.ascii	"Dynamic APIs, threads creation from heap\000"
 796      6D696320 
 796      41504973 
 796      2C207468 
 796      72656164 
 797 00a1 000000   		.section	.rodata.patterndyn,"a",%progbits
 798              		.align	2
 799              		.type	patterndyn, %object
 800              		.size	patterndyn, 16
 801              	patterndyn:
 802 0000 00000000 		.word	testdyn1
 803 0004 00000000 		.word	testdyn2
 804 0008 00000000 		.word	testdyn3
 805 000c 00000000 		.word	0
 806              		.section	.bss.heap1,"aw",%nobits
 807              		.align	3
 808              		.set	.LANCHOR0,. + 0
 809              		.type	heap1, %object
 810              		.size	heap1, 32
 811              	heap1:
 812 0000 00000000 		.space	32
 812      00000000 
 812      00000000 
 812      00000000 
 812      00000000 
 813              		.text
 814              	.Letext0:
 815              		.file 2 "/usr/lib/gcc/arm-none-eabi/4.9.3/include/stddef.h"
 816              		.file 3 "/usr/arm-none-eabi/include/machine/_default_types.h"
 817              		.file 4 "/usr/arm-none-eabi/include/stdint.h"
 818              		.file 5 "/home/austin/git/personal/school/motor_control/chibios/os/ports/GCC/ARMCMx/chtypes.h"
 819              		.file 6 "/home/austin/git/personal/school/motor_control/chibios/os/kernel/include/chlists.h"
 820              		.file 7 "/home/austin/git/personal/school/motor_control/chibios/os/kernel/include/chthreads.h"
 821              		.file 8 "/home/austin/git/personal/school/motor_control/chibios/os/ports/GCC/ARMCMx/chcore_v7m.h"
 822              		.file 9 "/home/austin/git/personal/school/motor_control/chibios/os/kernel/include/chschd.h"
 823              		.file 10 "/home/austin/git/personal/school/motor_control/chibios/os/kernel/include/chmtx.h"
 824              		.file 11 "/home/austin/git/personal/school/motor_control/chibios/os/kernel/include/chmemcore.h"
 825              		.file 12 "/home/austin/git/personal/school/motor_control/chibios/os/kernel/include/chheap.h"
 826              		.file 13 "/home/austin/git/personal/school/motor_control/chibios/os/kernel/include/chmempools.h"
ARM GAS  /tmp/ccSXLDVe.s 			page 16


 827              		.file 14 "/home/austin/git/personal/school/motor_control/chibios/test/test.h"
 828              		.file 15 "/home/austin/git/personal/school/motor_control/chibios/os/kernel/include/chdynamic.h"
 829              		.file 16 "/home/austin/git/personal/school/motor_control/chibios/os/kernel/include/chregistry.h"